
Proba_5.elf:     file format elf32-avr

Sections:
Idx Name          Size      VMA       LMA       File off  Algn
  0 .text         00002d74  00000000  00000000  00000094  2**1
                  CONTENTS, ALLOC, LOAD, READONLY, CODE
  1 .data         00000116  00800060  00002d74  00002e08  2**0
                  CONTENTS, ALLOC, LOAD, DATA
  2 .bss          00000014  00800176  00800176  00002f1e  2**0
                  ALLOC
  3 .debug_aranges 00000180  00000000  00000000  00002f1e  2**0
                  CONTENTS, READONLY, DEBUGGING
  4 .debug_pubnames 000001d3  00000000  00000000  0000309e  2**0
                  CONTENTS, READONLY, DEBUGGING
  5 .debug_info   0000200f  00000000  00000000  00003271  2**0
                  CONTENTS, READONLY, DEBUGGING
  6 .debug_abbrev 00001170  00000000  00000000  00005280  2**0
                  CONTENTS, READONLY, DEBUGGING
  7 .debug_line   00001001  00000000  00000000  000063f0  2**0
                  CONTENTS, READONLY, DEBUGGING
  8 .debug_frame  000001a0  00000000  00000000  000073f4  2**2
                  CONTENTS, READONLY, DEBUGGING
  9 .debug_str    000002c1  00000000  00000000  00007594  2**0
                  CONTENTS, READONLY, DEBUGGING
 10 .debug_loc    000008ae  00000000  00000000  00007855  2**0
                  CONTENTS, READONLY, DEBUGGING
 11 .debug_ranges 00000050  00000000  00000000  00008103  2**0
                  CONTENTS, READONLY, DEBUGGING

Disassembly of section .text:

00000000 <__vectors>:
       0:	0c 94 2a 00 	jmp	0x54	; 0x54 <__ctors_end>
       4:	0c 94 47 00 	jmp	0x8e	; 0x8e <__bad_interrupt>
       8:	0c 94 47 00 	jmp	0x8e	; 0x8e <__bad_interrupt>
       c:	0c 94 47 00 	jmp	0x8e	; 0x8e <__bad_interrupt>
      10:	0c 94 47 00 	jmp	0x8e	; 0x8e <__bad_interrupt>
      14:	0c 94 47 00 	jmp	0x8e	; 0x8e <__bad_interrupt>
      18:	0c 94 47 00 	jmp	0x8e	; 0x8e <__bad_interrupt>
      1c:	0c 94 1b 07 	jmp	0xe36	; 0xe36 <__vector_7>
      20:	0c 94 47 00 	jmp	0x8e	; 0x8e <__bad_interrupt>
      24:	0c 94 47 00 	jmp	0x8e	; 0x8e <__bad_interrupt>
      28:	0c 94 47 00 	jmp	0x8e	; 0x8e <__bad_interrupt>
      2c:	0c 94 fd 09 	jmp	0x13fa	; 0x13fa <__vector_11>
      30:	0c 94 47 00 	jmp	0x8e	; 0x8e <__bad_interrupt>
      34:	0c 94 47 00 	jmp	0x8e	; 0x8e <__bad_interrupt>
      38:	0c 94 47 00 	jmp	0x8e	; 0x8e <__bad_interrupt>
      3c:	0c 94 47 00 	jmp	0x8e	; 0x8e <__bad_interrupt>
      40:	0c 94 47 00 	jmp	0x8e	; 0x8e <__bad_interrupt>
      44:	0c 94 47 00 	jmp	0x8e	; 0x8e <__bad_interrupt>
      48:	0c 94 47 00 	jmp	0x8e	; 0x8e <__bad_interrupt>
      4c:	0c 94 47 00 	jmp	0x8e	; 0x8e <__bad_interrupt>
      50:	0c 94 47 00 	jmp	0x8e	; 0x8e <__bad_interrupt>

00000054 <__ctors_end>:
      54:	11 24       	eor	r1, r1
      56:	1f be       	out	0x3f, r1	; 63
      58:	cf e5       	ldi	r28, 0x5F	; 95
      5a:	d8 e0       	ldi	r29, 0x08	; 8
      5c:	de bf       	out	0x3e, r29	; 62
      5e:	cd bf       	out	0x3d, r28	; 61

00000060 <__do_copy_data>:
      60:	11 e0       	ldi	r17, 0x01	; 1
      62:	a0 e6       	ldi	r26, 0x60	; 96
      64:	b0 e0       	ldi	r27, 0x00	; 0
      66:	e4 e7       	ldi	r30, 0x74	; 116
      68:	fd e2       	ldi	r31, 0x2D	; 45
      6a:	02 c0       	rjmp	.+4      	; 0x70 <.do_copy_data_start>

0000006c <.do_copy_data_loop>:
      6c:	05 90       	lpm	r0, Z+
      6e:	0d 92       	st	X+, r0

00000070 <.do_copy_data_start>:
      70:	a6 37       	cpi	r26, 0x76	; 118
      72:	b1 07       	cpc	r27, r17
      74:	d9 f7       	brne	.-10     	; 0x6c <.do_copy_data_loop>

00000076 <__do_clear_bss>:
      76:	11 e0       	ldi	r17, 0x01	; 1
      78:	a6 e7       	ldi	r26, 0x76	; 118
      7a:	b1 e0       	ldi	r27, 0x01	; 1
      7c:	01 c0       	rjmp	.+2      	; 0x80 <.do_clear_bss_start>

0000007e <.do_clear_bss_loop>:
      7e:	1d 92       	st	X+, r1

00000080 <.do_clear_bss_start>:
      80:	aa 38       	cpi	r26, 0x8A	; 138
      82:	b1 07       	cpc	r27, r17
      84:	e1 f7       	brne	.-8      	; 0x7e <.do_clear_bss_loop>
      86:	0e 94 3d 13 	call	0x267a	; 0x267a <main>
      8a:	0c 94 b8 16 	jmp	0x2d70	; 0x2d70 <_exit>

0000008e <__bad_interrupt>:
      8e:	0c 94 00 00 	jmp	0	; 0x0 <__vectors>

00000092 <__fixunssfsi>:
      92:	ef 92       	push	r14
      94:	ff 92       	push	r15
      96:	0f 93       	push	r16
      98:	1f 93       	push	r17
      9a:	7b 01       	movw	r14, r22
      9c:	8c 01       	movw	r16, r24
      9e:	20 e0       	ldi	r18, 0x00	; 0
      a0:	30 e0       	ldi	r19, 0x00	; 0
      a2:	40 e0       	ldi	r20, 0x00	; 0
      a4:	5f e4       	ldi	r21, 0x4F	; 79
      a6:	0e 94 49 03 	call	0x692	; 0x692 <__gesf2>
      aa:	88 23       	and	r24, r24
      ac:	8c f0       	brlt	.+34     	; 0xd0 <__fixunssfsi+0x3e>
      ae:	c8 01       	movw	r24, r16
      b0:	b7 01       	movw	r22, r14
      b2:	20 e0       	ldi	r18, 0x00	; 0
      b4:	30 e0       	ldi	r19, 0x00	; 0
      b6:	40 e0       	ldi	r20, 0x00	; 0
      b8:	5f e4       	ldi	r21, 0x4F	; 79
      ba:	0e 94 c1 01 	call	0x382	; 0x382 <__subsf3>
      be:	0e 94 a9 03 	call	0x752	; 0x752 <__fixsfsi>
      c2:	9b 01       	movw	r18, r22
      c4:	ac 01       	movw	r20, r24
      c6:	20 50       	subi	r18, 0x00	; 0
      c8:	30 40       	sbci	r19, 0x00	; 0
      ca:	40 40       	sbci	r20, 0x00	; 0
      cc:	50 48       	sbci	r21, 0x80	; 128
      ce:	06 c0       	rjmp	.+12     	; 0xdc <__fixunssfsi+0x4a>
      d0:	c8 01       	movw	r24, r16
      d2:	b7 01       	movw	r22, r14
      d4:	0e 94 a9 03 	call	0x752	; 0x752 <__fixsfsi>
      d8:	9b 01       	movw	r18, r22
      da:	ac 01       	movw	r20, r24
      dc:	b9 01       	movw	r22, r18
      de:	ca 01       	movw	r24, r20
      e0:	1f 91       	pop	r17
      e2:	0f 91       	pop	r16
      e4:	ff 90       	pop	r15
      e6:	ef 90       	pop	r14
      e8:	08 95       	ret

000000ea <_fpadd_parts>:
      ea:	a0 e0       	ldi	r26, 0x00	; 0
      ec:	b0 e0       	ldi	r27, 0x00	; 0
      ee:	eb e7       	ldi	r30, 0x7B	; 123
      f0:	f0 e0       	ldi	r31, 0x00	; 0
      f2:	0c 94 e0 13 	jmp	0x27c0	; 0x27c0 <__prologue_saves__>
      f6:	dc 01       	movw	r26, r24
      f8:	2b 01       	movw	r4, r22
      fa:	fa 01       	movw	r30, r20
      fc:	9c 91       	ld	r25, X
      fe:	92 30       	cpi	r25, 0x02	; 2
     100:	08 f4       	brcc	.+2      	; 0x104 <_fpadd_parts+0x1a>
     102:	39 c1       	rjmp	.+626    	; 0x376 <_fpadd_parts+0x28c>
     104:	eb 01       	movw	r28, r22
     106:	88 81       	ld	r24, Y
     108:	82 30       	cpi	r24, 0x02	; 2
     10a:	08 f4       	brcc	.+2      	; 0x10e <_fpadd_parts+0x24>
     10c:	33 c1       	rjmp	.+614    	; 0x374 <_fpadd_parts+0x28a>
     10e:	94 30       	cpi	r25, 0x04	; 4
     110:	69 f4       	brne	.+26     	; 0x12c <_fpadd_parts+0x42>
     112:	84 30       	cpi	r24, 0x04	; 4
     114:	09 f0       	breq	.+2      	; 0x118 <_fpadd_parts+0x2e>
     116:	2f c1       	rjmp	.+606    	; 0x376 <_fpadd_parts+0x28c>
     118:	11 96       	adiw	r26, 0x01	; 1
     11a:	9c 91       	ld	r25, X
     11c:	11 97       	sbiw	r26, 0x01	; 1
     11e:	89 81       	ldd	r24, Y+1	; 0x01
     120:	98 17       	cp	r25, r24
     122:	09 f4       	brne	.+2      	; 0x126 <_fpadd_parts+0x3c>
     124:	28 c1       	rjmp	.+592    	; 0x376 <_fpadd_parts+0x28c>
     126:	ad e6       	ldi	r26, 0x6D	; 109
     128:	b0 e0       	ldi	r27, 0x00	; 0
     12a:	25 c1       	rjmp	.+586    	; 0x376 <_fpadd_parts+0x28c>
     12c:	84 30       	cpi	r24, 0x04	; 4
     12e:	09 f4       	brne	.+2      	; 0x132 <_fpadd_parts+0x48>
     130:	21 c1       	rjmp	.+578    	; 0x374 <_fpadd_parts+0x28a>
     132:	82 30       	cpi	r24, 0x02	; 2
     134:	a9 f4       	brne	.+42     	; 0x160 <_fpadd_parts+0x76>
     136:	92 30       	cpi	r25, 0x02	; 2
     138:	09 f0       	breq	.+2      	; 0x13c <_fpadd_parts+0x52>
     13a:	1d c1       	rjmp	.+570    	; 0x376 <_fpadd_parts+0x28c>
     13c:	9a 01       	movw	r18, r20
     13e:	ad 01       	movw	r20, r26
     140:	88 e0       	ldi	r24, 0x08	; 8
     142:	ea 01       	movw	r28, r20
     144:	09 90       	ld	r0, Y+
     146:	ae 01       	movw	r20, r28
     148:	e9 01       	movw	r28, r18
     14a:	09 92       	st	Y+, r0
     14c:	9e 01       	movw	r18, r28
     14e:	81 50       	subi	r24, 0x01	; 1
     150:	c1 f7       	brne	.-16     	; 0x142 <_fpadd_parts+0x58>
     152:	e2 01       	movw	r28, r4
     154:	89 81       	ldd	r24, Y+1	; 0x01
     156:	11 96       	adiw	r26, 0x01	; 1
     158:	9c 91       	ld	r25, X
     15a:	89 23       	and	r24, r25
     15c:	81 83       	std	Z+1, r24	; 0x01
     15e:	08 c1       	rjmp	.+528    	; 0x370 <_fpadd_parts+0x286>
     160:	92 30       	cpi	r25, 0x02	; 2
     162:	09 f4       	brne	.+2      	; 0x166 <_fpadd_parts+0x7c>
     164:	07 c1       	rjmp	.+526    	; 0x374 <_fpadd_parts+0x28a>
     166:	12 96       	adiw	r26, 0x02	; 2
     168:	2d 90       	ld	r2, X+
     16a:	3c 90       	ld	r3, X
     16c:	13 97       	sbiw	r26, 0x03	; 3
     16e:	eb 01       	movw	r28, r22
     170:	8a 81       	ldd	r24, Y+2	; 0x02
     172:	9b 81       	ldd	r25, Y+3	; 0x03
     174:	14 96       	adiw	r26, 0x04	; 4
     176:	ad 90       	ld	r10, X+
     178:	bd 90       	ld	r11, X+
     17a:	cd 90       	ld	r12, X+
     17c:	dc 90       	ld	r13, X
     17e:	17 97       	sbiw	r26, 0x07	; 7
     180:	ec 80       	ldd	r14, Y+4	; 0x04
     182:	fd 80       	ldd	r15, Y+5	; 0x05
     184:	0e 81       	ldd	r16, Y+6	; 0x06
     186:	1f 81       	ldd	r17, Y+7	; 0x07
     188:	91 01       	movw	r18, r2
     18a:	28 1b       	sub	r18, r24
     18c:	39 0b       	sbc	r19, r25
     18e:	b9 01       	movw	r22, r18
     190:	37 ff       	sbrs	r19, 7
     192:	04 c0       	rjmp	.+8      	; 0x19c <_fpadd_parts+0xb2>
     194:	66 27       	eor	r22, r22
     196:	77 27       	eor	r23, r23
     198:	62 1b       	sub	r22, r18
     19a:	73 0b       	sbc	r23, r19
     19c:	60 32       	cpi	r22, 0x20	; 32
     19e:	71 05       	cpc	r23, r1
     1a0:	0c f0       	brlt	.+2      	; 0x1a4 <_fpadd_parts+0xba>
     1a2:	61 c0       	rjmp	.+194    	; 0x266 <_fpadd_parts+0x17c>
     1a4:	12 16       	cp	r1, r18
     1a6:	13 06       	cpc	r1, r19
     1a8:	6c f5       	brge	.+90     	; 0x204 <_fpadd_parts+0x11a>
     1aa:	37 01       	movw	r6, r14
     1ac:	48 01       	movw	r8, r16
     1ae:	06 2e       	mov	r0, r22
     1b0:	04 c0       	rjmp	.+8      	; 0x1ba <_fpadd_parts+0xd0>
     1b2:	96 94       	lsr	r9
     1b4:	87 94       	ror	r8
     1b6:	77 94       	ror	r7
     1b8:	67 94       	ror	r6
     1ba:	0a 94       	dec	r0
     1bc:	d2 f7       	brpl	.-12     	; 0x1b2 <_fpadd_parts+0xc8>
     1be:	21 e0       	ldi	r18, 0x01	; 1
     1c0:	30 e0       	ldi	r19, 0x00	; 0
     1c2:	40 e0       	ldi	r20, 0x00	; 0
     1c4:	50 e0       	ldi	r21, 0x00	; 0
     1c6:	04 c0       	rjmp	.+8      	; 0x1d0 <_fpadd_parts+0xe6>
     1c8:	22 0f       	add	r18, r18
     1ca:	33 1f       	adc	r19, r19
     1cc:	44 1f       	adc	r20, r20
     1ce:	55 1f       	adc	r21, r21
     1d0:	6a 95       	dec	r22
     1d2:	d2 f7       	brpl	.-12     	; 0x1c8 <_fpadd_parts+0xde>
     1d4:	21 50       	subi	r18, 0x01	; 1
     1d6:	30 40       	sbci	r19, 0x00	; 0
     1d8:	40 40       	sbci	r20, 0x00	; 0
     1da:	50 40       	sbci	r21, 0x00	; 0
     1dc:	2e 21       	and	r18, r14
     1de:	3f 21       	and	r19, r15
     1e0:	40 23       	and	r20, r16
     1e2:	51 23       	and	r21, r17
     1e4:	21 15       	cp	r18, r1
     1e6:	31 05       	cpc	r19, r1
     1e8:	41 05       	cpc	r20, r1
     1ea:	51 05       	cpc	r21, r1
     1ec:	21 f0       	breq	.+8      	; 0x1f6 <_fpadd_parts+0x10c>
     1ee:	21 e0       	ldi	r18, 0x01	; 1
     1f0:	30 e0       	ldi	r19, 0x00	; 0
     1f2:	40 e0       	ldi	r20, 0x00	; 0
     1f4:	50 e0       	ldi	r21, 0x00	; 0
     1f6:	79 01       	movw	r14, r18
     1f8:	8a 01       	movw	r16, r20
     1fa:	e6 28       	or	r14, r6
     1fc:	f7 28       	or	r15, r7
     1fe:	08 29       	or	r16, r8
     200:	19 29       	or	r17, r9
     202:	3c c0       	rjmp	.+120    	; 0x27c <_fpadd_parts+0x192>
     204:	23 2b       	or	r18, r19
     206:	d1 f1       	breq	.+116    	; 0x27c <_fpadd_parts+0x192>
     208:	26 0e       	add	r2, r22
     20a:	37 1e       	adc	r3, r23
     20c:	35 01       	movw	r6, r10
     20e:	46 01       	movw	r8, r12
     210:	06 2e       	mov	r0, r22
     212:	04 c0       	rjmp	.+8      	; 0x21c <_fpadd_parts+0x132>
     214:	96 94       	lsr	r9
     216:	87 94       	ror	r8
     218:	77 94       	ror	r7
     21a:	67 94       	ror	r6
     21c:	0a 94       	dec	r0
     21e:	d2 f7       	brpl	.-12     	; 0x214 <_fpadd_parts+0x12a>
     220:	21 e0       	ldi	r18, 0x01	; 1
     222:	30 e0       	ldi	r19, 0x00	; 0
     224:	40 e0       	ldi	r20, 0x00	; 0
     226:	50 e0       	ldi	r21, 0x00	; 0
     228:	04 c0       	rjmp	.+8      	; 0x232 <_fpadd_parts+0x148>
     22a:	22 0f       	add	r18, r18
     22c:	33 1f       	adc	r19, r19
     22e:	44 1f       	adc	r20, r20
     230:	55 1f       	adc	r21, r21
     232:	6a 95       	dec	r22
     234:	d2 f7       	brpl	.-12     	; 0x22a <_fpadd_parts+0x140>
     236:	21 50       	subi	r18, 0x01	; 1
     238:	30 40       	sbci	r19, 0x00	; 0
     23a:	40 40       	sbci	r20, 0x00	; 0
     23c:	50 40       	sbci	r21, 0x00	; 0
     23e:	2a 21       	and	r18, r10
     240:	3b 21       	and	r19, r11
     242:	4c 21       	and	r20, r12
     244:	5d 21       	and	r21, r13
     246:	21 15       	cp	r18, r1
     248:	31 05       	cpc	r19, r1
     24a:	41 05       	cpc	r20, r1
     24c:	51 05       	cpc	r21, r1
     24e:	21 f0       	breq	.+8      	; 0x258 <_fpadd_parts+0x16e>
     250:	21 e0       	ldi	r18, 0x01	; 1
     252:	30 e0       	ldi	r19, 0x00	; 0
     254:	40 e0       	ldi	r20, 0x00	; 0
     256:	50 e0       	ldi	r21, 0x00	; 0
     258:	59 01       	movw	r10, r18
     25a:	6a 01       	movw	r12, r20
     25c:	a6 28       	or	r10, r6
     25e:	b7 28       	or	r11, r7
     260:	c8 28       	or	r12, r8
     262:	d9 28       	or	r13, r9
     264:	0b c0       	rjmp	.+22     	; 0x27c <_fpadd_parts+0x192>
     266:	82 15       	cp	r24, r2
     268:	93 05       	cpc	r25, r3
     26a:	2c f0       	brlt	.+10     	; 0x276 <_fpadd_parts+0x18c>
     26c:	1c 01       	movw	r2, r24
     26e:	aa 24       	eor	r10, r10
     270:	bb 24       	eor	r11, r11
     272:	65 01       	movw	r12, r10
     274:	03 c0       	rjmp	.+6      	; 0x27c <_fpadd_parts+0x192>
     276:	ee 24       	eor	r14, r14
     278:	ff 24       	eor	r15, r15
     27a:	87 01       	movw	r16, r14
     27c:	11 96       	adiw	r26, 0x01	; 1
     27e:	9c 91       	ld	r25, X
     280:	d2 01       	movw	r26, r4
     282:	11 96       	adiw	r26, 0x01	; 1
     284:	8c 91       	ld	r24, X
     286:	98 17       	cp	r25, r24
     288:	09 f4       	brne	.+2      	; 0x28c <_fpadd_parts+0x1a2>
     28a:	45 c0       	rjmp	.+138    	; 0x316 <_fpadd_parts+0x22c>
     28c:	99 23       	and	r25, r25
     28e:	39 f0       	breq	.+14     	; 0x29e <_fpadd_parts+0x1b4>
     290:	a8 01       	movw	r20, r16
     292:	97 01       	movw	r18, r14
     294:	2a 19       	sub	r18, r10
     296:	3b 09       	sbc	r19, r11
     298:	4c 09       	sbc	r20, r12
     29a:	5d 09       	sbc	r21, r13
     29c:	06 c0       	rjmp	.+12     	; 0x2aa <_fpadd_parts+0x1c0>
     29e:	a6 01       	movw	r20, r12
     2a0:	95 01       	movw	r18, r10
     2a2:	2e 19       	sub	r18, r14
     2a4:	3f 09       	sbc	r19, r15
     2a6:	40 0b       	sbc	r20, r16
     2a8:	51 0b       	sbc	r21, r17
     2aa:	57 fd       	sbrc	r21, 7
     2ac:	08 c0       	rjmp	.+16     	; 0x2be <_fpadd_parts+0x1d4>
     2ae:	11 82       	std	Z+1, r1	; 0x01
     2b0:	33 82       	std	Z+3, r3	; 0x03
     2b2:	22 82       	std	Z+2, r2	; 0x02
     2b4:	24 83       	std	Z+4, r18	; 0x04
     2b6:	35 83       	std	Z+5, r19	; 0x05
     2b8:	46 83       	std	Z+6, r20	; 0x06
     2ba:	57 83       	std	Z+7, r21	; 0x07
     2bc:	1d c0       	rjmp	.+58     	; 0x2f8 <_fpadd_parts+0x20e>
     2be:	81 e0       	ldi	r24, 0x01	; 1
     2c0:	81 83       	std	Z+1, r24	; 0x01
     2c2:	33 82       	std	Z+3, r3	; 0x03
     2c4:	22 82       	std	Z+2, r2	; 0x02
     2c6:	88 27       	eor	r24, r24
     2c8:	99 27       	eor	r25, r25
     2ca:	dc 01       	movw	r26, r24
     2cc:	82 1b       	sub	r24, r18
     2ce:	93 0b       	sbc	r25, r19
     2d0:	a4 0b       	sbc	r26, r20
     2d2:	b5 0b       	sbc	r27, r21
     2d4:	84 83       	std	Z+4, r24	; 0x04
     2d6:	95 83       	std	Z+5, r25	; 0x05
     2d8:	a6 83       	std	Z+6, r26	; 0x06
     2da:	b7 83       	std	Z+7, r27	; 0x07
     2dc:	0d c0       	rjmp	.+26     	; 0x2f8 <_fpadd_parts+0x20e>
     2de:	22 0f       	add	r18, r18
     2e0:	33 1f       	adc	r19, r19
     2e2:	44 1f       	adc	r20, r20
     2e4:	55 1f       	adc	r21, r21
     2e6:	24 83       	std	Z+4, r18	; 0x04
     2e8:	35 83       	std	Z+5, r19	; 0x05
     2ea:	46 83       	std	Z+6, r20	; 0x06
     2ec:	57 83       	std	Z+7, r21	; 0x07
     2ee:	82 81       	ldd	r24, Z+2	; 0x02
     2f0:	93 81       	ldd	r25, Z+3	; 0x03
     2f2:	01 97       	sbiw	r24, 0x01	; 1
     2f4:	93 83       	std	Z+3, r25	; 0x03
     2f6:	82 83       	std	Z+2, r24	; 0x02
     2f8:	24 81       	ldd	r18, Z+4	; 0x04
     2fa:	35 81       	ldd	r19, Z+5	; 0x05
     2fc:	46 81       	ldd	r20, Z+6	; 0x06
     2fe:	57 81       	ldd	r21, Z+7	; 0x07
     300:	da 01       	movw	r26, r20
     302:	c9 01       	movw	r24, r18
     304:	01 97       	sbiw	r24, 0x01	; 1
     306:	a1 09       	sbc	r26, r1
     308:	b1 09       	sbc	r27, r1
     30a:	8f 5f       	subi	r24, 0xFF	; 255
     30c:	9f 4f       	sbci	r25, 0xFF	; 255
     30e:	af 4f       	sbci	r26, 0xFF	; 255
     310:	bf 43       	sbci	r27, 0x3F	; 63
     312:	28 f3       	brcs	.-54     	; 0x2de <_fpadd_parts+0x1f4>
     314:	0b c0       	rjmp	.+22     	; 0x32c <_fpadd_parts+0x242>
     316:	91 83       	std	Z+1, r25	; 0x01
     318:	33 82       	std	Z+3, r3	; 0x03
     31a:	22 82       	std	Z+2, r2	; 0x02
     31c:	ea 0c       	add	r14, r10
     31e:	fb 1c       	adc	r15, r11
     320:	0c 1d       	adc	r16, r12
     322:	1d 1d       	adc	r17, r13
     324:	e4 82       	std	Z+4, r14	; 0x04
     326:	f5 82       	std	Z+5, r15	; 0x05
     328:	06 83       	std	Z+6, r16	; 0x06
     32a:	17 83       	std	Z+7, r17	; 0x07
     32c:	83 e0       	ldi	r24, 0x03	; 3
     32e:	80 83       	st	Z, r24
     330:	24 81       	ldd	r18, Z+4	; 0x04
     332:	35 81       	ldd	r19, Z+5	; 0x05
     334:	46 81       	ldd	r20, Z+6	; 0x06
     336:	57 81       	ldd	r21, Z+7	; 0x07
     338:	57 ff       	sbrs	r21, 7
     33a:	1a c0       	rjmp	.+52     	; 0x370 <_fpadd_parts+0x286>
     33c:	c9 01       	movw	r24, r18
     33e:	aa 27       	eor	r26, r26
     340:	97 fd       	sbrc	r25, 7
     342:	a0 95       	com	r26
     344:	ba 2f       	mov	r27, r26
     346:	81 70       	andi	r24, 0x01	; 1
     348:	90 70       	andi	r25, 0x00	; 0
     34a:	a0 70       	andi	r26, 0x00	; 0
     34c:	b0 70       	andi	r27, 0x00	; 0
     34e:	56 95       	lsr	r21
     350:	47 95       	ror	r20
     352:	37 95       	ror	r19
     354:	27 95       	ror	r18
     356:	82 2b       	or	r24, r18
     358:	93 2b       	or	r25, r19
     35a:	a4 2b       	or	r26, r20
     35c:	b5 2b       	or	r27, r21
     35e:	84 83       	std	Z+4, r24	; 0x04
     360:	95 83       	std	Z+5, r25	; 0x05
     362:	a6 83       	std	Z+6, r26	; 0x06
     364:	b7 83       	std	Z+7, r27	; 0x07
     366:	82 81       	ldd	r24, Z+2	; 0x02
     368:	93 81       	ldd	r25, Z+3	; 0x03
     36a:	01 96       	adiw	r24, 0x01	; 1
     36c:	93 83       	std	Z+3, r25	; 0x03
     36e:	82 83       	std	Z+2, r24	; 0x02
     370:	df 01       	movw	r26, r30
     372:	01 c0       	rjmp	.+2      	; 0x376 <_fpadd_parts+0x28c>
     374:	d2 01       	movw	r26, r4
     376:	cd 01       	movw	r24, r26
     378:	cd b7       	in	r28, 0x3d	; 61
     37a:	de b7       	in	r29, 0x3e	; 62
     37c:	e2 e1       	ldi	r30, 0x12	; 18
     37e:	0c 94 fc 13 	jmp	0x27f8	; 0x27f8 <__epilogue_restores__>

00000382 <__subsf3>:
     382:	a0 e2       	ldi	r26, 0x20	; 32
     384:	b0 e0       	ldi	r27, 0x00	; 0
     386:	e7 ec       	ldi	r30, 0xC7	; 199
     388:	f1 e0       	ldi	r31, 0x01	; 1
     38a:	0c 94 ec 13 	jmp	0x27d8	; 0x27d8 <__prologue_saves__+0x18>
     38e:	69 83       	std	Y+1, r22	; 0x01
     390:	7a 83       	std	Y+2, r23	; 0x02
     392:	8b 83       	std	Y+3, r24	; 0x03
     394:	9c 83       	std	Y+4, r25	; 0x04
     396:	2d 83       	std	Y+5, r18	; 0x05
     398:	3e 83       	std	Y+6, r19	; 0x06
     39a:	4f 83       	std	Y+7, r20	; 0x07
     39c:	58 87       	std	Y+8, r21	; 0x08
     39e:	e9 e0       	ldi	r30, 0x09	; 9
     3a0:	ee 2e       	mov	r14, r30
     3a2:	f1 2c       	mov	r15, r1
     3a4:	ec 0e       	add	r14, r28
     3a6:	fd 1e       	adc	r15, r29
     3a8:	ce 01       	movw	r24, r28
     3aa:	01 96       	adiw	r24, 0x01	; 1
     3ac:	b7 01       	movw	r22, r14
     3ae:	0e 94 9a 05 	call	0xb34	; 0xb34 <__unpack_f>
     3b2:	8e 01       	movw	r16, r28
     3b4:	0f 5e       	subi	r16, 0xEF	; 239
     3b6:	1f 4f       	sbci	r17, 0xFF	; 255
     3b8:	ce 01       	movw	r24, r28
     3ba:	05 96       	adiw	r24, 0x05	; 5
     3bc:	b8 01       	movw	r22, r16
     3be:	0e 94 9a 05 	call	0xb34	; 0xb34 <__unpack_f>
     3c2:	8a 89       	ldd	r24, Y+18	; 0x12
     3c4:	91 e0       	ldi	r25, 0x01	; 1
     3c6:	89 27       	eor	r24, r25
     3c8:	8a 8b       	std	Y+18, r24	; 0x12
     3ca:	c7 01       	movw	r24, r14
     3cc:	b8 01       	movw	r22, r16
     3ce:	ae 01       	movw	r20, r28
     3d0:	47 5e       	subi	r20, 0xE7	; 231
     3d2:	5f 4f       	sbci	r21, 0xFF	; 255
     3d4:	0e 94 75 00 	call	0xea	; 0xea <_fpadd_parts>
     3d8:	0e 94 c5 04 	call	0x98a	; 0x98a <__pack_f>
     3dc:	a0 96       	adiw	r28, 0x20	; 32
     3de:	e6 e0       	ldi	r30, 0x06	; 6
     3e0:	0c 94 08 14 	jmp	0x2810	; 0x2810 <__epilogue_restores__+0x18>

000003e4 <__addsf3>:
     3e4:	a0 e2       	ldi	r26, 0x20	; 32
     3e6:	b0 e0       	ldi	r27, 0x00	; 0
     3e8:	e8 ef       	ldi	r30, 0xF8	; 248
     3ea:	f1 e0       	ldi	r31, 0x01	; 1
     3ec:	0c 94 ec 13 	jmp	0x27d8	; 0x27d8 <__prologue_saves__+0x18>
     3f0:	69 83       	std	Y+1, r22	; 0x01
     3f2:	7a 83       	std	Y+2, r23	; 0x02
     3f4:	8b 83       	std	Y+3, r24	; 0x03
     3f6:	9c 83       	std	Y+4, r25	; 0x04
     3f8:	2d 83       	std	Y+5, r18	; 0x05
     3fa:	3e 83       	std	Y+6, r19	; 0x06
     3fc:	4f 83       	std	Y+7, r20	; 0x07
     3fe:	58 87       	std	Y+8, r21	; 0x08
     400:	f9 e0       	ldi	r31, 0x09	; 9
     402:	ef 2e       	mov	r14, r31
     404:	f1 2c       	mov	r15, r1
     406:	ec 0e       	add	r14, r28
     408:	fd 1e       	adc	r15, r29
     40a:	ce 01       	movw	r24, r28
     40c:	01 96       	adiw	r24, 0x01	; 1
     40e:	b7 01       	movw	r22, r14
     410:	0e 94 9a 05 	call	0xb34	; 0xb34 <__unpack_f>
     414:	8e 01       	movw	r16, r28
     416:	0f 5e       	subi	r16, 0xEF	; 239
     418:	1f 4f       	sbci	r17, 0xFF	; 255
     41a:	ce 01       	movw	r24, r28
     41c:	05 96       	adiw	r24, 0x05	; 5
     41e:	b8 01       	movw	r22, r16
     420:	0e 94 9a 05 	call	0xb34	; 0xb34 <__unpack_f>
     424:	c7 01       	movw	r24, r14
     426:	b8 01       	movw	r22, r16
     428:	ae 01       	movw	r20, r28
     42a:	47 5e       	subi	r20, 0xE7	; 231
     42c:	5f 4f       	sbci	r21, 0xFF	; 255
     42e:	0e 94 75 00 	call	0xea	; 0xea <_fpadd_parts>
     432:	0e 94 c5 04 	call	0x98a	; 0x98a <__pack_f>
     436:	a0 96       	adiw	r28, 0x20	; 32
     438:	e6 e0       	ldi	r30, 0x06	; 6
     43a:	0c 94 08 14 	jmp	0x2810	; 0x2810 <__epilogue_restores__+0x18>

0000043e <__mulsf3>:
     43e:	a0 e2       	ldi	r26, 0x20	; 32
     440:	b0 e0       	ldi	r27, 0x00	; 0
     442:	e5 e2       	ldi	r30, 0x25	; 37
     444:	f2 e0       	ldi	r31, 0x02	; 2
     446:	0c 94 e0 13 	jmp	0x27c0	; 0x27c0 <__prologue_saves__>
     44a:	69 83       	std	Y+1, r22	; 0x01
     44c:	7a 83       	std	Y+2, r23	; 0x02
     44e:	8b 83       	std	Y+3, r24	; 0x03
     450:	9c 83       	std	Y+4, r25	; 0x04
     452:	2d 83       	std	Y+5, r18	; 0x05
     454:	3e 83       	std	Y+6, r19	; 0x06
     456:	4f 83       	std	Y+7, r20	; 0x07
     458:	58 87       	std	Y+8, r21	; 0x08
     45a:	ce 01       	movw	r24, r28
     45c:	01 96       	adiw	r24, 0x01	; 1
     45e:	be 01       	movw	r22, r28
     460:	67 5f       	subi	r22, 0xF7	; 247
     462:	7f 4f       	sbci	r23, 0xFF	; 255
     464:	0e 94 9a 05 	call	0xb34	; 0xb34 <__unpack_f>
     468:	ce 01       	movw	r24, r28
     46a:	05 96       	adiw	r24, 0x05	; 5
     46c:	be 01       	movw	r22, r28
     46e:	6f 5e       	subi	r22, 0xEF	; 239
     470:	7f 4f       	sbci	r23, 0xFF	; 255
     472:	0e 94 9a 05 	call	0xb34	; 0xb34 <__unpack_f>
     476:	99 85       	ldd	r25, Y+9	; 0x09
     478:	92 30       	cpi	r25, 0x02	; 2
     47a:	88 f0       	brcs	.+34     	; 0x49e <__mulsf3+0x60>
     47c:	89 89       	ldd	r24, Y+17	; 0x11
     47e:	82 30       	cpi	r24, 0x02	; 2
     480:	c8 f0       	brcs	.+50     	; 0x4b4 <__mulsf3+0x76>
     482:	94 30       	cpi	r25, 0x04	; 4
     484:	19 f4       	brne	.+6      	; 0x48c <__mulsf3+0x4e>
     486:	82 30       	cpi	r24, 0x02	; 2
     488:	51 f4       	brne	.+20     	; 0x49e <__mulsf3+0x60>
     48a:	04 c0       	rjmp	.+8      	; 0x494 <__mulsf3+0x56>
     48c:	84 30       	cpi	r24, 0x04	; 4
     48e:	29 f4       	brne	.+10     	; 0x49a <__mulsf3+0x5c>
     490:	92 30       	cpi	r25, 0x02	; 2
     492:	81 f4       	brne	.+32     	; 0x4b4 <__mulsf3+0x76>
     494:	8d e6       	ldi	r24, 0x6D	; 109
     496:	90 e0       	ldi	r25, 0x00	; 0
     498:	c6 c0       	rjmp	.+396    	; 0x626 <__mulsf3+0x1e8>
     49a:	92 30       	cpi	r25, 0x02	; 2
     49c:	49 f4       	brne	.+18     	; 0x4b0 <__mulsf3+0x72>
     49e:	20 e0       	ldi	r18, 0x00	; 0
     4a0:	9a 85       	ldd	r25, Y+10	; 0x0a
     4a2:	8a 89       	ldd	r24, Y+18	; 0x12
     4a4:	98 13       	cpse	r25, r24
     4a6:	21 e0       	ldi	r18, 0x01	; 1
     4a8:	2a 87       	std	Y+10, r18	; 0x0a
     4aa:	ce 01       	movw	r24, r28
     4ac:	09 96       	adiw	r24, 0x09	; 9
     4ae:	bb c0       	rjmp	.+374    	; 0x626 <__mulsf3+0x1e8>
     4b0:	82 30       	cpi	r24, 0x02	; 2
     4b2:	49 f4       	brne	.+18     	; 0x4c6 <__mulsf3+0x88>
     4b4:	20 e0       	ldi	r18, 0x00	; 0
     4b6:	9a 85       	ldd	r25, Y+10	; 0x0a
     4b8:	8a 89       	ldd	r24, Y+18	; 0x12
     4ba:	98 13       	cpse	r25, r24
     4bc:	21 e0       	ldi	r18, 0x01	; 1
     4be:	2a 8b       	std	Y+18, r18	; 0x12
     4c0:	ce 01       	movw	r24, r28
     4c2:	41 96       	adiw	r24, 0x11	; 17
     4c4:	b0 c0       	rjmp	.+352    	; 0x626 <__mulsf3+0x1e8>
     4c6:	2d 84       	ldd	r2, Y+13	; 0x0d
     4c8:	3e 84       	ldd	r3, Y+14	; 0x0e
     4ca:	4f 84       	ldd	r4, Y+15	; 0x0f
     4cc:	58 88       	ldd	r5, Y+16	; 0x10
     4ce:	6d 88       	ldd	r6, Y+21	; 0x15
     4d0:	7e 88       	ldd	r7, Y+22	; 0x16
     4d2:	8f 88       	ldd	r8, Y+23	; 0x17
     4d4:	98 8c       	ldd	r9, Y+24	; 0x18
     4d6:	ee 24       	eor	r14, r14
     4d8:	ff 24       	eor	r15, r15
     4da:	87 01       	movw	r16, r14
     4dc:	aa 24       	eor	r10, r10
     4de:	bb 24       	eor	r11, r11
     4e0:	65 01       	movw	r12, r10
     4e2:	40 e0       	ldi	r20, 0x00	; 0
     4e4:	50 e0       	ldi	r21, 0x00	; 0
     4e6:	60 e0       	ldi	r22, 0x00	; 0
     4e8:	70 e0       	ldi	r23, 0x00	; 0
     4ea:	e0 e0       	ldi	r30, 0x00	; 0
     4ec:	f0 e0       	ldi	r31, 0x00	; 0
     4ee:	c1 01       	movw	r24, r2
     4f0:	81 70       	andi	r24, 0x01	; 1
     4f2:	90 70       	andi	r25, 0x00	; 0
     4f4:	89 2b       	or	r24, r25
     4f6:	e9 f0       	breq	.+58     	; 0x532 <__mulsf3+0xf4>
     4f8:	e6 0c       	add	r14, r6
     4fa:	f7 1c       	adc	r15, r7
     4fc:	08 1d       	adc	r16, r8
     4fe:	19 1d       	adc	r17, r9
     500:	9a 01       	movw	r18, r20
     502:	ab 01       	movw	r20, r22
     504:	2a 0d       	add	r18, r10
     506:	3b 1d       	adc	r19, r11
     508:	4c 1d       	adc	r20, r12
     50a:	5d 1d       	adc	r21, r13
     50c:	80 e0       	ldi	r24, 0x00	; 0
     50e:	90 e0       	ldi	r25, 0x00	; 0
     510:	a0 e0       	ldi	r26, 0x00	; 0
     512:	b0 e0       	ldi	r27, 0x00	; 0
     514:	e6 14       	cp	r14, r6
     516:	f7 04       	cpc	r15, r7
     518:	08 05       	cpc	r16, r8
     51a:	19 05       	cpc	r17, r9
     51c:	20 f4       	brcc	.+8      	; 0x526 <__mulsf3+0xe8>
     51e:	81 e0       	ldi	r24, 0x01	; 1
     520:	90 e0       	ldi	r25, 0x00	; 0
     522:	a0 e0       	ldi	r26, 0x00	; 0
     524:	b0 e0       	ldi	r27, 0x00	; 0
     526:	ba 01       	movw	r22, r20
     528:	a9 01       	movw	r20, r18
     52a:	48 0f       	add	r20, r24
     52c:	59 1f       	adc	r21, r25
     52e:	6a 1f       	adc	r22, r26
     530:	7b 1f       	adc	r23, r27
     532:	aa 0c       	add	r10, r10
     534:	bb 1c       	adc	r11, r11
     536:	cc 1c       	adc	r12, r12
     538:	dd 1c       	adc	r13, r13
     53a:	97 fe       	sbrs	r9, 7
     53c:	08 c0       	rjmp	.+16     	; 0x54e <__mulsf3+0x110>
     53e:	81 e0       	ldi	r24, 0x01	; 1
     540:	90 e0       	ldi	r25, 0x00	; 0
     542:	a0 e0       	ldi	r26, 0x00	; 0
     544:	b0 e0       	ldi	r27, 0x00	; 0
     546:	a8 2a       	or	r10, r24
     548:	b9 2a       	or	r11, r25
     54a:	ca 2a       	or	r12, r26
     54c:	db 2a       	or	r13, r27
     54e:	31 96       	adiw	r30, 0x01	; 1
     550:	e0 32       	cpi	r30, 0x20	; 32
     552:	f1 05       	cpc	r31, r1
     554:	49 f0       	breq	.+18     	; 0x568 <__mulsf3+0x12a>
     556:	66 0c       	add	r6, r6
     558:	77 1c       	adc	r7, r7
     55a:	88 1c       	adc	r8, r8
     55c:	99 1c       	adc	r9, r9
     55e:	56 94       	lsr	r5
     560:	47 94       	ror	r4
     562:	37 94       	ror	r3
     564:	27 94       	ror	r2
     566:	c3 cf       	rjmp	.-122    	; 0x4ee <__mulsf3+0xb0>
     568:	fa 85       	ldd	r31, Y+10	; 0x0a
     56a:	ea 89       	ldd	r30, Y+18	; 0x12
     56c:	2b 89       	ldd	r18, Y+19	; 0x13
     56e:	3c 89       	ldd	r19, Y+20	; 0x14
     570:	8b 85       	ldd	r24, Y+11	; 0x0b
     572:	9c 85       	ldd	r25, Y+12	; 0x0c
     574:	28 0f       	add	r18, r24
     576:	39 1f       	adc	r19, r25
     578:	2e 5f       	subi	r18, 0xFE	; 254
     57a:	3f 4f       	sbci	r19, 0xFF	; 255
     57c:	17 c0       	rjmp	.+46     	; 0x5ac <__mulsf3+0x16e>
     57e:	ca 01       	movw	r24, r20
     580:	81 70       	andi	r24, 0x01	; 1
     582:	90 70       	andi	r25, 0x00	; 0
     584:	89 2b       	or	r24, r25
     586:	61 f0       	breq	.+24     	; 0x5a0 <__mulsf3+0x162>
     588:	16 95       	lsr	r17
     58a:	07 95       	ror	r16
     58c:	f7 94       	ror	r15
     58e:	e7 94       	ror	r14
     590:	80 e0       	ldi	r24, 0x00	; 0
     592:	90 e0       	ldi	r25, 0x00	; 0
     594:	a0 e0       	ldi	r26, 0x00	; 0
     596:	b0 e8       	ldi	r27, 0x80	; 128
     598:	e8 2a       	or	r14, r24
     59a:	f9 2a       	or	r15, r25
     59c:	0a 2b       	or	r16, r26
     59e:	1b 2b       	or	r17, r27
     5a0:	76 95       	lsr	r23
     5a2:	67 95       	ror	r22
     5a4:	57 95       	ror	r21
     5a6:	47 95       	ror	r20
     5a8:	2f 5f       	subi	r18, 0xFF	; 255
     5aa:	3f 4f       	sbci	r19, 0xFF	; 255
     5ac:	77 fd       	sbrc	r23, 7
     5ae:	e7 cf       	rjmp	.-50     	; 0x57e <__mulsf3+0x140>
     5b0:	0c c0       	rjmp	.+24     	; 0x5ca <__mulsf3+0x18c>
     5b2:	44 0f       	add	r20, r20
     5b4:	55 1f       	adc	r21, r21
     5b6:	66 1f       	adc	r22, r22
     5b8:	77 1f       	adc	r23, r23
     5ba:	17 fd       	sbrc	r17, 7
     5bc:	41 60       	ori	r20, 0x01	; 1
     5be:	ee 0c       	add	r14, r14
     5c0:	ff 1c       	adc	r15, r15
     5c2:	00 1f       	adc	r16, r16
     5c4:	11 1f       	adc	r17, r17
     5c6:	21 50       	subi	r18, 0x01	; 1
     5c8:	30 40       	sbci	r19, 0x00	; 0
     5ca:	40 30       	cpi	r20, 0x00	; 0
     5cc:	90 e0       	ldi	r25, 0x00	; 0
     5ce:	59 07       	cpc	r21, r25
     5d0:	90 e0       	ldi	r25, 0x00	; 0
     5d2:	69 07       	cpc	r22, r25
     5d4:	90 e4       	ldi	r25, 0x40	; 64
     5d6:	79 07       	cpc	r23, r25
     5d8:	60 f3       	brcs	.-40     	; 0x5b2 <__mulsf3+0x174>
     5da:	2b 8f       	std	Y+27, r18	; 0x1b
     5dc:	3c 8f       	std	Y+28, r19	; 0x1c
     5de:	db 01       	movw	r26, r22
     5e0:	ca 01       	movw	r24, r20
     5e2:	8f 77       	andi	r24, 0x7F	; 127
     5e4:	90 70       	andi	r25, 0x00	; 0
     5e6:	a0 70       	andi	r26, 0x00	; 0
     5e8:	b0 70       	andi	r27, 0x00	; 0
     5ea:	80 34       	cpi	r24, 0x40	; 64
     5ec:	91 05       	cpc	r25, r1
     5ee:	a1 05       	cpc	r26, r1
     5f0:	b1 05       	cpc	r27, r1
     5f2:	61 f4       	brne	.+24     	; 0x60c <__mulsf3+0x1ce>
     5f4:	47 fd       	sbrc	r20, 7
     5f6:	0a c0       	rjmp	.+20     	; 0x60c <__mulsf3+0x1ce>
     5f8:	e1 14       	cp	r14, r1
     5fa:	f1 04       	cpc	r15, r1
     5fc:	01 05       	cpc	r16, r1
     5fe:	11 05       	cpc	r17, r1
     600:	29 f0       	breq	.+10     	; 0x60c <__mulsf3+0x1ce>
     602:	40 5c       	subi	r20, 0xC0	; 192
     604:	5f 4f       	sbci	r21, 0xFF	; 255
     606:	6f 4f       	sbci	r22, 0xFF	; 255
     608:	7f 4f       	sbci	r23, 0xFF	; 255
     60a:	40 78       	andi	r20, 0x80	; 128
     60c:	1a 8e       	std	Y+26, r1	; 0x1a
     60e:	fe 17       	cp	r31, r30
     610:	11 f0       	breq	.+4      	; 0x616 <__mulsf3+0x1d8>
     612:	81 e0       	ldi	r24, 0x01	; 1
     614:	8a 8f       	std	Y+26, r24	; 0x1a
     616:	4d 8f       	std	Y+29, r20	; 0x1d
     618:	5e 8f       	std	Y+30, r21	; 0x1e
     61a:	6f 8f       	std	Y+31, r22	; 0x1f
     61c:	78 a3       	std	Y+32, r23	; 0x20
     61e:	83 e0       	ldi	r24, 0x03	; 3
     620:	89 8f       	std	Y+25, r24	; 0x19
     622:	ce 01       	movw	r24, r28
     624:	49 96       	adiw	r24, 0x19	; 25
     626:	0e 94 c5 04 	call	0x98a	; 0x98a <__pack_f>
     62a:	a0 96       	adiw	r28, 0x20	; 32
     62c:	e2 e1       	ldi	r30, 0x12	; 18
     62e:	0c 94 fc 13 	jmp	0x27f8	; 0x27f8 <__epilogue_restores__>

00000632 <__gtsf2>:
     632:	a8 e1       	ldi	r26, 0x18	; 24
     634:	b0 e0       	ldi	r27, 0x00	; 0
     636:	ef e1       	ldi	r30, 0x1F	; 31
     638:	f3 e0       	ldi	r31, 0x03	; 3
     63a:	0c 94 ec 13 	jmp	0x27d8	; 0x27d8 <__prologue_saves__+0x18>
     63e:	69 83       	std	Y+1, r22	; 0x01
     640:	7a 83       	std	Y+2, r23	; 0x02
     642:	8b 83       	std	Y+3, r24	; 0x03
     644:	9c 83       	std	Y+4, r25	; 0x04
     646:	2d 83       	std	Y+5, r18	; 0x05
     648:	3e 83       	std	Y+6, r19	; 0x06
     64a:	4f 83       	std	Y+7, r20	; 0x07
     64c:	58 87       	std	Y+8, r21	; 0x08
     64e:	89 e0       	ldi	r24, 0x09	; 9
     650:	e8 2e       	mov	r14, r24
     652:	f1 2c       	mov	r15, r1
     654:	ec 0e       	add	r14, r28
     656:	fd 1e       	adc	r15, r29
     658:	ce 01       	movw	r24, r28
     65a:	01 96       	adiw	r24, 0x01	; 1
     65c:	b7 01       	movw	r22, r14
     65e:	0e 94 9a 05 	call	0xb34	; 0xb34 <__unpack_f>
     662:	8e 01       	movw	r16, r28
     664:	0f 5e       	subi	r16, 0xEF	; 239
     666:	1f 4f       	sbci	r17, 0xFF	; 255
     668:	ce 01       	movw	r24, r28
     66a:	05 96       	adiw	r24, 0x05	; 5
     66c:	b8 01       	movw	r22, r16
     66e:	0e 94 9a 05 	call	0xb34	; 0xb34 <__unpack_f>
     672:	89 85       	ldd	r24, Y+9	; 0x09
     674:	82 30       	cpi	r24, 0x02	; 2
     676:	40 f0       	brcs	.+16     	; 0x688 <__gtsf2+0x56>
     678:	89 89       	ldd	r24, Y+17	; 0x11
     67a:	82 30       	cpi	r24, 0x02	; 2
     67c:	28 f0       	brcs	.+10     	; 0x688 <__gtsf2+0x56>
     67e:	c7 01       	movw	r24, r14
     680:	b8 01       	movw	r22, r16
     682:	0e 94 12 06 	call	0xc24	; 0xc24 <__fpcmp_parts_f>
     686:	01 c0       	rjmp	.+2      	; 0x68a <__gtsf2+0x58>
     688:	8f ef       	ldi	r24, 0xFF	; 255
     68a:	68 96       	adiw	r28, 0x18	; 24
     68c:	e6 e0       	ldi	r30, 0x06	; 6
     68e:	0c 94 08 14 	jmp	0x2810	; 0x2810 <__epilogue_restores__+0x18>

00000692 <__gesf2>:
     692:	a8 e1       	ldi	r26, 0x18	; 24
     694:	b0 e0       	ldi	r27, 0x00	; 0
     696:	ef e4       	ldi	r30, 0x4F	; 79
     698:	f3 e0       	ldi	r31, 0x03	; 3
     69a:	0c 94 ec 13 	jmp	0x27d8	; 0x27d8 <__prologue_saves__+0x18>
     69e:	69 83       	std	Y+1, r22	; 0x01
     6a0:	7a 83       	std	Y+2, r23	; 0x02
     6a2:	8b 83       	std	Y+3, r24	; 0x03
     6a4:	9c 83       	std	Y+4, r25	; 0x04
     6a6:	2d 83       	std	Y+5, r18	; 0x05
     6a8:	3e 83       	std	Y+6, r19	; 0x06
     6aa:	4f 83       	std	Y+7, r20	; 0x07
     6ac:	58 87       	std	Y+8, r21	; 0x08
     6ae:	89 e0       	ldi	r24, 0x09	; 9
     6b0:	e8 2e       	mov	r14, r24
     6b2:	f1 2c       	mov	r15, r1
     6b4:	ec 0e       	add	r14, r28
     6b6:	fd 1e       	adc	r15, r29
     6b8:	ce 01       	movw	r24, r28
     6ba:	01 96       	adiw	r24, 0x01	; 1
     6bc:	b7 01       	movw	r22, r14
     6be:	0e 94 9a 05 	call	0xb34	; 0xb34 <__unpack_f>
     6c2:	8e 01       	movw	r16, r28
     6c4:	0f 5e       	subi	r16, 0xEF	; 239
     6c6:	1f 4f       	sbci	r17, 0xFF	; 255
     6c8:	ce 01       	movw	r24, r28
     6ca:	05 96       	adiw	r24, 0x05	; 5
     6cc:	b8 01       	movw	r22, r16
     6ce:	0e 94 9a 05 	call	0xb34	; 0xb34 <__unpack_f>
     6d2:	89 85       	ldd	r24, Y+9	; 0x09
     6d4:	82 30       	cpi	r24, 0x02	; 2
     6d6:	40 f0       	brcs	.+16     	; 0x6e8 <__gesf2+0x56>
     6d8:	89 89       	ldd	r24, Y+17	; 0x11
     6da:	82 30       	cpi	r24, 0x02	; 2
     6dc:	28 f0       	brcs	.+10     	; 0x6e8 <__gesf2+0x56>
     6de:	c7 01       	movw	r24, r14
     6e0:	b8 01       	movw	r22, r16
     6e2:	0e 94 12 06 	call	0xc24	; 0xc24 <__fpcmp_parts_f>
     6e6:	01 c0       	rjmp	.+2      	; 0x6ea <__gesf2+0x58>
     6e8:	8f ef       	ldi	r24, 0xFF	; 255
     6ea:	68 96       	adiw	r28, 0x18	; 24
     6ec:	e6 e0       	ldi	r30, 0x06	; 6
     6ee:	0c 94 08 14 	jmp	0x2810	; 0x2810 <__epilogue_restores__+0x18>

000006f2 <__ltsf2>:
     6f2:	a8 e1       	ldi	r26, 0x18	; 24
     6f4:	b0 e0       	ldi	r27, 0x00	; 0
     6f6:	ef e7       	ldi	r30, 0x7F	; 127
     6f8:	f3 e0       	ldi	r31, 0x03	; 3
     6fa:	0c 94 ec 13 	jmp	0x27d8	; 0x27d8 <__prologue_saves__+0x18>
     6fe:	69 83       	std	Y+1, r22	; 0x01
     700:	7a 83       	std	Y+2, r23	; 0x02
     702:	8b 83       	std	Y+3, r24	; 0x03
     704:	9c 83       	std	Y+4, r25	; 0x04
     706:	2d 83       	std	Y+5, r18	; 0x05
     708:	3e 83       	std	Y+6, r19	; 0x06
     70a:	4f 83       	std	Y+7, r20	; 0x07
     70c:	58 87       	std	Y+8, r21	; 0x08
     70e:	89 e0       	ldi	r24, 0x09	; 9
     710:	e8 2e       	mov	r14, r24
     712:	f1 2c       	mov	r15, r1
     714:	ec 0e       	add	r14, r28
     716:	fd 1e       	adc	r15, r29
     718:	ce 01       	movw	r24, r28
     71a:	01 96       	adiw	r24, 0x01	; 1
     71c:	b7 01       	movw	r22, r14
     71e:	0e 94 9a 05 	call	0xb34	; 0xb34 <__unpack_f>
     722:	8e 01       	movw	r16, r28
     724:	0f 5e       	subi	r16, 0xEF	; 239
     726:	1f 4f       	sbci	r17, 0xFF	; 255
     728:	ce 01       	movw	r24, r28
     72a:	05 96       	adiw	r24, 0x05	; 5
     72c:	b8 01       	movw	r22, r16
     72e:	0e 94 9a 05 	call	0xb34	; 0xb34 <__unpack_f>
     732:	89 85       	ldd	r24, Y+9	; 0x09
     734:	82 30       	cpi	r24, 0x02	; 2
     736:	40 f0       	brcs	.+16     	; 0x748 <__ltsf2+0x56>
     738:	89 89       	ldd	r24, Y+17	; 0x11
     73a:	82 30       	cpi	r24, 0x02	; 2
     73c:	28 f0       	brcs	.+10     	; 0x748 <__ltsf2+0x56>
     73e:	c7 01       	movw	r24, r14
     740:	b8 01       	movw	r22, r16
     742:	0e 94 12 06 	call	0xc24	; 0xc24 <__fpcmp_parts_f>
     746:	01 c0       	rjmp	.+2      	; 0x74a <__ltsf2+0x58>
     748:	81 e0       	ldi	r24, 0x01	; 1
     74a:	68 96       	adiw	r28, 0x18	; 24
     74c:	e6 e0       	ldi	r30, 0x06	; 6
     74e:	0c 94 08 14 	jmp	0x2810	; 0x2810 <__epilogue_restores__+0x18>

00000752 <__fixsfsi>:
     752:	ac e0       	ldi	r26, 0x0C	; 12
     754:	b0 e0       	ldi	r27, 0x00	; 0
     756:	ef ea       	ldi	r30, 0xAF	; 175
     758:	f3 e0       	ldi	r31, 0x03	; 3
     75a:	0c 94 f0 13 	jmp	0x27e0	; 0x27e0 <__prologue_saves__+0x20>
     75e:	69 83       	std	Y+1, r22	; 0x01
     760:	7a 83       	std	Y+2, r23	; 0x02
     762:	8b 83       	std	Y+3, r24	; 0x03
     764:	9c 83       	std	Y+4, r25	; 0x04
     766:	ce 01       	movw	r24, r28
     768:	01 96       	adiw	r24, 0x01	; 1
     76a:	be 01       	movw	r22, r28
     76c:	6b 5f       	subi	r22, 0xFB	; 251
     76e:	7f 4f       	sbci	r23, 0xFF	; 255
     770:	0e 94 9a 05 	call	0xb34	; 0xb34 <__unpack_f>
     774:	8d 81       	ldd	r24, Y+5	; 0x05
     776:	82 30       	cpi	r24, 0x02	; 2
     778:	61 f1       	breq	.+88     	; 0x7d2 <__fixsfsi+0x80>
     77a:	82 30       	cpi	r24, 0x02	; 2
     77c:	50 f1       	brcs	.+84     	; 0x7d2 <__fixsfsi+0x80>
     77e:	84 30       	cpi	r24, 0x04	; 4
     780:	21 f4       	brne	.+8      	; 0x78a <__fixsfsi+0x38>
     782:	8e 81       	ldd	r24, Y+6	; 0x06
     784:	88 23       	and	r24, r24
     786:	51 f1       	breq	.+84     	; 0x7dc <__fixsfsi+0x8a>
     788:	2e c0       	rjmp	.+92     	; 0x7e6 <__fixsfsi+0x94>
     78a:	2f 81       	ldd	r18, Y+7	; 0x07
     78c:	38 85       	ldd	r19, Y+8	; 0x08
     78e:	37 fd       	sbrc	r19, 7
     790:	20 c0       	rjmp	.+64     	; 0x7d2 <__fixsfsi+0x80>
     792:	6e 81       	ldd	r22, Y+6	; 0x06
     794:	2f 31       	cpi	r18, 0x1F	; 31
     796:	31 05       	cpc	r19, r1
     798:	1c f0       	brlt	.+6      	; 0x7a0 <__fixsfsi+0x4e>
     79a:	66 23       	and	r22, r22
     79c:	f9 f0       	breq	.+62     	; 0x7dc <__fixsfsi+0x8a>
     79e:	23 c0       	rjmp	.+70     	; 0x7e6 <__fixsfsi+0x94>
     7a0:	8e e1       	ldi	r24, 0x1E	; 30
     7a2:	90 e0       	ldi	r25, 0x00	; 0
     7a4:	82 1b       	sub	r24, r18
     7a6:	93 0b       	sbc	r25, r19
     7a8:	29 85       	ldd	r18, Y+9	; 0x09
     7aa:	3a 85       	ldd	r19, Y+10	; 0x0a
     7ac:	4b 85       	ldd	r20, Y+11	; 0x0b
     7ae:	5c 85       	ldd	r21, Y+12	; 0x0c
     7b0:	04 c0       	rjmp	.+8      	; 0x7ba <__fixsfsi+0x68>
     7b2:	56 95       	lsr	r21
     7b4:	47 95       	ror	r20
     7b6:	37 95       	ror	r19
     7b8:	27 95       	ror	r18
     7ba:	8a 95       	dec	r24
     7bc:	d2 f7       	brpl	.-12     	; 0x7b2 <__fixsfsi+0x60>
     7be:	66 23       	and	r22, r22
     7c0:	b1 f0       	breq	.+44     	; 0x7ee <__fixsfsi+0x9c>
     7c2:	50 95       	com	r21
     7c4:	40 95       	com	r20
     7c6:	30 95       	com	r19
     7c8:	21 95       	neg	r18
     7ca:	3f 4f       	sbci	r19, 0xFF	; 255
     7cc:	4f 4f       	sbci	r20, 0xFF	; 255
     7ce:	5f 4f       	sbci	r21, 0xFF	; 255
     7d0:	0e c0       	rjmp	.+28     	; 0x7ee <__fixsfsi+0x9c>
     7d2:	20 e0       	ldi	r18, 0x00	; 0
     7d4:	30 e0       	ldi	r19, 0x00	; 0
     7d6:	40 e0       	ldi	r20, 0x00	; 0
     7d8:	50 e0       	ldi	r21, 0x00	; 0
     7da:	09 c0       	rjmp	.+18     	; 0x7ee <__fixsfsi+0x9c>
     7dc:	2f ef       	ldi	r18, 0xFF	; 255
     7de:	3f ef       	ldi	r19, 0xFF	; 255
     7e0:	4f ef       	ldi	r20, 0xFF	; 255
     7e2:	5f e7       	ldi	r21, 0x7F	; 127
     7e4:	04 c0       	rjmp	.+8      	; 0x7ee <__fixsfsi+0x9c>
     7e6:	20 e0       	ldi	r18, 0x00	; 0
     7e8:	30 e0       	ldi	r19, 0x00	; 0
     7ea:	40 e0       	ldi	r20, 0x00	; 0
     7ec:	50 e8       	ldi	r21, 0x80	; 128
     7ee:	b9 01       	movw	r22, r18
     7f0:	ca 01       	movw	r24, r20
     7f2:	2c 96       	adiw	r28, 0x0c	; 12
     7f4:	e2 e0       	ldi	r30, 0x02	; 2
     7f6:	0c 94 0c 14 	jmp	0x2818	; 0x2818 <__epilogue_restores__+0x20>

000007fa <__floatunsisf>:
     7fa:	a8 e0       	ldi	r26, 0x08	; 8
     7fc:	b0 e0       	ldi	r27, 0x00	; 0
     7fe:	e3 e0       	ldi	r30, 0x03	; 3
     800:	f4 e0       	ldi	r31, 0x04	; 4
     802:	0c 94 e8 13 	jmp	0x27d0	; 0x27d0 <__prologue_saves__+0x10>
     806:	7b 01       	movw	r14, r22
     808:	8c 01       	movw	r16, r24
     80a:	61 15       	cp	r22, r1
     80c:	71 05       	cpc	r23, r1
     80e:	81 05       	cpc	r24, r1
     810:	91 05       	cpc	r25, r1
     812:	19 f4       	brne	.+6      	; 0x81a <__floatunsisf+0x20>
     814:	82 e0       	ldi	r24, 0x02	; 2
     816:	89 83       	std	Y+1, r24	; 0x01
     818:	60 c0       	rjmp	.+192    	; 0x8da <__stack+0x7b>
     81a:	83 e0       	ldi	r24, 0x03	; 3
     81c:	89 83       	std	Y+1, r24	; 0x01
     81e:	8e e1       	ldi	r24, 0x1E	; 30
     820:	c8 2e       	mov	r12, r24
     822:	d1 2c       	mov	r13, r1
     824:	dc 82       	std	Y+4, r13	; 0x04
     826:	cb 82       	std	Y+3, r12	; 0x03
     828:	ed 82       	std	Y+5, r14	; 0x05
     82a:	fe 82       	std	Y+6, r15	; 0x06
     82c:	0f 83       	std	Y+7, r16	; 0x07
     82e:	18 87       	std	Y+8, r17	; 0x08
     830:	c8 01       	movw	r24, r16
     832:	b7 01       	movw	r22, r14
     834:	0e 94 76 04 	call	0x8ec	; 0x8ec <__clzsi2>
     838:	fc 01       	movw	r30, r24
     83a:	31 97       	sbiw	r30, 0x01	; 1
     83c:	f7 ff       	sbrs	r31, 7
     83e:	3b c0       	rjmp	.+118    	; 0x8b6 <__stack+0x57>
     840:	22 27       	eor	r18, r18
     842:	33 27       	eor	r19, r19
     844:	2e 1b       	sub	r18, r30
     846:	3f 0b       	sbc	r19, r31
     848:	57 01       	movw	r10, r14
     84a:	68 01       	movw	r12, r16
     84c:	02 2e       	mov	r0, r18
     84e:	04 c0       	rjmp	.+8      	; 0x858 <__floatunsisf+0x5e>
     850:	d6 94       	lsr	r13
     852:	c7 94       	ror	r12
     854:	b7 94       	ror	r11
     856:	a7 94       	ror	r10
     858:	0a 94       	dec	r0
     85a:	d2 f7       	brpl	.-12     	; 0x850 <__floatunsisf+0x56>
     85c:	40 e0       	ldi	r20, 0x00	; 0
     85e:	50 e0       	ldi	r21, 0x00	; 0
     860:	60 e0       	ldi	r22, 0x00	; 0
     862:	70 e0       	ldi	r23, 0x00	; 0
     864:	81 e0       	ldi	r24, 0x01	; 1
     866:	90 e0       	ldi	r25, 0x00	; 0
     868:	a0 e0       	ldi	r26, 0x00	; 0
     86a:	b0 e0       	ldi	r27, 0x00	; 0
     86c:	04 c0       	rjmp	.+8      	; 0x876 <__stack+0x17>
     86e:	88 0f       	add	r24, r24
     870:	99 1f       	adc	r25, r25
     872:	aa 1f       	adc	r26, r26
     874:	bb 1f       	adc	r27, r27
     876:	2a 95       	dec	r18
     878:	d2 f7       	brpl	.-12     	; 0x86e <__stack+0xf>
     87a:	01 97       	sbiw	r24, 0x01	; 1
     87c:	a1 09       	sbc	r26, r1
     87e:	b1 09       	sbc	r27, r1
     880:	8e 21       	and	r24, r14
     882:	9f 21       	and	r25, r15
     884:	a0 23       	and	r26, r16
     886:	b1 23       	and	r27, r17
     888:	00 97       	sbiw	r24, 0x00	; 0
     88a:	a1 05       	cpc	r26, r1
     88c:	b1 05       	cpc	r27, r1
     88e:	21 f0       	breq	.+8      	; 0x898 <__stack+0x39>
     890:	41 e0       	ldi	r20, 0x01	; 1
     892:	50 e0       	ldi	r21, 0x00	; 0
     894:	60 e0       	ldi	r22, 0x00	; 0
     896:	70 e0       	ldi	r23, 0x00	; 0
     898:	4a 29       	or	r20, r10
     89a:	5b 29       	or	r21, r11
     89c:	6c 29       	or	r22, r12
     89e:	7d 29       	or	r23, r13
     8a0:	4d 83       	std	Y+5, r20	; 0x05
     8a2:	5e 83       	std	Y+6, r21	; 0x06
     8a4:	6f 83       	std	Y+7, r22	; 0x07
     8a6:	78 87       	std	Y+8, r23	; 0x08
     8a8:	8e e1       	ldi	r24, 0x1E	; 30
     8aa:	90 e0       	ldi	r25, 0x00	; 0
     8ac:	8e 1b       	sub	r24, r30
     8ae:	9f 0b       	sbc	r25, r31
     8b0:	9c 83       	std	Y+4, r25	; 0x04
     8b2:	8b 83       	std	Y+3, r24	; 0x03
     8b4:	12 c0       	rjmp	.+36     	; 0x8da <__stack+0x7b>
     8b6:	30 97       	sbiw	r30, 0x00	; 0
     8b8:	81 f0       	breq	.+32     	; 0x8da <__stack+0x7b>
     8ba:	0e 2e       	mov	r0, r30
     8bc:	04 c0       	rjmp	.+8      	; 0x8c6 <__stack+0x67>
     8be:	ee 0c       	add	r14, r14
     8c0:	ff 1c       	adc	r15, r15
     8c2:	00 1f       	adc	r16, r16
     8c4:	11 1f       	adc	r17, r17
     8c6:	0a 94       	dec	r0
     8c8:	d2 f7       	brpl	.-12     	; 0x8be <__stack+0x5f>
     8ca:	ed 82       	std	Y+5, r14	; 0x05
     8cc:	fe 82       	std	Y+6, r15	; 0x06
     8ce:	0f 83       	std	Y+7, r16	; 0x07
     8d0:	18 87       	std	Y+8, r17	; 0x08
     8d2:	ce 1a       	sub	r12, r30
     8d4:	df 0a       	sbc	r13, r31
     8d6:	dc 82       	std	Y+4, r13	; 0x04
     8d8:	cb 82       	std	Y+3, r12	; 0x03
     8da:	1a 82       	std	Y+2, r1	; 0x02
     8dc:	ce 01       	movw	r24, r28
     8de:	01 96       	adiw	r24, 0x01	; 1
     8e0:	0e 94 c5 04 	call	0x98a	; 0x98a <__pack_f>
     8e4:	28 96       	adiw	r28, 0x08	; 8
     8e6:	ea e0       	ldi	r30, 0x0A	; 10
     8e8:	0c 94 04 14 	jmp	0x2808	; 0x2808 <__epilogue_restores__+0x10>

000008ec <__clzsi2>:
     8ec:	ef 92       	push	r14
     8ee:	ff 92       	push	r15
     8f0:	0f 93       	push	r16
     8f2:	1f 93       	push	r17
     8f4:	7b 01       	movw	r14, r22
     8f6:	8c 01       	movw	r16, r24
     8f8:	80 e0       	ldi	r24, 0x00	; 0
     8fa:	e8 16       	cp	r14, r24
     8fc:	80 e0       	ldi	r24, 0x00	; 0
     8fe:	f8 06       	cpc	r15, r24
     900:	81 e0       	ldi	r24, 0x01	; 1
     902:	08 07       	cpc	r16, r24
     904:	80 e0       	ldi	r24, 0x00	; 0
     906:	18 07       	cpc	r17, r24
     908:	88 f4       	brcc	.+34     	; 0x92c <__clzsi2+0x40>
     90a:	8f ef       	ldi	r24, 0xFF	; 255
     90c:	e8 16       	cp	r14, r24
     90e:	f1 04       	cpc	r15, r1
     910:	01 05       	cpc	r16, r1
     912:	11 05       	cpc	r17, r1
     914:	31 f0       	breq	.+12     	; 0x922 <__clzsi2+0x36>
     916:	28 f0       	brcs	.+10     	; 0x922 <__clzsi2+0x36>
     918:	88 e0       	ldi	r24, 0x08	; 8
     91a:	90 e0       	ldi	r25, 0x00	; 0
     91c:	a0 e0       	ldi	r26, 0x00	; 0
     91e:	b0 e0       	ldi	r27, 0x00	; 0
     920:	17 c0       	rjmp	.+46     	; 0x950 <__clzsi2+0x64>
     922:	80 e0       	ldi	r24, 0x00	; 0
     924:	90 e0       	ldi	r25, 0x00	; 0
     926:	a0 e0       	ldi	r26, 0x00	; 0
     928:	b0 e0       	ldi	r27, 0x00	; 0
     92a:	12 c0       	rjmp	.+36     	; 0x950 <__clzsi2+0x64>
     92c:	80 e0       	ldi	r24, 0x00	; 0
     92e:	e8 16       	cp	r14, r24
     930:	80 e0       	ldi	r24, 0x00	; 0
     932:	f8 06       	cpc	r15, r24
     934:	80 e0       	ldi	r24, 0x00	; 0
     936:	08 07       	cpc	r16, r24
     938:	81 e0       	ldi	r24, 0x01	; 1
     93a:	18 07       	cpc	r17, r24
     93c:	28 f0       	brcs	.+10     	; 0x948 <__clzsi2+0x5c>
     93e:	88 e1       	ldi	r24, 0x18	; 24
     940:	90 e0       	ldi	r25, 0x00	; 0
     942:	a0 e0       	ldi	r26, 0x00	; 0
     944:	b0 e0       	ldi	r27, 0x00	; 0
     946:	04 c0       	rjmp	.+8      	; 0x950 <__clzsi2+0x64>
     948:	80 e1       	ldi	r24, 0x10	; 16
     94a:	90 e0       	ldi	r25, 0x00	; 0
     94c:	a0 e0       	ldi	r26, 0x00	; 0
     94e:	b0 e0       	ldi	r27, 0x00	; 0
     950:	20 e2       	ldi	r18, 0x20	; 32
     952:	30 e0       	ldi	r19, 0x00	; 0
     954:	40 e0       	ldi	r20, 0x00	; 0
     956:	50 e0       	ldi	r21, 0x00	; 0
     958:	28 1b       	sub	r18, r24
     95a:	39 0b       	sbc	r19, r25
     95c:	4a 0b       	sbc	r20, r26
     95e:	5b 0b       	sbc	r21, r27
     960:	04 c0       	rjmp	.+8      	; 0x96a <__clzsi2+0x7e>
     962:	16 95       	lsr	r17
     964:	07 95       	ror	r16
     966:	f7 94       	ror	r15
     968:	e7 94       	ror	r14
     96a:	8a 95       	dec	r24
     96c:	d2 f7       	brpl	.-12     	; 0x962 <__clzsi2+0x76>
     96e:	f7 01       	movw	r30, r14
     970:	eb 58       	subi	r30, 0x8B	; 139
     972:	ff 4f       	sbci	r31, 0xFF	; 255
     974:	80 81       	ld	r24, Z
     976:	28 1b       	sub	r18, r24
     978:	31 09       	sbc	r19, r1
     97a:	41 09       	sbc	r20, r1
     97c:	51 09       	sbc	r21, r1
     97e:	c9 01       	movw	r24, r18
     980:	1f 91       	pop	r17
     982:	0f 91       	pop	r16
     984:	ff 90       	pop	r15
     986:	ef 90       	pop	r14
     988:	08 95       	ret

0000098a <__pack_f>:
     98a:	df 92       	push	r13
     98c:	ef 92       	push	r14
     98e:	ff 92       	push	r15
     990:	0f 93       	push	r16
     992:	1f 93       	push	r17
     994:	fc 01       	movw	r30, r24
     996:	e4 80       	ldd	r14, Z+4	; 0x04
     998:	f5 80       	ldd	r15, Z+5	; 0x05
     99a:	06 81       	ldd	r16, Z+6	; 0x06
     99c:	17 81       	ldd	r17, Z+7	; 0x07
     99e:	d1 80       	ldd	r13, Z+1	; 0x01
     9a0:	80 81       	ld	r24, Z
     9a2:	82 30       	cpi	r24, 0x02	; 2
     9a4:	48 f4       	brcc	.+18     	; 0x9b8 <__pack_f+0x2e>
     9a6:	80 e0       	ldi	r24, 0x00	; 0
     9a8:	90 e0       	ldi	r25, 0x00	; 0
     9aa:	a0 e1       	ldi	r26, 0x10	; 16
     9ac:	b0 e0       	ldi	r27, 0x00	; 0
     9ae:	e8 2a       	or	r14, r24
     9b0:	f9 2a       	or	r15, r25
     9b2:	0a 2b       	or	r16, r26
     9b4:	1b 2b       	or	r17, r27
     9b6:	a5 c0       	rjmp	.+330    	; 0xb02 <__pack_f+0x178>
     9b8:	84 30       	cpi	r24, 0x04	; 4
     9ba:	09 f4       	brne	.+2      	; 0x9be <__pack_f+0x34>
     9bc:	9f c0       	rjmp	.+318    	; 0xafc <__pack_f+0x172>
     9be:	82 30       	cpi	r24, 0x02	; 2
     9c0:	21 f4       	brne	.+8      	; 0x9ca <__pack_f+0x40>
     9c2:	ee 24       	eor	r14, r14
     9c4:	ff 24       	eor	r15, r15
     9c6:	87 01       	movw	r16, r14
     9c8:	05 c0       	rjmp	.+10     	; 0x9d4 <__pack_f+0x4a>
     9ca:	e1 14       	cp	r14, r1
     9cc:	f1 04       	cpc	r15, r1
     9ce:	01 05       	cpc	r16, r1
     9d0:	11 05       	cpc	r17, r1
     9d2:	19 f4       	brne	.+6      	; 0x9da <__pack_f+0x50>
     9d4:	e0 e0       	ldi	r30, 0x00	; 0
     9d6:	f0 e0       	ldi	r31, 0x00	; 0
     9d8:	96 c0       	rjmp	.+300    	; 0xb06 <__pack_f+0x17c>
     9da:	62 81       	ldd	r22, Z+2	; 0x02
     9dc:	73 81       	ldd	r23, Z+3	; 0x03
     9de:	9f ef       	ldi	r25, 0xFF	; 255
     9e0:	62 38       	cpi	r22, 0x82	; 130
     9e2:	79 07       	cpc	r23, r25
     9e4:	0c f0       	brlt	.+2      	; 0x9e8 <__pack_f+0x5e>
     9e6:	5b c0       	rjmp	.+182    	; 0xa9e <__pack_f+0x114>
     9e8:	22 e8       	ldi	r18, 0x82	; 130
     9ea:	3f ef       	ldi	r19, 0xFF	; 255
     9ec:	26 1b       	sub	r18, r22
     9ee:	37 0b       	sbc	r19, r23
     9f0:	2a 31       	cpi	r18, 0x1A	; 26
     9f2:	31 05       	cpc	r19, r1
     9f4:	2c f0       	brlt	.+10     	; 0xa00 <__pack_f+0x76>
     9f6:	20 e0       	ldi	r18, 0x00	; 0
     9f8:	30 e0       	ldi	r19, 0x00	; 0
     9fa:	40 e0       	ldi	r20, 0x00	; 0
     9fc:	50 e0       	ldi	r21, 0x00	; 0
     9fe:	2a c0       	rjmp	.+84     	; 0xa54 <__pack_f+0xca>
     a00:	b8 01       	movw	r22, r16
     a02:	a7 01       	movw	r20, r14
     a04:	02 2e       	mov	r0, r18
     a06:	04 c0       	rjmp	.+8      	; 0xa10 <__pack_f+0x86>
     a08:	76 95       	lsr	r23
     a0a:	67 95       	ror	r22
     a0c:	57 95       	ror	r21
     a0e:	47 95       	ror	r20
     a10:	0a 94       	dec	r0
     a12:	d2 f7       	brpl	.-12     	; 0xa08 <__pack_f+0x7e>
     a14:	81 e0       	ldi	r24, 0x01	; 1
     a16:	90 e0       	ldi	r25, 0x00	; 0
     a18:	a0 e0       	ldi	r26, 0x00	; 0
     a1a:	b0 e0       	ldi	r27, 0x00	; 0
     a1c:	04 c0       	rjmp	.+8      	; 0xa26 <__pack_f+0x9c>
     a1e:	88 0f       	add	r24, r24
     a20:	99 1f       	adc	r25, r25
     a22:	aa 1f       	adc	r26, r26
     a24:	bb 1f       	adc	r27, r27
     a26:	2a 95       	dec	r18
     a28:	d2 f7       	brpl	.-12     	; 0xa1e <__pack_f+0x94>
     a2a:	01 97       	sbiw	r24, 0x01	; 1
     a2c:	a1 09       	sbc	r26, r1
     a2e:	b1 09       	sbc	r27, r1
     a30:	8e 21       	and	r24, r14
     a32:	9f 21       	and	r25, r15
     a34:	a0 23       	and	r26, r16
     a36:	b1 23       	and	r27, r17
     a38:	00 97       	sbiw	r24, 0x00	; 0
     a3a:	a1 05       	cpc	r26, r1
     a3c:	b1 05       	cpc	r27, r1
     a3e:	21 f0       	breq	.+8      	; 0xa48 <__pack_f+0xbe>
     a40:	81 e0       	ldi	r24, 0x01	; 1
     a42:	90 e0       	ldi	r25, 0x00	; 0
     a44:	a0 e0       	ldi	r26, 0x00	; 0
     a46:	b0 e0       	ldi	r27, 0x00	; 0
     a48:	9a 01       	movw	r18, r20
     a4a:	ab 01       	movw	r20, r22
     a4c:	28 2b       	or	r18, r24
     a4e:	39 2b       	or	r19, r25
     a50:	4a 2b       	or	r20, r26
     a52:	5b 2b       	or	r21, r27
     a54:	da 01       	movw	r26, r20
     a56:	c9 01       	movw	r24, r18
     a58:	8f 77       	andi	r24, 0x7F	; 127
     a5a:	90 70       	andi	r25, 0x00	; 0
     a5c:	a0 70       	andi	r26, 0x00	; 0
     a5e:	b0 70       	andi	r27, 0x00	; 0
     a60:	80 34       	cpi	r24, 0x40	; 64
     a62:	91 05       	cpc	r25, r1
     a64:	a1 05       	cpc	r26, r1
     a66:	b1 05       	cpc	r27, r1
     a68:	39 f4       	brne	.+14     	; 0xa78 <__pack_f+0xee>
     a6a:	27 ff       	sbrs	r18, 7
     a6c:	09 c0       	rjmp	.+18     	; 0xa80 <__pack_f+0xf6>
     a6e:	20 5c       	subi	r18, 0xC0	; 192
     a70:	3f 4f       	sbci	r19, 0xFF	; 255
     a72:	4f 4f       	sbci	r20, 0xFF	; 255
     a74:	5f 4f       	sbci	r21, 0xFF	; 255
     a76:	04 c0       	rjmp	.+8      	; 0xa80 <__pack_f+0xf6>
     a78:	21 5c       	subi	r18, 0xC1	; 193
     a7a:	3f 4f       	sbci	r19, 0xFF	; 255
     a7c:	4f 4f       	sbci	r20, 0xFF	; 255
     a7e:	5f 4f       	sbci	r21, 0xFF	; 255
     a80:	e0 e0       	ldi	r30, 0x00	; 0
     a82:	f0 e0       	ldi	r31, 0x00	; 0
     a84:	20 30       	cpi	r18, 0x00	; 0
     a86:	a0 e0       	ldi	r26, 0x00	; 0
     a88:	3a 07       	cpc	r19, r26
     a8a:	a0 e0       	ldi	r26, 0x00	; 0
     a8c:	4a 07       	cpc	r20, r26
     a8e:	a0 e4       	ldi	r26, 0x40	; 64
     a90:	5a 07       	cpc	r21, r26
     a92:	10 f0       	brcs	.+4      	; 0xa98 <__pack_f+0x10e>
     a94:	e1 e0       	ldi	r30, 0x01	; 1
     a96:	f0 e0       	ldi	r31, 0x00	; 0
     a98:	79 01       	movw	r14, r18
     a9a:	8a 01       	movw	r16, r20
     a9c:	27 c0       	rjmp	.+78     	; 0xaec <__pack_f+0x162>
     a9e:	60 38       	cpi	r22, 0x80	; 128
     aa0:	71 05       	cpc	r23, r1
     aa2:	64 f5       	brge	.+88     	; 0xafc <__pack_f+0x172>
     aa4:	fb 01       	movw	r30, r22
     aa6:	e1 58       	subi	r30, 0x81	; 129
     aa8:	ff 4f       	sbci	r31, 0xFF	; 255
     aaa:	d8 01       	movw	r26, r16
     aac:	c7 01       	movw	r24, r14
     aae:	8f 77       	andi	r24, 0x7F	; 127
     ab0:	90 70       	andi	r25, 0x00	; 0
     ab2:	a0 70       	andi	r26, 0x00	; 0
     ab4:	b0 70       	andi	r27, 0x00	; 0
     ab6:	80 34       	cpi	r24, 0x40	; 64
     ab8:	91 05       	cpc	r25, r1
     aba:	a1 05       	cpc	r26, r1
     abc:	b1 05       	cpc	r27, r1
     abe:	39 f4       	brne	.+14     	; 0xace <__pack_f+0x144>
     ac0:	e7 fe       	sbrs	r14, 7
     ac2:	0d c0       	rjmp	.+26     	; 0xade <__pack_f+0x154>
     ac4:	80 e4       	ldi	r24, 0x40	; 64
     ac6:	90 e0       	ldi	r25, 0x00	; 0
     ac8:	a0 e0       	ldi	r26, 0x00	; 0
     aca:	b0 e0       	ldi	r27, 0x00	; 0
     acc:	04 c0       	rjmp	.+8      	; 0xad6 <__pack_f+0x14c>
     ace:	8f e3       	ldi	r24, 0x3F	; 63
     ad0:	90 e0       	ldi	r25, 0x00	; 0
     ad2:	a0 e0       	ldi	r26, 0x00	; 0
     ad4:	b0 e0       	ldi	r27, 0x00	; 0
     ad6:	e8 0e       	add	r14, r24
     ad8:	f9 1e       	adc	r15, r25
     ada:	0a 1f       	adc	r16, r26
     adc:	1b 1f       	adc	r17, r27
     ade:	17 ff       	sbrs	r17, 7
     ae0:	05 c0       	rjmp	.+10     	; 0xaec <__pack_f+0x162>
     ae2:	16 95       	lsr	r17
     ae4:	07 95       	ror	r16
     ae6:	f7 94       	ror	r15
     ae8:	e7 94       	ror	r14
     aea:	31 96       	adiw	r30, 0x01	; 1
     aec:	87 e0       	ldi	r24, 0x07	; 7
     aee:	16 95       	lsr	r17
     af0:	07 95       	ror	r16
     af2:	f7 94       	ror	r15
     af4:	e7 94       	ror	r14
     af6:	8a 95       	dec	r24
     af8:	d1 f7       	brne	.-12     	; 0xaee <__pack_f+0x164>
     afa:	05 c0       	rjmp	.+10     	; 0xb06 <__pack_f+0x17c>
     afc:	ee 24       	eor	r14, r14
     afe:	ff 24       	eor	r15, r15
     b00:	87 01       	movw	r16, r14
     b02:	ef ef       	ldi	r30, 0xFF	; 255
     b04:	f0 e0       	ldi	r31, 0x00	; 0
     b06:	6e 2f       	mov	r22, r30
     b08:	67 95       	ror	r22
     b0a:	66 27       	eor	r22, r22
     b0c:	67 95       	ror	r22
     b0e:	90 2f       	mov	r25, r16
     b10:	9f 77       	andi	r25, 0x7F	; 127
     b12:	d7 94       	ror	r13
     b14:	dd 24       	eor	r13, r13
     b16:	d7 94       	ror	r13
     b18:	8e 2f       	mov	r24, r30
     b1a:	86 95       	lsr	r24
     b1c:	49 2f       	mov	r20, r25
     b1e:	46 2b       	or	r20, r22
     b20:	58 2f       	mov	r21, r24
     b22:	5d 29       	or	r21, r13
     b24:	b7 01       	movw	r22, r14
     b26:	ca 01       	movw	r24, r20
     b28:	1f 91       	pop	r17
     b2a:	0f 91       	pop	r16
     b2c:	ff 90       	pop	r15
     b2e:	ef 90       	pop	r14
     b30:	df 90       	pop	r13
     b32:	08 95       	ret

00000b34 <__unpack_f>:
     b34:	fc 01       	movw	r30, r24
     b36:	db 01       	movw	r26, r22
     b38:	40 81       	ld	r20, Z
     b3a:	51 81       	ldd	r21, Z+1	; 0x01
     b3c:	22 81       	ldd	r18, Z+2	; 0x02
     b3e:	62 2f       	mov	r22, r18
     b40:	6f 77       	andi	r22, 0x7F	; 127
     b42:	70 e0       	ldi	r23, 0x00	; 0
     b44:	22 1f       	adc	r18, r18
     b46:	22 27       	eor	r18, r18
     b48:	22 1f       	adc	r18, r18
     b4a:	93 81       	ldd	r25, Z+3	; 0x03
     b4c:	89 2f       	mov	r24, r25
     b4e:	88 0f       	add	r24, r24
     b50:	82 2b       	or	r24, r18
     b52:	28 2f       	mov	r18, r24
     b54:	30 e0       	ldi	r19, 0x00	; 0
     b56:	99 1f       	adc	r25, r25
     b58:	99 27       	eor	r25, r25
     b5a:	99 1f       	adc	r25, r25
     b5c:	11 96       	adiw	r26, 0x01	; 1
     b5e:	9c 93       	st	X, r25
     b60:	11 97       	sbiw	r26, 0x01	; 1
     b62:	21 15       	cp	r18, r1
     b64:	31 05       	cpc	r19, r1
     b66:	a9 f5       	brne	.+106    	; 0xbd2 <__unpack_f+0x9e>
     b68:	41 15       	cp	r20, r1
     b6a:	51 05       	cpc	r21, r1
     b6c:	61 05       	cpc	r22, r1
     b6e:	71 05       	cpc	r23, r1
     b70:	11 f4       	brne	.+4      	; 0xb76 <__unpack_f+0x42>
     b72:	82 e0       	ldi	r24, 0x02	; 2
     b74:	37 c0       	rjmp	.+110    	; 0xbe4 <__unpack_f+0xb0>
     b76:	82 e8       	ldi	r24, 0x82	; 130
     b78:	9f ef       	ldi	r25, 0xFF	; 255
     b7a:	13 96       	adiw	r26, 0x03	; 3
     b7c:	9c 93       	st	X, r25
     b7e:	8e 93       	st	-X, r24
     b80:	12 97       	sbiw	r26, 0x02	; 2
     b82:	9a 01       	movw	r18, r20
     b84:	ab 01       	movw	r20, r22
     b86:	67 e0       	ldi	r22, 0x07	; 7
     b88:	22 0f       	add	r18, r18
     b8a:	33 1f       	adc	r19, r19
     b8c:	44 1f       	adc	r20, r20
     b8e:	55 1f       	adc	r21, r21
     b90:	6a 95       	dec	r22
     b92:	d1 f7       	brne	.-12     	; 0xb88 <__unpack_f+0x54>
     b94:	83 e0       	ldi	r24, 0x03	; 3
     b96:	8c 93       	st	X, r24
     b98:	0d c0       	rjmp	.+26     	; 0xbb4 <__unpack_f+0x80>
     b9a:	22 0f       	add	r18, r18
     b9c:	33 1f       	adc	r19, r19
     b9e:	44 1f       	adc	r20, r20
     ba0:	55 1f       	adc	r21, r21
     ba2:	12 96       	adiw	r26, 0x02	; 2
     ba4:	8d 91       	ld	r24, X+
     ba6:	9c 91       	ld	r25, X
     ba8:	13 97       	sbiw	r26, 0x03	; 3
     baa:	01 97       	sbiw	r24, 0x01	; 1
     bac:	13 96       	adiw	r26, 0x03	; 3
     bae:	9c 93       	st	X, r25
     bb0:	8e 93       	st	-X, r24
     bb2:	12 97       	sbiw	r26, 0x02	; 2
     bb4:	20 30       	cpi	r18, 0x00	; 0
     bb6:	80 e0       	ldi	r24, 0x00	; 0
     bb8:	38 07       	cpc	r19, r24
     bba:	80 e0       	ldi	r24, 0x00	; 0
     bbc:	48 07       	cpc	r20, r24
     bbe:	80 e4       	ldi	r24, 0x40	; 64
     bc0:	58 07       	cpc	r21, r24
     bc2:	58 f3       	brcs	.-42     	; 0xb9a <__unpack_f+0x66>
     bc4:	14 96       	adiw	r26, 0x04	; 4
     bc6:	2d 93       	st	X+, r18
     bc8:	3d 93       	st	X+, r19
     bca:	4d 93       	st	X+, r20
     bcc:	5c 93       	st	X, r21
     bce:	17 97       	sbiw	r26, 0x07	; 7
     bd0:	08 95       	ret
     bd2:	2f 3f       	cpi	r18, 0xFF	; 255
     bd4:	31 05       	cpc	r19, r1
     bd6:	79 f4       	brne	.+30     	; 0xbf6 <__unpack_f+0xc2>
     bd8:	41 15       	cp	r20, r1
     bda:	51 05       	cpc	r21, r1
     bdc:	61 05       	cpc	r22, r1
     bde:	71 05       	cpc	r23, r1
     be0:	19 f4       	brne	.+6      	; 0xbe8 <__unpack_f+0xb4>
     be2:	84 e0       	ldi	r24, 0x04	; 4
     be4:	8c 93       	st	X, r24
     be6:	08 95       	ret
     be8:	64 ff       	sbrs	r22, 4
     bea:	03 c0       	rjmp	.+6      	; 0xbf2 <__unpack_f+0xbe>
     bec:	81 e0       	ldi	r24, 0x01	; 1
     bee:	8c 93       	st	X, r24
     bf0:	12 c0       	rjmp	.+36     	; 0xc16 <__unpack_f+0xe2>
     bf2:	1c 92       	st	X, r1
     bf4:	10 c0       	rjmp	.+32     	; 0xc16 <__unpack_f+0xe2>
     bf6:	2f 57       	subi	r18, 0x7F	; 127
     bf8:	30 40       	sbci	r19, 0x00	; 0
     bfa:	13 96       	adiw	r26, 0x03	; 3
     bfc:	3c 93       	st	X, r19
     bfe:	2e 93       	st	-X, r18
     c00:	12 97       	sbiw	r26, 0x02	; 2
     c02:	83 e0       	ldi	r24, 0x03	; 3
     c04:	8c 93       	st	X, r24
     c06:	87 e0       	ldi	r24, 0x07	; 7
     c08:	44 0f       	add	r20, r20
     c0a:	55 1f       	adc	r21, r21
     c0c:	66 1f       	adc	r22, r22
     c0e:	77 1f       	adc	r23, r23
     c10:	8a 95       	dec	r24
     c12:	d1 f7       	brne	.-12     	; 0xc08 <__unpack_f+0xd4>
     c14:	70 64       	ori	r23, 0x40	; 64
     c16:	14 96       	adiw	r26, 0x04	; 4
     c18:	4d 93       	st	X+, r20
     c1a:	5d 93       	st	X+, r21
     c1c:	6d 93       	st	X+, r22
     c1e:	7c 93       	st	X, r23
     c20:	17 97       	sbiw	r26, 0x07	; 7
     c22:	08 95       	ret

00000c24 <__fpcmp_parts_f>:
     c24:	1f 93       	push	r17
     c26:	dc 01       	movw	r26, r24
     c28:	fb 01       	movw	r30, r22
     c2a:	9c 91       	ld	r25, X
     c2c:	92 30       	cpi	r25, 0x02	; 2
     c2e:	08 f4       	brcc	.+2      	; 0xc32 <__fpcmp_parts_f+0xe>
     c30:	47 c0       	rjmp	.+142    	; 0xcc0 <__fpcmp_parts_f+0x9c>
     c32:	80 81       	ld	r24, Z
     c34:	82 30       	cpi	r24, 0x02	; 2
     c36:	08 f4       	brcc	.+2      	; 0xc3a <__fpcmp_parts_f+0x16>
     c38:	43 c0       	rjmp	.+134    	; 0xcc0 <__fpcmp_parts_f+0x9c>
     c3a:	94 30       	cpi	r25, 0x04	; 4
     c3c:	51 f4       	brne	.+20     	; 0xc52 <__fpcmp_parts_f+0x2e>
     c3e:	11 96       	adiw	r26, 0x01	; 1
     c40:	1c 91       	ld	r17, X
     c42:	84 30       	cpi	r24, 0x04	; 4
     c44:	99 f5       	brne	.+102    	; 0xcac <__fpcmp_parts_f+0x88>
     c46:	81 81       	ldd	r24, Z+1	; 0x01
     c48:	68 2f       	mov	r22, r24
     c4a:	70 e0       	ldi	r23, 0x00	; 0
     c4c:	61 1b       	sub	r22, r17
     c4e:	71 09       	sbc	r23, r1
     c50:	3f c0       	rjmp	.+126    	; 0xcd0 <__fpcmp_parts_f+0xac>
     c52:	84 30       	cpi	r24, 0x04	; 4
     c54:	21 f0       	breq	.+8      	; 0xc5e <__fpcmp_parts_f+0x3a>
     c56:	92 30       	cpi	r25, 0x02	; 2
     c58:	31 f4       	brne	.+12     	; 0xc66 <__fpcmp_parts_f+0x42>
     c5a:	82 30       	cpi	r24, 0x02	; 2
     c5c:	b9 f1       	breq	.+110    	; 0xccc <__fpcmp_parts_f+0xa8>
     c5e:	81 81       	ldd	r24, Z+1	; 0x01
     c60:	88 23       	and	r24, r24
     c62:	89 f1       	breq	.+98     	; 0xcc6 <__fpcmp_parts_f+0xa2>
     c64:	2d c0       	rjmp	.+90     	; 0xcc0 <__fpcmp_parts_f+0x9c>
     c66:	11 96       	adiw	r26, 0x01	; 1
     c68:	1c 91       	ld	r17, X
     c6a:	11 97       	sbiw	r26, 0x01	; 1
     c6c:	82 30       	cpi	r24, 0x02	; 2
     c6e:	f1 f0       	breq	.+60     	; 0xcac <__fpcmp_parts_f+0x88>
     c70:	81 81       	ldd	r24, Z+1	; 0x01
     c72:	18 17       	cp	r17, r24
     c74:	d9 f4       	brne	.+54     	; 0xcac <__fpcmp_parts_f+0x88>
     c76:	12 96       	adiw	r26, 0x02	; 2
     c78:	2d 91       	ld	r18, X+
     c7a:	3c 91       	ld	r19, X
     c7c:	13 97       	sbiw	r26, 0x03	; 3
     c7e:	82 81       	ldd	r24, Z+2	; 0x02
     c80:	93 81       	ldd	r25, Z+3	; 0x03
     c82:	82 17       	cp	r24, r18
     c84:	93 07       	cpc	r25, r19
     c86:	94 f0       	brlt	.+36     	; 0xcac <__fpcmp_parts_f+0x88>
     c88:	28 17       	cp	r18, r24
     c8a:	39 07       	cpc	r19, r25
     c8c:	bc f0       	brlt	.+46     	; 0xcbc <__fpcmp_parts_f+0x98>
     c8e:	14 96       	adiw	r26, 0x04	; 4
     c90:	8d 91       	ld	r24, X+
     c92:	9d 91       	ld	r25, X+
     c94:	0d 90       	ld	r0, X+
     c96:	bc 91       	ld	r27, X
     c98:	a0 2d       	mov	r26, r0
     c9a:	24 81       	ldd	r18, Z+4	; 0x04
     c9c:	35 81       	ldd	r19, Z+5	; 0x05
     c9e:	46 81       	ldd	r20, Z+6	; 0x06
     ca0:	57 81       	ldd	r21, Z+7	; 0x07
     ca2:	28 17       	cp	r18, r24
     ca4:	39 07       	cpc	r19, r25
     ca6:	4a 07       	cpc	r20, r26
     ca8:	5b 07       	cpc	r21, r27
     caa:	18 f4       	brcc	.+6      	; 0xcb2 <__fpcmp_parts_f+0x8e>
     cac:	11 23       	and	r17, r17
     cae:	41 f0       	breq	.+16     	; 0xcc0 <__fpcmp_parts_f+0x9c>
     cb0:	0a c0       	rjmp	.+20     	; 0xcc6 <__fpcmp_parts_f+0xa2>
     cb2:	82 17       	cp	r24, r18
     cb4:	93 07       	cpc	r25, r19
     cb6:	a4 07       	cpc	r26, r20
     cb8:	b5 07       	cpc	r27, r21
     cba:	40 f4       	brcc	.+16     	; 0xccc <__fpcmp_parts_f+0xa8>
     cbc:	11 23       	and	r17, r17
     cbe:	19 f0       	breq	.+6      	; 0xcc6 <__fpcmp_parts_f+0xa2>
     cc0:	61 e0       	ldi	r22, 0x01	; 1
     cc2:	70 e0       	ldi	r23, 0x00	; 0
     cc4:	05 c0       	rjmp	.+10     	; 0xcd0 <__fpcmp_parts_f+0xac>
     cc6:	6f ef       	ldi	r22, 0xFF	; 255
     cc8:	7f ef       	ldi	r23, 0xFF	; 255
     cca:	02 c0       	rjmp	.+4      	; 0xcd0 <__fpcmp_parts_f+0xac>
     ccc:	60 e0       	ldi	r22, 0x00	; 0
     cce:	70 e0       	ldi	r23, 0x00	; 0
     cd0:	cb 01       	movw	r24, r22
     cd2:	1f 91       	pop	r17
     cd4:	08 95       	ret

00000cd6 <i2c_init>:
     cd6:	11 b8       	out	0x01, r1	; 1
     cd8:	82 e0       	ldi	r24, 0x02	; 2
     cda:	80 b9       	out	0x00, r24	; 0
     cdc:	08 95       	ret

00000cde <i2c_start>:
     cde:	28 2f       	mov	r18, r24
     ce0:	84 ea       	ldi	r24, 0xA4	; 164
     ce2:	86 bf       	out	0x36, r24	; 54
     ce4:	8f ef       	ldi	r24, 0xFF	; 255
     ce6:	9f ef       	ldi	r25, 0xFF	; 255
     ce8:	03 c0       	rjmp	.+6      	; 0xcf0 <i2c_start+0x12>
     cea:	06 b6       	in	r0, 0x36	; 54
     cec:	07 fc       	sbrc	r0, 7
     cee:	03 c0       	rjmp	.+6      	; 0xcf6 <i2c_start+0x18>
     cf0:	01 97       	sbiw	r24, 0x01	; 1
     cf2:	d9 f7       	brne	.-10     	; 0xcea <i2c_start+0xc>
     cf4:	1d c0       	rjmp	.+58     	; 0xd30 <i2c_start+0x52>
     cf6:	81 b1       	in	r24, 0x01	; 1
     cf8:	88 7f       	andi	r24, 0xF8	; 248
     cfa:	88 30       	cpi	r24, 0x08	; 8
     cfc:	11 f0       	breq	.+4      	; 0xd02 <i2c_start+0x24>
     cfe:	80 31       	cpi	r24, 0x10	; 16
     d00:	b9 f4       	brne	.+46     	; 0xd30 <i2c_start+0x52>
     d02:	23 b9       	out	0x03, r18	; 3
     d04:	84 e8       	ldi	r24, 0x84	; 132
     d06:	86 bf       	out	0x36, r24	; 54
     d08:	8f ef       	ldi	r24, 0xFF	; 255
     d0a:	9f ef       	ldi	r25, 0xFF	; 255
     d0c:	03 c0       	rjmp	.+6      	; 0xd14 <i2c_start+0x36>
     d0e:	06 b6       	in	r0, 0x36	; 54
     d10:	07 fc       	sbrc	r0, 7
     d12:	03 c0       	rjmp	.+6      	; 0xd1a <i2c_start+0x3c>
     d14:	01 97       	sbiw	r24, 0x01	; 1
     d16:	d9 f7       	brne	.-10     	; 0xd0e <i2c_start+0x30>
     d18:	0b c0       	rjmp	.+22     	; 0xd30 <i2c_start+0x52>
     d1a:	91 b1       	in	r25, 0x01	; 1
     d1c:	98 7f       	andi	r25, 0xF8	; 248
     d1e:	98 31       	cpi	r25, 0x18	; 24
     d20:	11 f4       	brne	.+4      	; 0xd26 <i2c_start+0x48>
     d22:	80 e0       	ldi	r24, 0x00	; 0
     d24:	08 95       	ret
     d26:	80 e0       	ldi	r24, 0x00	; 0
     d28:	90 34       	cpi	r25, 0x40	; 64
     d2a:	19 f0       	breq	.+6      	; 0xd32 <i2c_start+0x54>
     d2c:	81 e0       	ldi	r24, 0x01	; 1
     d2e:	08 95       	ret
     d30:	81 e0       	ldi	r24, 0x01	; 1
     d32:	08 95       	ret

00000d34 <i2c_start_wait>:
     d34:	44 ea       	ldi	r20, 0xA4	; 164
     d36:	34 e8       	ldi	r19, 0x84	; 132
     d38:	24 e9       	ldi	r18, 0x94	; 148
     d3a:	46 bf       	out	0x36, r20	; 54
     d3c:	06 b6       	in	r0, 0x36	; 54
     d3e:	07 fe       	sbrs	r0, 7
     d40:	fd cf       	rjmp	.-6      	; 0xd3c <i2c_start_wait+0x8>
     d42:	91 b1       	in	r25, 0x01	; 1
     d44:	98 7f       	andi	r25, 0xF8	; 248
     d46:	98 30       	cpi	r25, 0x08	; 8
     d48:	11 f0       	breq	.+4      	; 0xd4e <i2c_start_wait+0x1a>
     d4a:	90 31       	cpi	r25, 0x10	; 16
     d4c:	b1 f7       	brne	.-20     	; 0xd3a <i2c_start_wait+0x6>
     d4e:	83 b9       	out	0x03, r24	; 3
     d50:	36 bf       	out	0x36, r19	; 54
     d52:	06 b6       	in	r0, 0x36	; 54
     d54:	07 fe       	sbrs	r0, 7
     d56:	fd cf       	rjmp	.-6      	; 0xd52 <i2c_start_wait+0x1e>
     d58:	91 b1       	in	r25, 0x01	; 1
     d5a:	98 7f       	andi	r25, 0xF8	; 248
     d5c:	90 32       	cpi	r25, 0x20	; 32
     d5e:	11 f0       	breq	.+4      	; 0xd64 <i2c_start_wait+0x30>
     d60:	98 35       	cpi	r25, 0x58	; 88
     d62:	29 f4       	brne	.+10     	; 0xd6e <i2c_start_wait+0x3a>
     d64:	26 bf       	out	0x36, r18	; 54
     d66:	06 b6       	in	r0, 0x36	; 54
     d68:	04 fc       	sbrc	r0, 4
     d6a:	fd cf       	rjmp	.-6      	; 0xd66 <i2c_start_wait+0x32>
     d6c:	e6 cf       	rjmp	.-52     	; 0xd3a <i2c_start_wait+0x6>
     d6e:	08 95       	ret

00000d70 <i2c_rep_start>:
     d70:	0e 94 6f 06 	call	0xcde	; 0xcde <i2c_start>
     d74:	08 95       	ret

00000d76 <i2c_stop>:
     d76:	84 e9       	ldi	r24, 0x94	; 148
     d78:	86 bf       	out	0x36, r24	; 54
     d7a:	8f ef       	ldi	r24, 0xFF	; 255
     d7c:	9f ef       	ldi	r25, 0xFF	; 255
     d7e:	03 c0       	rjmp	.+6      	; 0xd86 <i2c_stop+0x10>
     d80:	06 b6       	in	r0, 0x36	; 54
     d82:	04 fe       	sbrs	r0, 4
     d84:	02 c0       	rjmp	.+4      	; 0xd8a <i2c_stop+0x14>
     d86:	01 97       	sbiw	r24, 0x01	; 1
     d88:	d9 f7       	brne	.-10     	; 0xd80 <i2c_stop+0xa>
     d8a:	08 95       	ret

00000d8c <i2c_write>:
     d8c:	83 b9       	out	0x03, r24	; 3
     d8e:	84 e8       	ldi	r24, 0x84	; 132
     d90:	86 bf       	out	0x36, r24	; 54
     d92:	8f ef       	ldi	r24, 0xFF	; 255
     d94:	9f ef       	ldi	r25, 0xFF	; 255
     d96:	03 c0       	rjmp	.+6      	; 0xd9e <i2c_write+0x12>
     d98:	06 b6       	in	r0, 0x36	; 54
     d9a:	07 fc       	sbrc	r0, 7
     d9c:	03 c0       	rjmp	.+6      	; 0xda4 <i2c_write+0x18>
     d9e:	01 97       	sbiw	r24, 0x01	; 1
     da0:	d9 f7       	brne	.-10     	; 0xd98 <i2c_write+0xc>
     da2:	05 c0       	rjmp	.+10     	; 0xdae <i2c_write+0x22>
     da4:	81 b1       	in	r24, 0x01	; 1
     da6:	90 e0       	ldi	r25, 0x00	; 0
     da8:	88 7f       	andi	r24, 0xF8	; 248
     daa:	88 32       	cpi	r24, 0x28	; 40
     dac:	09 f0       	breq	.+2      	; 0xdb0 <i2c_write+0x24>
     dae:	91 e0       	ldi	r25, 0x01	; 1
     db0:	89 2f       	mov	r24, r25
     db2:	08 95       	ret

00000db4 <i2c_readAck>:
     db4:	84 ec       	ldi	r24, 0xC4	; 196
     db6:	86 bf       	out	0x36, r24	; 54
     db8:	8f ef       	ldi	r24, 0xFF	; 255
     dba:	9f ef       	ldi	r25, 0xFF	; 255
     dbc:	05 c0       	rjmp	.+10     	; 0xdc8 <i2c_readAck+0x14>
     dbe:	06 b6       	in	r0, 0x36	; 54
     dc0:	07 fe       	sbrs	r0, 7
     dc2:	02 c0       	rjmp	.+4      	; 0xdc8 <i2c_readAck+0x14>
     dc4:	83 b1       	in	r24, 0x03	; 3
     dc6:	08 95       	ret
     dc8:	01 97       	sbiw	r24, 0x01	; 1
     dca:	c9 f7       	brne	.-14     	; 0xdbe <i2c_readAck+0xa>
     dcc:	80 e0       	ldi	r24, 0x00	; 0
     dce:	08 95       	ret

00000dd0 <i2c_readNak>:
     dd0:	84 e8       	ldi	r24, 0x84	; 132
     dd2:	86 bf       	out	0x36, r24	; 54
     dd4:	8f ef       	ldi	r24, 0xFF	; 255
     dd6:	9f ef       	ldi	r25, 0xFF	; 255
     dd8:	05 c0       	rjmp	.+10     	; 0xde4 <i2c_readNak+0x14>
     dda:	06 b6       	in	r0, 0x36	; 54
     ddc:	07 fe       	sbrs	r0, 7
     dde:	02 c0       	rjmp	.+4      	; 0xde4 <i2c_readNak+0x14>
     de0:	83 b1       	in	r24, 0x03	; 3
     de2:	08 95       	ret
     de4:	01 97       	sbiw	r24, 0x01	; 1
     de6:	c9 f7       	brne	.-14     	; 0xdda <i2c_readNak+0xa>
     de8:	80 e0       	ldi	r24, 0x00	; 0
     dea:	08 95       	ret

00000dec <searchI2C>:
     dec:	1f 93       	push	r17
     dee:	10 e0       	ldi	r17, 0x00	; 0
     df0:	81 2f       	mov	r24, r17
     df2:	88 0f       	add	r24, r24
     df4:	0e 94 6f 06 	call	0xcde	; 0xcde <i2c_start>
     df8:	0e 94 bb 06 	call	0xd76	; 0xd76 <i2c_stop>
     dfc:	1f 5f       	subi	r17, 0xFF	; 255
     dfe:	10 38       	cpi	r17, 0x80	; 128
     e00:	b9 f7       	brne	.-18     	; 0xdf0 <searchI2C+0x4>
     e02:	1f 91       	pop	r17
     e04:	08 95       	ret

00000e06 <initMillis>:
     e06:	20 e1       	ldi	r18, 0x10	; 16
     e08:	2f bd       	out	0x2f, r18	; 47
     e0a:	85 e0       	ldi	r24, 0x05	; 5
     e0c:	8e bd       	out	0x2e, r24	; 46
     e0e:	8a e7       	ldi	r24, 0x7A	; 122
     e10:	90 e0       	ldi	r25, 0x00	; 0
     e12:	9b bd       	out	0x2b, r25	; 43
     e14:	8a bd       	out	0x2a, r24	; 42
     e16:	29 bf       	out	0x39, r18	; 57
     e18:	08 95       	ret

00000e1a <millis>:
     e1a:	8f b7       	in	r24, 0x3f	; 63
     e1c:	f8 94       	cli
     e1e:	20 91 76 01 	lds	r18, 0x0176
     e22:	30 91 77 01 	lds	r19, 0x0177
     e26:	40 91 78 01 	lds	r20, 0x0178
     e2a:	50 91 79 01 	lds	r21, 0x0179
     e2e:	8f bf       	out	0x3f, r24	; 63
     e30:	b9 01       	movw	r22, r18
     e32:	ca 01       	movw	r24, r20
     e34:	08 95       	ret

00000e36 <__vector_7>:
     e36:	1f 92       	push	r1
     e38:	0f 92       	push	r0
     e3a:	0f b6       	in	r0, 0x3f	; 63
     e3c:	0f 92       	push	r0
     e3e:	11 24       	eor	r1, r1
     e40:	8f 93       	push	r24
     e42:	9f 93       	push	r25
     e44:	af 93       	push	r26
     e46:	bf 93       	push	r27
     e48:	80 91 7a 01 	lds	r24, 0x017A
     e4c:	90 91 7b 01 	lds	r25, 0x017B
     e50:	a0 91 7c 01 	lds	r26, 0x017C
     e54:	b0 91 7d 01 	lds	r27, 0x017D
     e58:	01 96       	adiw	r24, 0x01	; 1
     e5a:	a1 1d       	adc	r26, r1
     e5c:	b1 1d       	adc	r27, r1
     e5e:	80 93 7a 01 	sts	0x017A, r24
     e62:	90 93 7b 01 	sts	0x017B, r25
     e66:	a0 93 7c 01 	sts	0x017C, r26
     e6a:	b0 93 7d 01 	sts	0x017D, r27
     e6e:	80 91 76 01 	lds	r24, 0x0176
     e72:	90 91 77 01 	lds	r25, 0x0177
     e76:	a0 91 78 01 	lds	r26, 0x0178
     e7a:	b0 91 79 01 	lds	r27, 0x0179
     e7e:	0f 96       	adiw	r24, 0x0f	; 15
     e80:	a1 1d       	adc	r26, r1
     e82:	b1 1d       	adc	r27, r1
     e84:	80 93 76 01 	sts	0x0176, r24
     e88:	90 93 77 01 	sts	0x0177, r25
     e8c:	a0 93 78 01 	sts	0x0178, r26
     e90:	b0 93 79 01 	sts	0x0179, r27
     e94:	90 91 7e 01 	lds	r25, 0x017E
     e98:	89 2f       	mov	r24, r25
     e9a:	83 5a       	subi	r24, 0xA3	; 163
     e9c:	80 93 7e 01 	sts	0x017E, r24
     ea0:	8d 37       	cpi	r24, 0x7D	; 125
     ea2:	b0 f0       	brcs	.+44     	; 0xed0 <__vector_7+0x9a>
     ea4:	90 52       	subi	r25, 0x20	; 32
     ea6:	90 93 7e 01 	sts	0x017E, r25
     eaa:	80 91 76 01 	lds	r24, 0x0176
     eae:	90 91 77 01 	lds	r25, 0x0177
     eb2:	a0 91 78 01 	lds	r26, 0x0178
     eb6:	b0 91 79 01 	lds	r27, 0x0179
     eba:	01 96       	adiw	r24, 0x01	; 1
     ebc:	a1 1d       	adc	r26, r1
     ebe:	b1 1d       	adc	r27, r1
     ec0:	80 93 76 01 	sts	0x0176, r24
     ec4:	90 93 77 01 	sts	0x0177, r25
     ec8:	a0 93 78 01 	sts	0x0178, r26
     ecc:	b0 93 79 01 	sts	0x0179, r27
     ed0:	bf 91       	pop	r27
     ed2:	af 91       	pop	r26
     ed4:	9f 91       	pop	r25
     ed6:	8f 91       	pop	r24
     ed8:	0f 90       	pop	r0
     eda:	0f be       	out	0x3f, r0	; 63
     edc:	0f 90       	pop	r0
     ede:	1f 90       	pop	r1
     ee0:	18 95       	reti

00000ee2 <_LCD_OutNibble>:
     ee2:	80 ff       	sbrs	r24, 0
     ee4:	02 c0       	rjmp	.+4      	; 0xeea <_LCD_OutNibble+0x8>
     ee6:	d8 9a       	sbi	0x1b, 0	; 27
     ee8:	01 c0       	rjmp	.+2      	; 0xeec <_LCD_OutNibble+0xa>
     eea:	d8 98       	cbi	0x1b, 0	; 27
     eec:	81 ff       	sbrs	r24, 1
     eee:	02 c0       	rjmp	.+4      	; 0xef4 <_LCD_OutNibble+0x12>
     ef0:	d9 9a       	sbi	0x1b, 1	; 27
     ef2:	01 c0       	rjmp	.+2      	; 0xef6 <_LCD_OutNibble+0x14>
     ef4:	d9 98       	cbi	0x1b, 1	; 27
     ef6:	82 ff       	sbrs	r24, 2
     ef8:	02 c0       	rjmp	.+4      	; 0xefe <_LCD_OutNibble+0x1c>
     efa:	da 9a       	sbi	0x1b, 2	; 27
     efc:	01 c0       	rjmp	.+2      	; 0xf00 <_LCD_OutNibble+0x1e>
     efe:	da 98       	cbi	0x1b, 2	; 27
     f00:	83 ff       	sbrs	r24, 3
     f02:	02 c0       	rjmp	.+4      	; 0xf08 <_LCD_OutNibble+0x26>
     f04:	db 9a       	sbi	0x1b, 3	; 27
     f06:	08 95       	ret
     f08:	db 98       	cbi	0x1b, 3	; 27
     f0a:	08 95       	ret

00000f0c <_LCD_Write>:
     f0c:	1f 93       	push	r17
     f0e:	18 2f       	mov	r17, r24
     f10:	c1 9a       	sbi	0x18, 1	; 24
     f12:	82 95       	swap	r24
     f14:	8f 70       	andi	r24, 0x0F	; 15
     f16:	0e 94 71 07 	call	0xee2	; 0xee2 <_LCD_OutNibble>
     f1a:	c1 98       	cbi	0x18, 1	; 24
     f1c:	c1 9a       	sbi	0x18, 1	; 24
     f1e:	81 2f       	mov	r24, r17
     f20:	0e 94 71 07 	call	0xee2	; 0xee2 <_LCD_OutNibble>
     f24:	c1 98       	cbi	0x18, 1	; 24
     f26:	85 e8       	ldi	r24, 0x85	; 133
     f28:	8a 95       	dec	r24
     f2a:	f1 f7       	brne	.-4      	; 0xf28 <_LCD_Write+0x1c>
     f2c:	1f 91       	pop	r17
     f2e:	08 95       	ret

00000f30 <LCD_WriteCommand>:
     f30:	c0 98       	cbi	0x18, 0	; 24
     f32:	0e 94 86 07 	call	0xf0c	; 0xf0c <_LCD_Write>
     f36:	08 95       	ret

00000f38 <LCD_WriteData>:
     f38:	c0 9a       	sbi	0x18, 0	; 24
     f3a:	0e 94 86 07 	call	0xf0c	; 0xf0c <_LCD_Write>
     f3e:	08 95       	ret

00000f40 <LCD_WriteText>:
     f40:	cf 93       	push	r28
     f42:	df 93       	push	r29
     f44:	ec 01       	movw	r28, r24
     f46:	03 c0       	rjmp	.+6      	; 0xf4e <LCD_WriteText+0xe>
     f48:	21 96       	adiw	r28, 0x01	; 1
     f4a:	0e 94 9c 07 	call	0xf38	; 0xf38 <LCD_WriteData>
     f4e:	88 81       	ld	r24, Y
     f50:	88 23       	and	r24, r24
     f52:	d1 f7       	brne	.-12     	; 0xf48 <LCD_WriteText+0x8>
     f54:	df 91       	pop	r29
     f56:	cf 91       	pop	r28
     f58:	08 95       	ret

00000f5a <LCD_GoTo>:
     f5a:	62 95       	swap	r22
     f5c:	66 0f       	add	r22, r22
     f5e:	66 0f       	add	r22, r22
     f60:	60 7c       	andi	r22, 0xC0	; 192
     f62:	68 0f       	add	r22, r24
     f64:	86 2f       	mov	r24, r22
     f66:	80 68       	ori	r24, 0x80	; 128
     f68:	0e 94 98 07 	call	0xf30	; 0xf30 <LCD_WriteCommand>
     f6c:	08 95       	ret

00000f6e <LCD_Clear>:
     f6e:	81 e0       	ldi	r24, 0x01	; 1
     f70:	0e 94 98 07 	call	0xf30	; 0xf30 <LCD_WriteCommand>
     f74:	80 ea       	ldi	r24, 0xA0	; 160
     f76:	9f e0       	ldi	r25, 0x0F	; 15
     f78:	01 97       	sbiw	r24, 0x01	; 1
     f7a:	f1 f7       	brne	.-4      	; 0xf78 <LCD_Clear+0xa>
     f7c:	08 95       	ret

00000f7e <LCD_Home>:
     f7e:	82 e0       	ldi	r24, 0x02	; 2
     f80:	0e 94 98 07 	call	0xf30	; 0xf30 <LCD_WriteCommand>
     f84:	80 ea       	ldi	r24, 0xA0	; 160
     f86:	9f e0       	ldi	r25, 0x0F	; 15
     f88:	01 97       	sbiw	r24, 0x01	; 1
     f8a:	f1 f7       	brne	.-4      	; 0xf88 <LCD_Home+0xa>
     f8c:	08 95       	ret

00000f8e <LCD_Initalize>:
     f8e:	1f 93       	push	r17
     f90:	cf 93       	push	r28
     f92:	df 93       	push	r29
     f94:	d0 9a       	sbi	0x1a, 0	; 26
     f96:	d1 9a       	sbi	0x1a, 1	; 26
     f98:	d2 9a       	sbi	0x1a, 2	; 26
     f9a:	d3 9a       	sbi	0x1a, 3	; 26
     f9c:	b9 9a       	sbi	0x17, 1	; 23
     f9e:	b8 9a       	sbi	0x17, 0	; 23
     fa0:	80 e3       	ldi	r24, 0x30	; 48
     fa2:	95 e7       	ldi	r25, 0x75	; 117
     fa4:	01 97       	sbiw	r24, 0x01	; 1
     fa6:	f1 f7       	brne	.-4      	; 0xfa4 <LCD_Initalize+0x16>
     fa8:	c0 98       	cbi	0x18, 0	; 24
     faa:	c1 98       	cbi	0x18, 1	; 24
     fac:	10 e0       	ldi	r17, 0x00	; 0
     fae:	c0 e1       	ldi	r28, 0x10	; 16
     fb0:	d7 e2       	ldi	r29, 0x27	; 39
     fb2:	c1 9a       	sbi	0x18, 1	; 24
     fb4:	83 e0       	ldi	r24, 0x03	; 3
     fb6:	0e 94 71 07 	call	0xee2	; 0xee2 <_LCD_OutNibble>
     fba:	c1 98       	cbi	0x18, 1	; 24
     fbc:	ce 01       	movw	r24, r28
     fbe:	01 97       	sbiw	r24, 0x01	; 1
     fc0:	f1 f7       	brne	.-4      	; 0xfbe <LCD_Initalize+0x30>
     fc2:	1f 5f       	subi	r17, 0xFF	; 255
     fc4:	13 30       	cpi	r17, 0x03	; 3
     fc6:	a9 f7       	brne	.-22     	; 0xfb2 <LCD_Initalize+0x24>
     fc8:	c1 9a       	sbi	0x18, 1	; 24
     fca:	82 e0       	ldi	r24, 0x02	; 2
     fcc:	0e 94 71 07 	call	0xee2	; 0xee2 <_LCD_OutNibble>
     fd0:	c1 98       	cbi	0x18, 1	; 24
     fd2:	80 ed       	ldi	r24, 0xD0	; 208
     fd4:	97 e0       	ldi	r25, 0x07	; 7
     fd6:	01 97       	sbiw	r24, 0x01	; 1
     fd8:	f1 f7       	brne	.-4      	; 0xfd6 <LCD_Initalize+0x48>
     fda:	88 e2       	ldi	r24, 0x28	; 40
     fdc:	0e 94 98 07 	call	0xf30	; 0xf30 <LCD_WriteCommand>
     fe0:	88 e0       	ldi	r24, 0x08	; 8
     fe2:	0e 94 98 07 	call	0xf30	; 0xf30 <LCD_WriteCommand>
     fe6:	81 e0       	ldi	r24, 0x01	; 1
     fe8:	0e 94 98 07 	call	0xf30	; 0xf30 <LCD_WriteCommand>
     fec:	80 ea       	ldi	r24, 0xA0	; 160
     fee:	9f e0       	ldi	r25, 0x0F	; 15
     ff0:	01 97       	sbiw	r24, 0x01	; 1
     ff2:	f1 f7       	brne	.-4      	; 0xff0 <LCD_Initalize+0x62>
     ff4:	86 e0       	ldi	r24, 0x06	; 6
     ff6:	0e 94 98 07 	call	0xf30	; 0xf30 <LCD_WriteCommand>
     ffa:	8c e0       	ldi	r24, 0x0C	; 12
     ffc:	0e 94 98 07 	call	0xf30	; 0xf30 <LCD_WriteCommand>
    1000:	df 91       	pop	r29
    1002:	cf 91       	pop	r28
    1004:	1f 91       	pop	r17
    1006:	08 95       	ret

00001008 <TimerInit>:
    1008:	93 b7       	in	r25, 0x33	; 51
    100a:	98 60       	ori	r25, 0x08	; 8
    100c:	93 bf       	out	0x33, r25	; 51
    100e:	93 b7       	in	r25, 0x33	; 51
    1010:	94 60       	ori	r25, 0x04	; 4
    1012:	93 bf       	out	0x33, r25	; 51
    1014:	8c bf       	out	0x3c, r24	; 60
    1016:	89 b7       	in	r24, 0x39	; 57
    1018:	80 61       	ori	r24, 0x10	; 16
    101a:	89 bf       	out	0x39, r24	; 57
    101c:	08 95       	ret

0000101e <half_step_motor_left>:
    101e:	cf 92       	push	r12
    1020:	df 92       	push	r13
    1022:	ef 92       	push	r14
    1024:	ff 92       	push	r15
    1026:	1f 93       	push	r17
    1028:	6b 01       	movw	r12, r22
    102a:	7c 01       	movw	r14, r24
    102c:	ca 01       	movw	r24, r20
    102e:	12 2f       	mov	r17, r18
    1030:	0e 94 04 08 	call	0x1008	; 0x1008 <TimerInit>
    1034:	78 94       	sei
    1036:	11 30       	cpi	r17, 0x01	; 1
    1038:	09 f0       	breq	.+2      	; 0x103c <half_step_motor_left+0x1e>
    103a:	41 c0       	rjmp	.+130    	; 0x10be <half_step_motor_left+0xa0>
    103c:	d0 9a       	sbi	0x1a, 0	; 26
    103e:	d1 9a       	sbi	0x1a, 1	; 26
    1040:	d2 9a       	sbi	0x1a, 2	; 26
    1042:	d3 9a       	sbi	0x1a, 3	; 26
    1044:	21 e0       	ldi	r18, 0x01	; 1
    1046:	30 e0       	ldi	r19, 0x00	; 0
    1048:	40 e0       	ldi	r20, 0x00	; 0
    104a:	50 e0       	ldi	r21, 0x00	; 0
    104c:	32 c0       	rjmp	.+100    	; 0x10b2 <half_step_motor_left+0x94>
    104e:	80 91 7f 01 	lds	r24, 0x017F
    1052:	88 23       	and	r24, r24
    1054:	09 f4       	brne	.+2      	; 0x1058 <half_step_motor_left+0x3a>
    1056:	db 98       	cbi	0x1b, 3	; 27
    1058:	80 91 7f 01 	lds	r24, 0x017F
    105c:	81 30       	cpi	r24, 0x01	; 1
    105e:	09 f4       	brne	.+2      	; 0x1062 <half_step_motor_left+0x44>
    1060:	d9 9a       	sbi	0x1b, 1	; 27
    1062:	80 91 7f 01 	lds	r24, 0x017F
    1066:	82 30       	cpi	r24, 0x02	; 2
    1068:	09 f4       	brne	.+2      	; 0x106c <half_step_motor_left+0x4e>
    106a:	d8 98       	cbi	0x1b, 0	; 27
    106c:	80 91 7f 01 	lds	r24, 0x017F
    1070:	83 30       	cpi	r24, 0x03	; 3
    1072:	09 f4       	brne	.+2      	; 0x1076 <half_step_motor_left+0x58>
    1074:	da 9a       	sbi	0x1b, 2	; 27
    1076:	80 91 7f 01 	lds	r24, 0x017F
    107a:	84 30       	cpi	r24, 0x04	; 4
    107c:	09 f4       	brne	.+2      	; 0x1080 <half_step_motor_left+0x62>
    107e:	d9 98       	cbi	0x1b, 1	; 27
    1080:	80 91 7f 01 	lds	r24, 0x017F
    1084:	85 30       	cpi	r24, 0x05	; 5
    1086:	09 f4       	brne	.+2      	; 0x108a <half_step_motor_left+0x6c>
    1088:	db 9a       	sbi	0x1b, 3	; 27
    108a:	80 91 7f 01 	lds	r24, 0x017F
    108e:	86 30       	cpi	r24, 0x06	; 6
    1090:	09 f4       	brne	.+2      	; 0x1094 <half_step_motor_left+0x76>
    1092:	da 98       	cbi	0x1b, 2	; 27
    1094:	80 91 7f 01 	lds	r24, 0x017F
    1098:	87 30       	cpi	r24, 0x07	; 7
    109a:	09 f4       	brne	.+2      	; 0x109e <half_step_motor_left+0x80>
    109c:	d8 9a       	sbi	0x1b, 0	; 27
    109e:	80 91 7f 01 	lds	r24, 0x017F
    10a2:	88 30       	cpi	r24, 0x08	; 8
    10a4:	a1 f6       	brne	.-88     	; 0x104e <half_step_motor_left+0x30>
    10a6:	10 92 7f 01 	sts	0x017F, r1
    10aa:	2f 5f       	subi	r18, 0xFF	; 255
    10ac:	3f 4f       	sbci	r19, 0xFF	; 255
    10ae:	4f 4f       	sbci	r20, 0xFF	; 255
    10b0:	5f 4f       	sbci	r21, 0xFF	; 255
    10b2:	c2 16       	cp	r12, r18
    10b4:	d3 06       	cpc	r13, r19
    10b6:	e4 06       	cpc	r14, r20
    10b8:	f5 06       	cpc	r15, r21
    10ba:	48 f6       	brcc	.-110    	; 0x104e <half_step_motor_left+0x30>
    10bc:	43 c0       	rjmp	.+134    	; 0x1144 <half_step_motor_left+0x126>
    10be:	12 30       	cpi	r17, 0x02	; 2
    10c0:	09 f0       	breq	.+2      	; 0x10c4 <half_step_motor_left+0xa6>
    10c2:	40 c0       	rjmp	.+128    	; 0x1144 <half_step_motor_left+0x126>
    10c4:	d4 9a       	sbi	0x1a, 4	; 26
    10c6:	d5 9a       	sbi	0x1a, 5	; 26
    10c8:	d6 9a       	sbi	0x1a, 6	; 26
    10ca:	d7 9a       	sbi	0x1a, 7	; 26
    10cc:	21 e0       	ldi	r18, 0x01	; 1
    10ce:	30 e0       	ldi	r19, 0x00	; 0
    10d0:	40 e0       	ldi	r20, 0x00	; 0
    10d2:	50 e0       	ldi	r21, 0x00	; 0
    10d4:	32 c0       	rjmp	.+100    	; 0x113a <half_step_motor_left+0x11c>
    10d6:	80 91 7f 01 	lds	r24, 0x017F
    10da:	88 23       	and	r24, r24
    10dc:	09 f4       	brne	.+2      	; 0x10e0 <half_step_motor_left+0xc2>
    10de:	df 98       	cbi	0x1b, 7	; 27
    10e0:	80 91 7f 01 	lds	r24, 0x017F
    10e4:	81 30       	cpi	r24, 0x01	; 1
    10e6:	09 f4       	brne	.+2      	; 0x10ea <half_step_motor_left+0xcc>
    10e8:	dd 9a       	sbi	0x1b, 5	; 27
    10ea:	80 91 7f 01 	lds	r24, 0x017F
    10ee:	82 30       	cpi	r24, 0x02	; 2
    10f0:	09 f4       	brne	.+2      	; 0x10f4 <half_step_motor_left+0xd6>
    10f2:	dc 98       	cbi	0x1b, 4	; 27
    10f4:	80 91 7f 01 	lds	r24, 0x017F
    10f8:	83 30       	cpi	r24, 0x03	; 3
    10fa:	09 f4       	brne	.+2      	; 0x10fe <half_step_motor_left+0xe0>
    10fc:	de 9a       	sbi	0x1b, 6	; 27
    10fe:	80 91 7f 01 	lds	r24, 0x017F
    1102:	84 30       	cpi	r24, 0x04	; 4
    1104:	09 f4       	brne	.+2      	; 0x1108 <half_step_motor_left+0xea>
    1106:	dd 98       	cbi	0x1b, 5	; 27
    1108:	80 91 7f 01 	lds	r24, 0x017F
    110c:	85 30       	cpi	r24, 0x05	; 5
    110e:	09 f4       	brne	.+2      	; 0x1112 <half_step_motor_left+0xf4>
    1110:	df 9a       	sbi	0x1b, 7	; 27
    1112:	80 91 7f 01 	lds	r24, 0x017F
    1116:	86 30       	cpi	r24, 0x06	; 6
    1118:	09 f4       	brne	.+2      	; 0x111c <half_step_motor_left+0xfe>
    111a:	de 98       	cbi	0x1b, 6	; 27
    111c:	80 91 7f 01 	lds	r24, 0x017F
    1120:	87 30       	cpi	r24, 0x07	; 7
    1122:	09 f4       	brne	.+2      	; 0x1126 <half_step_motor_left+0x108>
    1124:	dc 9a       	sbi	0x1b, 4	; 27
    1126:	80 91 7f 01 	lds	r24, 0x017F
    112a:	88 30       	cpi	r24, 0x08	; 8
    112c:	a1 f6       	brne	.-88     	; 0x10d6 <half_step_motor_left+0xb8>
    112e:	10 92 7f 01 	sts	0x017F, r1
    1132:	2f 5f       	subi	r18, 0xFF	; 255
    1134:	3f 4f       	sbci	r19, 0xFF	; 255
    1136:	4f 4f       	sbci	r20, 0xFF	; 255
    1138:	5f 4f       	sbci	r21, 0xFF	; 255
    113a:	c2 16       	cp	r12, r18
    113c:	d3 06       	cpc	r13, r19
    113e:	e4 06       	cpc	r14, r20
    1140:	f5 06       	cpc	r15, r21
    1142:	48 f6       	brcc	.-110    	; 0x10d6 <half_step_motor_left+0xb8>
    1144:	1f 91       	pop	r17
    1146:	ff 90       	pop	r15
    1148:	ef 90       	pop	r14
    114a:	df 90       	pop	r13
    114c:	cf 90       	pop	r12
    114e:	08 95       	ret

00001150 <half_step_motor_right>:
    1150:	cf 92       	push	r12
    1152:	df 92       	push	r13
    1154:	ef 92       	push	r14
    1156:	ff 92       	push	r15
    1158:	1f 93       	push	r17
    115a:	6b 01       	movw	r12, r22
    115c:	7c 01       	movw	r14, r24
    115e:	ca 01       	movw	r24, r20
    1160:	12 2f       	mov	r17, r18
    1162:	0e 94 04 08 	call	0x1008	; 0x1008 <TimerInit>
    1166:	78 94       	sei
    1168:	11 30       	cpi	r17, 0x01	; 1
    116a:	09 f0       	breq	.+2      	; 0x116e <half_step_motor_right+0x1e>
    116c:	40 c0       	rjmp	.+128    	; 0x11ee <half_step_motor_right+0x9e>
    116e:	d0 9a       	sbi	0x1a, 0	; 26
    1170:	d1 9a       	sbi	0x1a, 1	; 26
    1172:	d2 9a       	sbi	0x1a, 2	; 26
    1174:	d3 9a       	sbi	0x1a, 3	; 26
    1176:	20 e0       	ldi	r18, 0x00	; 0
    1178:	30 e0       	ldi	r19, 0x00	; 0
    117a:	40 e0       	ldi	r20, 0x00	; 0
    117c:	50 e0       	ldi	r21, 0x00	; 0
    117e:	80 91 7f 01 	lds	r24, 0x017F
    1182:	88 23       	and	r24, r24
    1184:	09 f4       	brne	.+2      	; 0x1188 <half_step_motor_right+0x38>
    1186:	d8 98       	cbi	0x1b, 0	; 27
    1188:	80 91 7f 01 	lds	r24, 0x017F
    118c:	81 30       	cpi	r24, 0x01	; 1
    118e:	09 f4       	brne	.+2      	; 0x1192 <half_step_motor_right+0x42>
    1190:	da 9a       	sbi	0x1b, 2	; 27
    1192:	80 91 7f 01 	lds	r24, 0x017F
    1196:	82 30       	cpi	r24, 0x02	; 2
    1198:	09 f4       	brne	.+2      	; 0x119c <half_step_motor_right+0x4c>
    119a:	db 98       	cbi	0x1b, 3	; 27
    119c:	80 91 7f 01 	lds	r24, 0x017F
    11a0:	83 30       	cpi	r24, 0x03	; 3
    11a2:	09 f4       	brne	.+2      	; 0x11a6 <half_step_motor_right+0x56>
    11a4:	d9 9a       	sbi	0x1b, 1	; 27
    11a6:	80 91 7f 01 	lds	r24, 0x017F
    11aa:	84 30       	cpi	r24, 0x04	; 4
    11ac:	09 f4       	brne	.+2      	; 0x11b0 <half_step_motor_right+0x60>
    11ae:	da 98       	cbi	0x1b, 2	; 27
    11b0:	80 91 7f 01 	lds	r24, 0x017F
    11b4:	85 30       	cpi	r24, 0x05	; 5
    11b6:	09 f4       	brne	.+2      	; 0x11ba <half_step_motor_right+0x6a>
    11b8:	d8 9a       	sbi	0x1b, 0	; 27
    11ba:	80 91 7f 01 	lds	r24, 0x017F
    11be:	86 30       	cpi	r24, 0x06	; 6
    11c0:	09 f4       	brne	.+2      	; 0x11c4 <half_step_motor_right+0x74>
    11c2:	d9 98       	cbi	0x1b, 1	; 27
    11c4:	80 91 7f 01 	lds	r24, 0x017F
    11c8:	87 30       	cpi	r24, 0x07	; 7
    11ca:	09 f4       	brne	.+2      	; 0x11ce <half_step_motor_right+0x7e>
    11cc:	db 9a       	sbi	0x1b, 3	; 27
    11ce:	80 91 7f 01 	lds	r24, 0x017F
    11d2:	88 30       	cpi	r24, 0x08	; 8
    11d4:	a1 f6       	brne	.-88     	; 0x117e <half_step_motor_right+0x2e>
    11d6:	10 92 7f 01 	sts	0x017F, r1
    11da:	2f 5f       	subi	r18, 0xFF	; 255
    11dc:	3f 4f       	sbci	r19, 0xFF	; 255
    11de:	4f 4f       	sbci	r20, 0xFF	; 255
    11e0:	5f 4f       	sbci	r21, 0xFF	; 255
    11e2:	c2 16       	cp	r12, r18
    11e4:	d3 06       	cpc	r13, r19
    11e6:	e4 06       	cpc	r14, r20
    11e8:	f5 06       	cpc	r15, r21
    11ea:	48 f6       	brcc	.-110    	; 0x117e <half_step_motor_right+0x2e>
    11ec:	42 c0       	rjmp	.+132    	; 0x1272 <half_step_motor_right+0x122>
    11ee:	12 30       	cpi	r17, 0x02	; 2
    11f0:	09 f0       	breq	.+2      	; 0x11f4 <half_step_motor_right+0xa4>
    11f2:	3f c0       	rjmp	.+126    	; 0x1272 <half_step_motor_right+0x122>
    11f4:	d4 9a       	sbi	0x1a, 4	; 26
    11f6:	d5 9a       	sbi	0x1a, 5	; 26
    11f8:	d6 9a       	sbi	0x1a, 6	; 26
    11fa:	d7 9a       	sbi	0x1a, 7	; 26
    11fc:	20 e0       	ldi	r18, 0x00	; 0
    11fe:	30 e0       	ldi	r19, 0x00	; 0
    1200:	40 e0       	ldi	r20, 0x00	; 0
    1202:	50 e0       	ldi	r21, 0x00	; 0
    1204:	80 91 7f 01 	lds	r24, 0x017F
    1208:	88 23       	and	r24, r24
    120a:	09 f4       	brne	.+2      	; 0x120e <half_step_motor_right+0xbe>
    120c:	dc 98       	cbi	0x1b, 4	; 27
    120e:	80 91 7f 01 	lds	r24, 0x017F
    1212:	81 30       	cpi	r24, 0x01	; 1
    1214:	09 f4       	brne	.+2      	; 0x1218 <half_step_motor_right+0xc8>
    1216:	de 9a       	sbi	0x1b, 6	; 27
    1218:	80 91 7f 01 	lds	r24, 0x017F
    121c:	82 30       	cpi	r24, 0x02	; 2
    121e:	09 f4       	brne	.+2      	; 0x1222 <half_step_motor_right+0xd2>
    1220:	df 98       	cbi	0x1b, 7	; 27
    1222:	80 91 7f 01 	lds	r24, 0x017F
    1226:	83 30       	cpi	r24, 0x03	; 3
    1228:	09 f4       	brne	.+2      	; 0x122c <half_step_motor_right+0xdc>
    122a:	dd 9a       	sbi	0x1b, 5	; 27
    122c:	80 91 7f 01 	lds	r24, 0x017F
    1230:	84 30       	cpi	r24, 0x04	; 4
    1232:	09 f4       	brne	.+2      	; 0x1236 <half_step_motor_right+0xe6>
    1234:	de 98       	cbi	0x1b, 6	; 27
    1236:	80 91 7f 01 	lds	r24, 0x017F
    123a:	85 30       	cpi	r24, 0x05	; 5
    123c:	09 f4       	brne	.+2      	; 0x1240 <half_step_motor_right+0xf0>
    123e:	dc 9a       	sbi	0x1b, 4	; 27
    1240:	80 91 7f 01 	lds	r24, 0x017F
    1244:	86 30       	cpi	r24, 0x06	; 6
    1246:	09 f4       	brne	.+2      	; 0x124a <half_step_motor_right+0xfa>
    1248:	dd 98       	cbi	0x1b, 5	; 27
    124a:	80 91 7f 01 	lds	r24, 0x017F
    124e:	87 30       	cpi	r24, 0x07	; 7
    1250:	09 f4       	brne	.+2      	; 0x1254 <half_step_motor_right+0x104>
    1252:	df 9a       	sbi	0x1b, 7	; 27
    1254:	80 91 7f 01 	lds	r24, 0x017F
    1258:	88 30       	cpi	r24, 0x08	; 8
    125a:	a1 f6       	brne	.-88     	; 0x1204 <half_step_motor_right+0xb4>
    125c:	10 92 7f 01 	sts	0x017F, r1
    1260:	2f 5f       	subi	r18, 0xFF	; 255
    1262:	3f 4f       	sbci	r19, 0xFF	; 255
    1264:	4f 4f       	sbci	r20, 0xFF	; 255
    1266:	5f 4f       	sbci	r21, 0xFF	; 255
    1268:	c2 16       	cp	r12, r18
    126a:	d3 06       	cpc	r13, r19
    126c:	e4 06       	cpc	r14, r20
    126e:	f5 06       	cpc	r15, r21
    1270:	48 f6       	brcc	.-110    	; 0x1204 <half_step_motor_right+0xb4>
    1272:	1f 91       	pop	r17
    1274:	ff 90       	pop	r15
    1276:	ef 90       	pop	r14
    1278:	df 90       	pop	r13
    127a:	cf 90       	pop	r12
    127c:	08 95       	ret

0000127e <full_step_motor_left>:
    127e:	ef 92       	push	r14
    1280:	ff 92       	push	r15
    1282:	0f 93       	push	r16
    1284:	1f 93       	push	r17
    1286:	7b 01       	movw	r14, r22
    1288:	8c 01       	movw	r16, r24
    128a:	ca 01       	movw	r24, r20
    128c:	0e 94 04 08 	call	0x1008	; 0x1008 <TimerInit>
    1290:	78 94       	sei
    1292:	d0 9a       	sbi	0x1a, 0	; 26
    1294:	d1 9a       	sbi	0x1a, 1	; 26
    1296:	d2 9a       	sbi	0x1a, 2	; 26
    1298:	d3 9a       	sbi	0x1a, 3	; 26
    129a:	89 e0       	ldi	r24, 0x09	; 9
    129c:	ee 0c       	add	r14, r14
    129e:	ff 1c       	adc	r15, r15
    12a0:	00 1f       	adc	r16, r16
    12a2:	11 1f       	adc	r17, r17
    12a4:	8a 95       	dec	r24
    12a6:	d1 f7       	brne	.-12     	; 0x129c <full_step_motor_left+0x1e>
    12a8:	c8 01       	movw	r24, r16
    12aa:	b7 01       	movw	r22, r14
    12ac:	28 e6       	ldi	r18, 0x68	; 104
    12ae:	31 e0       	ldi	r19, 0x01	; 1
    12b0:	40 e0       	ldi	r20, 0x00	; 0
    12b2:	50 e0       	ldi	r21, 0x00	; 0
    12b4:	0e 94 be 13 	call	0x277c	; 0x277c <__udivmodsi4>
    12b8:	79 01       	movw	r14, r18
    12ba:	8a 01       	movw	r16, r20
    12bc:	20 e0       	ldi	r18, 0x00	; 0
    12be:	30 e0       	ldi	r19, 0x00	; 0
    12c0:	40 e0       	ldi	r20, 0x00	; 0
    12c2:	50 e0       	ldi	r21, 0x00	; 0
    12c4:	80 91 7f 01 	lds	r24, 0x017F
    12c8:	88 23       	and	r24, r24
    12ca:	11 f4       	brne	.+4      	; 0x12d0 <full_step_motor_left+0x52>
    12cc:	d8 9a       	sbi	0x1b, 0	; 27
    12ce:	da 98       	cbi	0x1b, 2	; 27
    12d0:	80 91 7f 01 	lds	r24, 0x017F
    12d4:	81 30       	cpi	r24, 0x01	; 1
    12d6:	11 f4       	brne	.+4      	; 0x12dc <full_step_motor_left+0x5e>
    12d8:	d9 9a       	sbi	0x1b, 1	; 27
    12da:	db 98       	cbi	0x1b, 3	; 27
    12dc:	80 91 7f 01 	lds	r24, 0x017F
    12e0:	82 30       	cpi	r24, 0x02	; 2
    12e2:	11 f4       	brne	.+4      	; 0x12e8 <full_step_motor_left+0x6a>
    12e4:	da 9a       	sbi	0x1b, 2	; 27
    12e6:	d8 98       	cbi	0x1b, 0	; 27
    12e8:	80 91 7f 01 	lds	r24, 0x017F
    12ec:	83 30       	cpi	r24, 0x03	; 3
    12ee:	11 f4       	brne	.+4      	; 0x12f4 <full_step_motor_left+0x76>
    12f0:	db 9a       	sbi	0x1b, 3	; 27
    12f2:	d9 98       	cbi	0x1b, 1	; 27
    12f4:	80 91 7f 01 	lds	r24, 0x017F
    12f8:	84 30       	cpi	r24, 0x04	; 4
    12fa:	21 f7       	brne	.-56     	; 0x12c4 <full_step_motor_left+0x46>
    12fc:	10 92 7f 01 	sts	0x017F, r1
    1300:	2f 5f       	subi	r18, 0xFF	; 255
    1302:	3f 4f       	sbci	r19, 0xFF	; 255
    1304:	4f 4f       	sbci	r20, 0xFF	; 255
    1306:	5f 4f       	sbci	r21, 0xFF	; 255
    1308:	e2 16       	cp	r14, r18
    130a:	f3 06       	cpc	r15, r19
    130c:	04 07       	cpc	r16, r20
    130e:	15 07       	cpc	r17, r21
    1310:	c8 f6       	brcc	.-78     	; 0x12c4 <full_step_motor_left+0x46>
    1312:	1f 91       	pop	r17
    1314:	0f 91       	pop	r16
    1316:	ff 90       	pop	r15
    1318:	ef 90       	pop	r14
    131a:	08 95       	ret

0000131c <full_step_motor_right>:
    131c:	ef 92       	push	r14
    131e:	ff 92       	push	r15
    1320:	0f 93       	push	r16
    1322:	1f 93       	push	r17
    1324:	7b 01       	movw	r14, r22
    1326:	8c 01       	movw	r16, r24
    1328:	ca 01       	movw	r24, r20
    132a:	0e 94 04 08 	call	0x1008	; 0x1008 <TimerInit>
    132e:	78 94       	sei
    1330:	d0 9a       	sbi	0x1a, 0	; 26
    1332:	d1 9a       	sbi	0x1a, 1	; 26
    1334:	d2 9a       	sbi	0x1a, 2	; 26
    1336:	d3 9a       	sbi	0x1a, 3	; 26
    1338:	99 e0       	ldi	r25, 0x09	; 9
    133a:	ee 0c       	add	r14, r14
    133c:	ff 1c       	adc	r15, r15
    133e:	00 1f       	adc	r16, r16
    1340:	11 1f       	adc	r17, r17
    1342:	9a 95       	dec	r25
    1344:	d1 f7       	brne	.-12     	; 0x133a <full_step_motor_right+0x1e>
    1346:	c8 01       	movw	r24, r16
    1348:	b7 01       	movw	r22, r14
    134a:	28 e6       	ldi	r18, 0x68	; 104
    134c:	31 e0       	ldi	r19, 0x01	; 1
    134e:	40 e0       	ldi	r20, 0x00	; 0
    1350:	50 e0       	ldi	r21, 0x00	; 0
    1352:	0e 94 be 13 	call	0x277c	; 0x277c <__udivmodsi4>
    1356:	79 01       	movw	r14, r18
    1358:	8a 01       	movw	r16, r20
    135a:	20 e0       	ldi	r18, 0x00	; 0
    135c:	30 e0       	ldi	r19, 0x00	; 0
    135e:	40 e0       	ldi	r20, 0x00	; 0
    1360:	50 e0       	ldi	r21, 0x00	; 0
    1362:	80 91 7f 01 	lds	r24, 0x017F
    1366:	88 23       	and	r24, r24
    1368:	11 f4       	brne	.+4      	; 0x136e <full_step_motor_right+0x52>
    136a:	db 9a       	sbi	0x1b, 3	; 27
    136c:	d9 98       	cbi	0x1b, 1	; 27
    136e:	80 91 7f 01 	lds	r24, 0x017F
    1372:	81 30       	cpi	r24, 0x01	; 1
    1374:	11 f4       	brne	.+4      	; 0x137a <full_step_motor_right+0x5e>
    1376:	da 9a       	sbi	0x1b, 2	; 27
    1378:	d8 98       	cbi	0x1b, 0	; 27
    137a:	80 91 7f 01 	lds	r24, 0x017F
    137e:	82 30       	cpi	r24, 0x02	; 2
    1380:	11 f4       	brne	.+4      	; 0x1386 <full_step_motor_right+0x6a>
    1382:	d9 9a       	sbi	0x1b, 1	; 27
    1384:	db 98       	cbi	0x1b, 3	; 27
    1386:	80 91 7f 01 	lds	r24, 0x017F
    138a:	83 30       	cpi	r24, 0x03	; 3
    138c:	11 f4       	brne	.+4      	; 0x1392 <full_step_motor_right+0x76>
    138e:	d8 9a       	sbi	0x1b, 0	; 27
    1390:	da 98       	cbi	0x1b, 2	; 27
    1392:	80 91 7f 01 	lds	r24, 0x017F
    1396:	84 30       	cpi	r24, 0x04	; 4
    1398:	21 f7       	brne	.-56     	; 0x1362 <full_step_motor_right+0x46>
    139a:	10 92 7f 01 	sts	0x017F, r1
    139e:	2f 5f       	subi	r18, 0xFF	; 255
    13a0:	3f 4f       	sbci	r19, 0xFF	; 255
    13a2:	4f 4f       	sbci	r20, 0xFF	; 255
    13a4:	5f 4f       	sbci	r21, 0xFF	; 255
    13a6:	e2 16       	cp	r14, r18
    13a8:	f3 06       	cpc	r15, r19
    13aa:	04 07       	cpc	r16, r20
    13ac:	15 07       	cpc	r17, r21
    13ae:	c8 f6       	brcc	.-78     	; 0x1362 <full_step_motor_right+0x46>
    13b0:	1f 91       	pop	r17
    13b2:	0f 91       	pop	r16
    13b4:	ff 90       	pop	r15
    13b6:	ef 90       	pop	r14
    13b8:	08 95       	ret

000013ba <silnik>:
    13ba:	cf 93       	push	r28
    13bc:	df 93       	push	r29
    13be:	c1 e0       	ldi	r28, 0x01	; 1
    13c0:	d0 e0       	ldi	r29, 0x00	; 0
    13c2:	62 e0       	ldi	r22, 0x02	; 2
    13c4:	70 e0       	ldi	r23, 0x00	; 0
    13c6:	80 e0       	ldi	r24, 0x00	; 0
    13c8:	90 e0       	ldi	r25, 0x00	; 0
    13ca:	4b e4       	ldi	r20, 0x4B	; 75
    13cc:	50 e0       	ldi	r21, 0x00	; 0
    13ce:	21 e0       	ldi	r18, 0x01	; 1
    13d0:	0e 94 0f 08 	call	0x101e	; 0x101e <half_step_motor_left>
    13d4:	62 e0       	ldi	r22, 0x02	; 2
    13d6:	70 e0       	ldi	r23, 0x00	; 0
    13d8:	80 e0       	ldi	r24, 0x00	; 0
    13da:	90 e0       	ldi	r25, 0x00	; 0
    13dc:	4b e4       	ldi	r20, 0x4B	; 75
    13de:	50 e0       	ldi	r21, 0x00	; 0
    13e0:	22 e0       	ldi	r18, 0x02	; 2
    13e2:	0e 94 0f 08 	call	0x101e	; 0x101e <half_step_motor_left>
    13e6:	21 96       	adiw	r28, 0x01	; 1
    13e8:	81 e0       	ldi	r24, 0x01	; 1
    13ea:	c1 30       	cpi	r28, 0x01	; 1
    13ec:	d8 07       	cpc	r29, r24
    13ee:	49 f7       	brne	.-46     	; 0x13c2 <silnik+0x8>
    13f0:	80 e0       	ldi	r24, 0x00	; 0
    13f2:	90 e0       	ldi	r25, 0x00	; 0
    13f4:	df 91       	pop	r29
    13f6:	cf 91       	pop	r28
    13f8:	08 95       	ret

000013fa <__vector_11>:
    13fa:	1f 92       	push	r1
    13fc:	0f 92       	push	r0
    13fe:	0f b6       	in	r0, 0x3f	; 63
    1400:	0f 92       	push	r0
    1402:	11 24       	eor	r1, r1
    1404:	8f 93       	push	r24
    1406:	80 91 7f 01 	lds	r24, 0x017F
    140a:	8f 5f       	subi	r24, 0xFF	; 255
    140c:	80 93 7f 01 	sts	0x017F, r24
    1410:	8f 91       	pop	r24
    1412:	0f 90       	pop	r0
    1414:	0f be       	out	0x3f, r0	; 63
    1416:	0f 90       	pop	r0
    1418:	1f 90       	pop	r1
    141a:	18 95       	reti

0000141c <getAddress>:
    141c:	80 91 75 01 	lds	r24, 0x0175
    1420:	08 95       	ret

00001422 <timeoutOccurred>:
    1422:	80 91 82 01 	lds	r24, 0x0182
    1426:	10 92 82 01 	sts	0x0182, r1
    142a:	08 95       	ret

0000142c <setTimeout>:
    142c:	90 93 81 01 	sts	0x0181, r25
    1430:	80 93 80 01 	sts	0x0180, r24
    1434:	08 95       	ret

00001436 <getTimeout>:
    1436:	80 91 80 01 	lds	r24, 0x0180
    143a:	90 91 81 01 	lds	r25, 0x0181
    143e:	08 95       	ret

00001440 <encodeTimeout>:
    1440:	00 97       	sbiw	r24, 0x00	; 0
    1442:	19 f4       	brne	.+6      	; 0x144a <encodeTimeout+0xa>
    1444:	20 e0       	ldi	r18, 0x00	; 0
    1446:	30 e0       	ldi	r19, 0x00	; 0
    1448:	19 c0       	rjmp	.+50     	; 0x147c <encodeTimeout+0x3c>
    144a:	01 97       	sbiw	r24, 0x01	; 1
    144c:	9c 01       	movw	r18, r24
    144e:	40 e0       	ldi	r20, 0x00	; 0
    1450:	50 e0       	ldi	r21, 0x00	; 0
    1452:	60 e0       	ldi	r22, 0x00	; 0
    1454:	70 e0       	ldi	r23, 0x00	; 0
    1456:	06 c0       	rjmp	.+12     	; 0x1464 <encodeTimeout+0x24>
    1458:	56 95       	lsr	r21
    145a:	47 95       	ror	r20
    145c:	37 95       	ror	r19
    145e:	27 95       	ror	r18
    1460:	6f 5f       	subi	r22, 0xFF	; 255
    1462:	7f 4f       	sbci	r23, 0xFF	; 255
    1464:	da 01       	movw	r26, r20
    1466:	c9 01       	movw	r24, r18
    1468:	80 70       	andi	r24, 0x00	; 0
    146a:	00 97       	sbiw	r24, 0x00	; 0
    146c:	a1 05       	cpc	r26, r1
    146e:	b1 05       	cpc	r27, r1
    1470:	99 f7       	brne	.-26     	; 0x1458 <encodeTimeout+0x18>
    1472:	30 70       	andi	r19, 0x00	; 0
    1474:	96 2f       	mov	r25, r22
    1476:	88 27       	eor	r24, r24
    1478:	28 2b       	or	r18, r24
    147a:	39 2b       	or	r19, r25
    147c:	c9 01       	movw	r24, r18
    147e:	08 95       	ret

00001480 <timeoutMclksToMicroseconds>:
    1480:	af 92       	push	r10
    1482:	bf 92       	push	r11
    1484:	cf 92       	push	r12
    1486:	df 92       	push	r13
    1488:	ef 92       	push	r14
    148a:	ff 92       	push	r15
    148c:	0f 93       	push	r16
    148e:	1f 93       	push	r17
    1490:	5c 01       	movw	r10, r24
    1492:	70 e0       	ldi	r23, 0x00	; 0
    1494:	80 e0       	ldi	r24, 0x00	; 0
    1496:	90 e0       	ldi	r25, 0x00	; 0
    1498:	20 e0       	ldi	r18, 0x00	; 0
    149a:	3f e2       	ldi	r19, 0x2F	; 47
    149c:	4a e3       	ldi	r20, 0x3A	; 58
    149e:	50 e0       	ldi	r21, 0x00	; 0
    14a0:	0e 94 9f 13 	call	0x273e	; 0x273e <__mulsi3>
    14a4:	6c 50       	subi	r22, 0x0C	; 12
    14a6:	7e 4f       	sbci	r23, 0xFE	; 254
    14a8:	8f 4f       	sbci	r24, 0xFF	; 255
    14aa:	9f 4f       	sbci	r25, 0xFF	; 255
    14ac:	28 ee       	ldi	r18, 0xE8	; 232
    14ae:	33 e0       	ldi	r19, 0x03	; 3
    14b0:	40 e0       	ldi	r20, 0x00	; 0
    14b2:	50 e0       	ldi	r21, 0x00	; 0
    14b4:	0e 94 be 13 	call	0x277c	; 0x277c <__udivmodsi4>
    14b8:	79 01       	movw	r14, r18
    14ba:	8a 01       	movw	r16, r20
    14bc:	cc 24       	eor	r12, r12
    14be:	dd 24       	eor	r13, r13
    14c0:	c8 01       	movw	r24, r16
    14c2:	b7 01       	movw	r22, r14
    14c4:	a6 01       	movw	r20, r12
    14c6:	95 01       	movw	r18, r10
    14c8:	0e 94 9f 13 	call	0x273e	; 0x273e <__mulsi3>
    14cc:	16 95       	lsr	r17
    14ce:	07 95       	ror	r16
    14d0:	f7 94       	ror	r15
    14d2:	e7 94       	ror	r14
    14d4:	6e 0d       	add	r22, r14
    14d6:	7f 1d       	adc	r23, r15
    14d8:	80 1f       	adc	r24, r16
    14da:	91 1f       	adc	r25, r17
    14dc:	28 ee       	ldi	r18, 0xE8	; 232
    14de:	33 e0       	ldi	r19, 0x03	; 3
    14e0:	40 e0       	ldi	r20, 0x00	; 0
    14e2:	50 e0       	ldi	r21, 0x00	; 0
    14e4:	0e 94 be 13 	call	0x277c	; 0x277c <__udivmodsi4>
    14e8:	ca 01       	movw	r24, r20
    14ea:	b9 01       	movw	r22, r18
    14ec:	1f 91       	pop	r17
    14ee:	0f 91       	pop	r16
    14f0:	ff 90       	pop	r15
    14f2:	ef 90       	pop	r14
    14f4:	df 90       	pop	r13
    14f6:	cf 90       	pop	r12
    14f8:	bf 90       	pop	r11
    14fa:	af 90       	pop	r10
    14fc:	08 95       	ret

000014fe <timeoutMicrosecondsToMclks>:
    14fe:	6f 92       	push	r6
    1500:	7f 92       	push	r7
    1502:	8f 92       	push	r8
    1504:	9f 92       	push	r9
    1506:	af 92       	push	r10
    1508:	bf 92       	push	r11
    150a:	cf 92       	push	r12
    150c:	df 92       	push	r13
    150e:	ef 92       	push	r14
    1510:	ff 92       	push	r15
    1512:	0f 93       	push	r16
    1514:	1f 93       	push	r17
    1516:	3b 01       	movw	r6, r22
    1518:	4c 01       	movw	r8, r24
    151a:	50 e0       	ldi	r21, 0x00	; 0
    151c:	60 e0       	ldi	r22, 0x00	; 0
    151e:	70 e0       	ldi	r23, 0x00	; 0
    1520:	cb 01       	movw	r24, r22
    1522:	ba 01       	movw	r22, r20
    1524:	20 e0       	ldi	r18, 0x00	; 0
    1526:	3f e2       	ldi	r19, 0x2F	; 47
    1528:	4a e3       	ldi	r20, 0x3A	; 58
    152a:	50 e0       	ldi	r21, 0x00	; 0
    152c:	0e 94 9f 13 	call	0x273e	; 0x273e <__mulsi3>
    1530:	6c 50       	subi	r22, 0x0C	; 12
    1532:	7e 4f       	sbci	r23, 0xFE	; 254
    1534:	8f 4f       	sbci	r24, 0xFF	; 255
    1536:	9f 4f       	sbci	r25, 0xFF	; 255
    1538:	28 ee       	ldi	r18, 0xE8	; 232
    153a:	33 e0       	ldi	r19, 0x03	; 3
    153c:	40 e0       	ldi	r20, 0x00	; 0
    153e:	50 e0       	ldi	r21, 0x00	; 0
    1540:	0e 94 be 13 	call	0x277c	; 0x277c <__udivmodsi4>
    1544:	79 01       	movw	r14, r18
    1546:	8a 01       	movw	r16, r20
    1548:	57 01       	movw	r10, r14
    154a:	68 01       	movw	r12, r16
    154c:	d6 94       	lsr	r13
    154e:	c7 94       	ror	r12
    1550:	b7 94       	ror	r11
    1552:	a7 94       	ror	r10
    1554:	c4 01       	movw	r24, r8
    1556:	b3 01       	movw	r22, r6
    1558:	28 ee       	ldi	r18, 0xE8	; 232
    155a:	33 e0       	ldi	r19, 0x03	; 3
    155c:	40 e0       	ldi	r20, 0x00	; 0
    155e:	50 e0       	ldi	r21, 0x00	; 0
    1560:	0e 94 9f 13 	call	0x273e	; 0x273e <__mulsi3>
    1564:	a6 0e       	add	r10, r22
    1566:	b7 1e       	adc	r11, r23
    1568:	c8 1e       	adc	r12, r24
    156a:	d9 1e       	adc	r13, r25
    156c:	c6 01       	movw	r24, r12
    156e:	b5 01       	movw	r22, r10
    1570:	a8 01       	movw	r20, r16
    1572:	97 01       	movw	r18, r14
    1574:	0e 94 be 13 	call	0x277c	; 0x277c <__udivmodsi4>
    1578:	ca 01       	movw	r24, r20
    157a:	b9 01       	movw	r22, r18
    157c:	1f 91       	pop	r17
    157e:	0f 91       	pop	r16
    1580:	ff 90       	pop	r15
    1582:	ef 90       	pop	r14
    1584:	df 90       	pop	r13
    1586:	cf 90       	pop	r12
    1588:	bf 90       	pop	r11
    158a:	af 90       	pop	r10
    158c:	9f 90       	pop	r9
    158e:	8f 90       	pop	r8
    1590:	7f 90       	pop	r7
    1592:	6f 90       	pop	r6
    1594:	08 95       	ret

00001596 <readMulti>:
    1596:	ef 92       	push	r14
    1598:	ff 92       	push	r15
    159a:	0f 93       	push	r16
    159c:	1f 93       	push	r17
    159e:	cf 93       	push	r28
    15a0:	df 93       	push	r29
    15a2:	18 2f       	mov	r17, r24
    15a4:	7b 01       	movw	r14, r22
    15a6:	04 2f       	mov	r16, r20
    15a8:	80 91 75 01 	lds	r24, 0x0175
    15ac:	0e 94 6f 06 	call	0xcde	; 0xcde <i2c_start>
    15b0:	81 2f       	mov	r24, r17
    15b2:	0e 94 c6 06 	call	0xd8c	; 0xd8c <i2c_write>
    15b6:	80 91 75 01 	lds	r24, 0x0175
    15ba:	81 60       	ori	r24, 0x01	; 1
    15bc:	0e 94 b8 06 	call	0xd70	; 0xd70 <i2c_rep_start>
    15c0:	e7 01       	movw	r28, r14
    15c2:	0a c0       	rjmp	.+20     	; 0x15d8 <readMulti+0x42>
    15c4:	02 30       	cpi	r16, 0x02	; 2
    15c6:	18 f0       	brcs	.+6      	; 0x15ce <readMulti+0x38>
    15c8:	0e 94 da 06 	call	0xdb4	; 0xdb4 <i2c_readAck>
    15cc:	02 c0       	rjmp	.+4      	; 0x15d2 <readMulti+0x3c>
    15ce:	0e 94 e8 06 	call	0xdd0	; 0xdd0 <i2c_readNak>
    15d2:	88 83       	st	Y, r24
    15d4:	01 50       	subi	r16, 0x01	; 1
    15d6:	21 96       	adiw	r28, 0x01	; 1
    15d8:	00 23       	and	r16, r16
    15da:	a1 f7       	brne	.-24     	; 0x15c4 <readMulti+0x2e>
    15dc:	0e 94 bb 06 	call	0xd76	; 0xd76 <i2c_stop>
    15e0:	df 91       	pop	r29
    15e2:	cf 91       	pop	r28
    15e4:	1f 91       	pop	r17
    15e6:	0f 91       	pop	r16
    15e8:	ff 90       	pop	r15
    15ea:	ef 90       	pop	r14
    15ec:	08 95       	ret

000015ee <writeMulti>:
    15ee:	0f 93       	push	r16
    15f0:	1f 93       	push	r17
    15f2:	cf 93       	push	r28
    15f4:	df 93       	push	r29
    15f6:	18 2f       	mov	r17, r24
    15f8:	eb 01       	movw	r28, r22
    15fa:	04 2f       	mov	r16, r20
    15fc:	80 91 75 01 	lds	r24, 0x0175
    1600:	0e 94 6f 06 	call	0xcde	; 0xcde <i2c_start>
    1604:	81 2f       	mov	r24, r17
    1606:	0e 94 c6 06 	call	0xd8c	; 0xd8c <i2c_write>
    160a:	04 c0       	rjmp	.+8      	; 0x1614 <writeMulti+0x26>
    160c:	89 91       	ld	r24, Y+
    160e:	0e 94 c6 06 	call	0xd8c	; 0xd8c <i2c_write>
    1612:	01 50       	subi	r16, 0x01	; 1
    1614:	00 23       	and	r16, r16
    1616:	d1 f7       	brne	.-12     	; 0x160c <writeMulti+0x1e>
    1618:	0e 94 bb 06 	call	0xd76	; 0xd76 <i2c_stop>
    161c:	df 91       	pop	r29
    161e:	cf 91       	pop	r28
    1620:	1f 91       	pop	r17
    1622:	0f 91       	pop	r16
    1624:	08 95       	ret

00001626 <readReg32Bit>:
    1626:	6f 92       	push	r6
    1628:	7f 92       	push	r7
    162a:	8f 92       	push	r8
    162c:	9f 92       	push	r9
    162e:	af 92       	push	r10
    1630:	bf 92       	push	r11
    1632:	cf 92       	push	r12
    1634:	df 92       	push	r13
    1636:	ef 92       	push	r14
    1638:	ff 92       	push	r15
    163a:	0f 93       	push	r16
    163c:	1f 93       	push	r17
    163e:	18 2f       	mov	r17, r24
    1640:	80 91 75 01 	lds	r24, 0x0175
    1644:	0e 94 6f 06 	call	0xcde	; 0xcde <i2c_start>
    1648:	81 2f       	mov	r24, r17
    164a:	0e 94 c6 06 	call	0xd8c	; 0xd8c <i2c_write>
    164e:	80 91 75 01 	lds	r24, 0x0175
    1652:	81 60       	ori	r24, 0x01	; 1
    1654:	0e 94 b8 06 	call	0xd70	; 0xd70 <i2c_rep_start>
    1658:	0e 94 da 06 	call	0xdb4	; 0xdb4 <i2c_readAck>
    165c:	68 2e       	mov	r6, r24
    165e:	77 24       	eor	r7, r7
    1660:	88 24       	eor	r8, r8
    1662:	99 24       	eor	r9, r9
    1664:	96 2c       	mov	r9, r6
    1666:	88 24       	eor	r8, r8
    1668:	77 24       	eor	r7, r7
    166a:	66 24       	eor	r6, r6
    166c:	0e 94 da 06 	call	0xdb4	; 0xdb4 <i2c_readAck>
    1670:	a8 2e       	mov	r10, r24
    1672:	0e 94 da 06 	call	0xdb4	; 0xdb4 <i2c_readAck>
    1676:	e8 2e       	mov	r14, r24
    1678:	0e 94 e8 06 	call	0xdd0	; 0xdd0 <i2c_readNak>
    167c:	bb 24       	eor	r11, r11
    167e:	cc 24       	eor	r12, r12
    1680:	dd 24       	eor	r13, r13
    1682:	65 01       	movw	r12, r10
    1684:	bb 24       	eor	r11, r11
    1686:	aa 24       	eor	r10, r10
    1688:	6a 28       	or	r6, r10
    168a:	7b 28       	or	r7, r11
    168c:	8c 28       	or	r8, r12
    168e:	9d 28       	or	r9, r13
    1690:	90 e0       	ldi	r25, 0x00	; 0
    1692:	a0 e0       	ldi	r26, 0x00	; 0
    1694:	b0 e0       	ldi	r27, 0x00	; 0
    1696:	68 2a       	or	r6, r24
    1698:	79 2a       	or	r7, r25
    169a:	8a 2a       	or	r8, r26
    169c:	9b 2a       	or	r9, r27
    169e:	0e 94 bb 06 	call	0xd76	; 0xd76 <i2c_stop>
    16a2:	ff 24       	eor	r15, r15
    16a4:	00 e0       	ldi	r16, 0x00	; 0
    16a6:	10 e0       	ldi	r17, 0x00	; 0
    16a8:	10 2f       	mov	r17, r16
    16aa:	0f 2d       	mov	r16, r15
    16ac:	fe 2c       	mov	r15, r14
    16ae:	ee 24       	eor	r14, r14
    16b0:	e6 28       	or	r14, r6
    16b2:	f7 28       	or	r15, r7
    16b4:	08 29       	or	r16, r8
    16b6:	19 29       	or	r17, r9
    16b8:	b7 01       	movw	r22, r14
    16ba:	c8 01       	movw	r24, r16
    16bc:	1f 91       	pop	r17
    16be:	0f 91       	pop	r16
    16c0:	ff 90       	pop	r15
    16c2:	ef 90       	pop	r14
    16c4:	df 90       	pop	r13
    16c6:	cf 90       	pop	r12
    16c8:	bf 90       	pop	r11
    16ca:	af 90       	pop	r10
    16cc:	9f 90       	pop	r9
    16ce:	8f 90       	pop	r8
    16d0:	7f 90       	pop	r7
    16d2:	6f 90       	pop	r6
    16d4:	08 95       	ret

000016d6 <readReg16Bit>:
    16d6:	ef 92       	push	r14
    16d8:	ff 92       	push	r15
    16da:	0f 93       	push	r16
    16dc:	1f 93       	push	r17
    16de:	18 2f       	mov	r17, r24
    16e0:	80 91 75 01 	lds	r24, 0x0175
    16e4:	0e 94 6f 06 	call	0xcde	; 0xcde <i2c_start>
    16e8:	81 2f       	mov	r24, r17
    16ea:	0e 94 c6 06 	call	0xd8c	; 0xd8c <i2c_write>
    16ee:	80 91 75 01 	lds	r24, 0x0175
    16f2:	81 60       	ori	r24, 0x01	; 1
    16f4:	0e 94 b8 06 	call	0xd70	; 0xd70 <i2c_rep_start>
    16f8:	0e 94 da 06 	call	0xdb4	; 0xdb4 <i2c_readAck>
    16fc:	f8 2e       	mov	r15, r24
    16fe:	ee 24       	eor	r14, r14
    1700:	0e 94 e8 06 	call	0xdd0	; 0xdd0 <i2c_readNak>
    1704:	08 2f       	mov	r16, r24
    1706:	0e 94 bb 06 	call	0xd76	; 0xd76 <i2c_stop>
    170a:	10 e0       	ldi	r17, 0x00	; 0
    170c:	0e 29       	or	r16, r14
    170e:	1f 29       	or	r17, r15
    1710:	c8 01       	movw	r24, r16
    1712:	1f 91       	pop	r17
    1714:	0f 91       	pop	r16
    1716:	ff 90       	pop	r15
    1718:	ef 90       	pop	r14
    171a:	08 95       	ret

0000171c <getSignalRateLimit>:
    171c:	84 e4       	ldi	r24, 0x44	; 68
    171e:	0e 94 6b 0b 	call	0x16d6	; 0x16d6 <readReg16Bit>
    1722:	a0 e0       	ldi	r26, 0x00	; 0
    1724:	b0 e0       	ldi	r27, 0x00	; 0
    1726:	bc 01       	movw	r22, r24
    1728:	cd 01       	movw	r24, r26
    172a:	0e 94 fd 03 	call	0x7fa	; 0x7fa <__floatunsisf>
    172e:	20 e0       	ldi	r18, 0x00	; 0
    1730:	30 e0       	ldi	r19, 0x00	; 0
    1732:	40 e0       	ldi	r20, 0x00	; 0
    1734:	5c e3       	ldi	r21, 0x3C	; 60
    1736:	0e 94 1f 02 	call	0x43e	; 0x43e <__mulsf3>
    173a:	08 95       	ret

0000173c <readReg>:
    173c:	1f 93       	push	r17
    173e:	18 2f       	mov	r17, r24
    1740:	80 91 75 01 	lds	r24, 0x0175
    1744:	0e 94 6f 06 	call	0xcde	; 0xcde <i2c_start>
    1748:	81 2f       	mov	r24, r17
    174a:	0e 94 c6 06 	call	0xd8c	; 0xd8c <i2c_write>
    174e:	80 91 75 01 	lds	r24, 0x0175
    1752:	81 60       	ori	r24, 0x01	; 1
    1754:	0e 94 b8 06 	call	0xd70	; 0xd70 <i2c_rep_start>
    1758:	0e 94 e8 06 	call	0xdd0	; 0xdd0 <i2c_readNak>
    175c:	18 2f       	mov	r17, r24
    175e:	0e 94 bb 06 	call	0xd76	; 0xd76 <i2c_stop>
    1762:	81 2f       	mov	r24, r17
    1764:	1f 91       	pop	r17
    1766:	08 95       	ret

00001768 <getSequenceStepEnables>:
    1768:	0f 93       	push	r16
    176a:	1f 93       	push	r17
    176c:	8c 01       	movw	r16, r24
    176e:	81 e0       	ldi	r24, 0x01	; 1
    1770:	0e 94 9e 0b 	call	0x173c	; 0x173c <readReg>
    1774:	98 2f       	mov	r25, r24
    1776:	92 95       	swap	r25
    1778:	91 70       	andi	r25, 0x01	; 1
    177a:	f8 01       	movw	r30, r16
    177c:	90 83       	st	Z, r25
    177e:	98 2f       	mov	r25, r24
    1780:	96 95       	lsr	r25
    1782:	96 95       	lsr	r25
    1784:	96 95       	lsr	r25
    1786:	91 70       	andi	r25, 0x01	; 1
    1788:	92 83       	std	Z+2, r25	; 0x02
    178a:	98 2f       	mov	r25, r24
    178c:	96 95       	lsr	r25
    178e:	96 95       	lsr	r25
    1790:	91 70       	andi	r25, 0x01	; 1
    1792:	91 83       	std	Z+1, r25	; 0x01
    1794:	82 95       	swap	r24
    1796:	86 95       	lsr	r24
    1798:	86 95       	lsr	r24
    179a:	83 70       	andi	r24, 0x03	; 3
    179c:	98 2f       	mov	r25, r24
    179e:	91 70       	andi	r25, 0x01	; 1
    17a0:	93 83       	std	Z+3, r25	; 0x03
    17a2:	86 95       	lsr	r24
    17a4:	84 83       	std	Z+4, r24	; 0x04
    17a6:	1f 91       	pop	r17
    17a8:	0f 91       	pop	r16
    17aa:	08 95       	ret

000017ac <getVcselPulsePeriod>:
    17ac:	88 23       	and	r24, r24
    17ae:	31 f4       	brne	.+12     	; 0x17bc <getVcselPulsePeriod+0x10>
    17b0:	80 e5       	ldi	r24, 0x50	; 80
    17b2:	0e 94 9e 0b 	call	0x173c	; 0x173c <readReg>
    17b6:	8f 5f       	subi	r24, 0xFF	; 255
    17b8:	88 0f       	add	r24, r24
    17ba:	08 95       	ret
    17bc:	81 30       	cpi	r24, 0x01	; 1
    17be:	11 f0       	breq	.+4      	; 0x17c4 <getVcselPulsePeriod+0x18>
    17c0:	8f ef       	ldi	r24, 0xFF	; 255
    17c2:	08 95       	ret
    17c4:	80 e7       	ldi	r24, 0x70	; 112
    17c6:	0e 94 9e 0b 	call	0x173c	; 0x173c <readReg>
    17ca:	8f 5f       	subi	r24, 0xFF	; 255
    17cc:	88 0f       	add	r24, r24
    17ce:	08 95       	ret

000017d0 <getSequenceStepTimeouts>:
    17d0:	0f 93       	push	r16
    17d2:	1f 93       	push	r17
    17d4:	cf 93       	push	r28
    17d6:	df 93       	push	r29
    17d8:	8c 01       	movw	r16, r24
    17da:	eb 01       	movw	r28, r22
    17dc:	80 e0       	ldi	r24, 0x00	; 0
    17de:	0e 94 d6 0b 	call	0x17ac	; 0x17ac <getVcselPulsePeriod>
    17e2:	88 83       	st	Y, r24
    17e4:	19 82       	std	Y+1, r1	; 0x01
    17e6:	86 e4       	ldi	r24, 0x46	; 70
    17e8:	0e 94 9e 0b 	call	0x173c	; 0x173c <readReg>
    17ec:	90 e0       	ldi	r25, 0x00	; 0
    17ee:	01 96       	adiw	r24, 0x01	; 1
    17f0:	9d 83       	std	Y+5, r25	; 0x05
    17f2:	8c 83       	std	Y+4, r24	; 0x04
    17f4:	68 81       	ld	r22, Y
    17f6:	0e 94 40 0a 	call	0x1480	; 0x1480 <timeoutMclksToMicroseconds>
    17fa:	6a 87       	std	Y+10, r22	; 0x0a
    17fc:	7b 87       	std	Y+11, r23	; 0x0b
    17fe:	8c 87       	std	Y+12, r24	; 0x0c
    1800:	9d 87       	std	Y+13, r25	; 0x0d
    1802:	81 e5       	ldi	r24, 0x51	; 81
    1804:	0e 94 6b 0b 	call	0x16d6	; 0x16d6 <readReg16Bit>
    1808:	28 2f       	mov	r18, r24
    180a:	30 e0       	ldi	r19, 0x00	; 0
    180c:	02 c0       	rjmp	.+4      	; 0x1812 <getSequenceStepTimeouts+0x42>
    180e:	22 0f       	add	r18, r18
    1810:	33 1f       	adc	r19, r19
    1812:	9a 95       	dec	r25
    1814:	e2 f7       	brpl	.-8      	; 0x180e <getSequenceStepTimeouts+0x3e>
    1816:	2f 5f       	subi	r18, 0xFF	; 255
    1818:	3f 4f       	sbci	r19, 0xFF	; 255
    181a:	3f 83       	std	Y+7, r19	; 0x07
    181c:	2e 83       	std	Y+6, r18	; 0x06
    181e:	c9 01       	movw	r24, r18
    1820:	68 81       	ld	r22, Y
    1822:	0e 94 40 0a 	call	0x1480	; 0x1480 <timeoutMclksToMicroseconds>
    1826:	6e 87       	std	Y+14, r22	; 0x0e
    1828:	7f 87       	std	Y+15, r23	; 0x0f
    182a:	88 8b       	std	Y+16, r24	; 0x10
    182c:	99 8b       	std	Y+17, r25	; 0x11
    182e:	81 e0       	ldi	r24, 0x01	; 1
    1830:	0e 94 d6 0b 	call	0x17ac	; 0x17ac <getVcselPulsePeriod>
    1834:	8a 83       	std	Y+2, r24	; 0x02
    1836:	1b 82       	std	Y+3, r1	; 0x03
    1838:	81 e7       	ldi	r24, 0x71	; 113
    183a:	0e 94 6b 0b 	call	0x16d6	; 0x16d6 <readReg16Bit>
    183e:	28 2f       	mov	r18, r24
    1840:	30 e0       	ldi	r19, 0x00	; 0
    1842:	02 c0       	rjmp	.+4      	; 0x1848 <getSequenceStepTimeouts+0x78>
    1844:	22 0f       	add	r18, r18
    1846:	33 1f       	adc	r19, r19
    1848:	9a 95       	dec	r25
    184a:	e2 f7       	brpl	.-8      	; 0x1844 <getSequenceStepTimeouts+0x74>
    184c:	2f 5f       	subi	r18, 0xFF	; 255
    184e:	3f 4f       	sbci	r19, 0xFF	; 255
    1850:	39 87       	std	Y+9, r19	; 0x09
    1852:	28 87       	std	Y+8, r18	; 0x08
    1854:	f8 01       	movw	r30, r16
    1856:	83 81       	ldd	r24, Z+3	; 0x03
    1858:	88 23       	and	r24, r24
    185a:	31 f0       	breq	.+12     	; 0x1868 <getSequenceStepTimeouts+0x98>
    185c:	8e 81       	ldd	r24, Y+6	; 0x06
    185e:	9f 81       	ldd	r25, Y+7	; 0x07
    1860:	28 1b       	sub	r18, r24
    1862:	39 0b       	sbc	r19, r25
    1864:	39 87       	std	Y+9, r19	; 0x09
    1866:	28 87       	std	Y+8, r18	; 0x08
    1868:	88 85       	ldd	r24, Y+8	; 0x08
    186a:	99 85       	ldd	r25, Y+9	; 0x09
    186c:	6a 81       	ldd	r22, Y+2	; 0x02
    186e:	0e 94 40 0a 	call	0x1480	; 0x1480 <timeoutMclksToMicroseconds>
    1872:	6a 8b       	std	Y+18, r22	; 0x12
    1874:	7b 8b       	std	Y+19, r23	; 0x13
    1876:	8c 8b       	std	Y+20, r24	; 0x14
    1878:	9d 8b       	std	Y+21, r25	; 0x15
    187a:	df 91       	pop	r29
    187c:	cf 91       	pop	r28
    187e:	1f 91       	pop	r17
    1880:	0f 91       	pop	r16
    1882:	08 95       	ret

00001884 <getMeasurementTimingBudget>:
    1884:	0f 93       	push	r16
    1886:	1f 93       	push	r17
    1888:	df 93       	push	r29
    188a:	cf 93       	push	r28
    188c:	cd b7       	in	r28, 0x3d	; 61
    188e:	de b7       	in	r29, 0x3e	; 62
    1890:	6b 97       	sbiw	r28, 0x1b	; 27
    1892:	0f b6       	in	r0, 0x3f	; 63
    1894:	f8 94       	cli
    1896:	de bf       	out	0x3e, r29	; 62
    1898:	0f be       	out	0x3f, r0	; 63
    189a:	cd bf       	out	0x3d, r28	; 61
    189c:	8e 01       	movw	r16, r28
    189e:	0f 5f       	subi	r16, 0xFF	; 255
    18a0:	1f 4f       	sbci	r17, 0xFF	; 255
    18a2:	c8 01       	movw	r24, r16
    18a4:	0e 94 b4 0b 	call	0x1768	; 0x1768 <getSequenceStepEnables>
    18a8:	c8 01       	movw	r24, r16
    18aa:	be 01       	movw	r22, r28
    18ac:	6a 5f       	subi	r22, 0xFA	; 250
    18ae:	7f 4f       	sbci	r23, 0xFF	; 255
    18b0:	0e 94 e8 0b 	call	0x17d0	; 0x17d0 <getSequenceStepTimeouts>
    18b4:	89 81       	ldd	r24, Y+1	; 0x01
    18b6:	88 23       	and	r24, r24
    18b8:	29 f4       	brne	.+10     	; 0x18c4 <getMeasurementTimingBudget+0x40>
    18ba:	26 e3       	ldi	r18, 0x36	; 54
    18bc:	3b e0       	ldi	r19, 0x0B	; 11
    18be:	40 e0       	ldi	r20, 0x00	; 0
    18c0:	50 e0       	ldi	r21, 0x00	; 0
    18c2:	08 c0       	rjmp	.+16     	; 0x18d4 <getMeasurementTimingBudget+0x50>
    18c4:	28 89       	ldd	r18, Y+16	; 0x10
    18c6:	39 89       	ldd	r19, Y+17	; 0x11
    18c8:	4a 89       	ldd	r20, Y+18	; 0x12
    18ca:	5b 89       	ldd	r21, Y+19	; 0x13
    18cc:	2c 57       	subi	r18, 0x7C	; 124
    18ce:	32 4f       	sbci	r19, 0xF2	; 242
    18d0:	4f 4f       	sbci	r20, 0xFF	; 255
    18d2:	5f 4f       	sbci	r21, 0xFF	; 255
    18d4:	8b 81       	ldd	r24, Y+3	; 0x03
    18d6:	88 23       	and	r24, r24
    18d8:	69 f0       	breq	.+26     	; 0x18f4 <getMeasurementTimingBudget+0x70>
    18da:	88 89       	ldd	r24, Y+16	; 0x10
    18dc:	99 89       	ldd	r25, Y+17	; 0x11
    18de:	aa 89       	ldd	r26, Y+18	; 0x12
    18e0:	bb 89       	ldd	r27, Y+19	; 0x13
    18e2:	8e 54       	subi	r24, 0x4E	; 78
    18e4:	9d 4f       	sbci	r25, 0xFD	; 253
    18e6:	af 4f       	sbci	r26, 0xFF	; 255
    18e8:	bf 4f       	sbci	r27, 0xFF	; 255
    18ea:	88 0f       	add	r24, r24
    18ec:	99 1f       	adc	r25, r25
    18ee:	aa 1f       	adc	r26, r26
    18f0:	bb 1f       	adc	r27, r27
    18f2:	0b c0       	rjmp	.+22     	; 0x190a <getMeasurementTimingBudget+0x86>
    18f4:	8a 81       	ldd	r24, Y+2	; 0x02
    18f6:	88 23       	and	r24, r24
    18f8:	61 f0       	breq	.+24     	; 0x1912 <getMeasurementTimingBudget+0x8e>
    18fa:	88 89       	ldd	r24, Y+16	; 0x10
    18fc:	99 89       	ldd	r25, Y+17	; 0x11
    18fe:	aa 89       	ldd	r26, Y+18	; 0x12
    1900:	bb 89       	ldd	r27, Y+19	; 0x13
    1902:	8c 56       	subi	r24, 0x6C	; 108
    1904:	9d 4f       	sbci	r25, 0xFD	; 253
    1906:	af 4f       	sbci	r26, 0xFF	; 255
    1908:	bf 4f       	sbci	r27, 0xFF	; 255
    190a:	28 0f       	add	r18, r24
    190c:	39 1f       	adc	r19, r25
    190e:	4a 1f       	adc	r20, r26
    1910:	5b 1f       	adc	r21, r27
    1912:	8c 81       	ldd	r24, Y+4	; 0x04
    1914:	88 23       	and	r24, r24
    1916:	61 f0       	breq	.+24     	; 0x1930 <getMeasurementTimingBudget+0xac>
    1918:	8c 89       	ldd	r24, Y+20	; 0x14
    191a:	9d 89       	ldd	r25, Y+21	; 0x15
    191c:	ae 89       	ldd	r26, Y+22	; 0x16
    191e:	bf 89       	ldd	r27, Y+23	; 0x17
    1920:	8c 56       	subi	r24, 0x6C	; 108
    1922:	9d 4f       	sbci	r25, 0xFD	; 253
    1924:	af 4f       	sbci	r26, 0xFF	; 255
    1926:	bf 4f       	sbci	r27, 0xFF	; 255
    1928:	28 0f       	add	r18, r24
    192a:	39 1f       	adc	r19, r25
    192c:	4a 1f       	adc	r20, r26
    192e:	5b 1f       	adc	r21, r27
    1930:	8d 81       	ldd	r24, Y+5	; 0x05
    1932:	88 23       	and	r24, r24
    1934:	61 f0       	breq	.+24     	; 0x194e <getMeasurementTimingBudget+0xca>
    1936:	88 8d       	ldd	r24, Y+24	; 0x18
    1938:	99 8d       	ldd	r25, Y+25	; 0x19
    193a:	aa 8d       	ldd	r26, Y+26	; 0x1a
    193c:	bb 8d       	ldd	r27, Y+27	; 0x1b
    193e:	8a 5d       	subi	r24, 0xDA	; 218
    1940:	9d 4f       	sbci	r25, 0xFD	; 253
    1942:	af 4f       	sbci	r26, 0xFF	; 255
    1944:	bf 4f       	sbci	r27, 0xFF	; 255
    1946:	28 0f       	add	r18, r24
    1948:	39 1f       	adc	r19, r25
    194a:	4a 1f       	adc	r20, r26
    194c:	5b 1f       	adc	r21, r27
    194e:	20 93 86 01 	sts	0x0186, r18
    1952:	30 93 87 01 	sts	0x0187, r19
    1956:	40 93 88 01 	sts	0x0188, r20
    195a:	50 93 89 01 	sts	0x0189, r21
    195e:	b9 01       	movw	r22, r18
    1960:	ca 01       	movw	r24, r20
    1962:	6b 96       	adiw	r28, 0x1b	; 27
    1964:	0f b6       	in	r0, 0x3f	; 63
    1966:	f8 94       	cli
    1968:	de bf       	out	0x3e, r29	; 62
    196a:	0f be       	out	0x3f, r0	; 63
    196c:	cd bf       	out	0x3d, r28	; 61
    196e:	cf 91       	pop	r28
    1970:	df 91       	pop	r29
    1972:	1f 91       	pop	r17
    1974:	0f 91       	pop	r16
    1976:	08 95       	ret

00001978 <writeReg32Bit>:
    1978:	df 92       	push	r13
    197a:	ef 92       	push	r14
    197c:	ff 92       	push	r15
    197e:	0f 93       	push	r16
    1980:	1f 93       	push	r17
    1982:	d8 2e       	mov	r13, r24
    1984:	7a 01       	movw	r14, r20
    1986:	8b 01       	movw	r16, r22
    1988:	80 91 75 01 	lds	r24, 0x0175
    198c:	0e 94 6f 06 	call	0xcde	; 0xcde <i2c_start>
    1990:	8d 2d       	mov	r24, r13
    1992:	0e 94 c6 06 	call	0xd8c	; 0xd8c <i2c_write>
    1996:	81 2f       	mov	r24, r17
    1998:	99 27       	eor	r25, r25
    199a:	aa 27       	eor	r26, r26
    199c:	bb 27       	eor	r27, r27
    199e:	0e 94 c6 06 	call	0xd8c	; 0xd8c <i2c_write>
    19a2:	c8 01       	movw	r24, r16
    19a4:	aa 27       	eor	r26, r26
    19a6:	bb 27       	eor	r27, r27
    19a8:	0e 94 c6 06 	call	0xd8c	; 0xd8c <i2c_write>
    19ac:	bb 27       	eor	r27, r27
    19ae:	a1 2f       	mov	r26, r17
    19b0:	90 2f       	mov	r25, r16
    19b2:	8f 2d       	mov	r24, r15
    19b4:	0e 94 c6 06 	call	0xd8c	; 0xd8c <i2c_write>
    19b8:	8e 2d       	mov	r24, r14
    19ba:	0e 94 c6 06 	call	0xd8c	; 0xd8c <i2c_write>
    19be:	0e 94 bb 06 	call	0xd76	; 0xd76 <i2c_stop>
    19c2:	1f 91       	pop	r17
    19c4:	0f 91       	pop	r16
    19c6:	ff 90       	pop	r15
    19c8:	ef 90       	pop	r14
    19ca:	df 90       	pop	r13
    19cc:	08 95       	ret

000019ce <writeReg16Bit>:
    19ce:	ff 92       	push	r15
    19d0:	0f 93       	push	r16
    19d2:	1f 93       	push	r17
    19d4:	18 2f       	mov	r17, r24
    19d6:	f6 2e       	mov	r15, r22
    19d8:	07 2f       	mov	r16, r23
    19da:	80 91 75 01 	lds	r24, 0x0175
    19de:	0e 94 6f 06 	call	0xcde	; 0xcde <i2c_start>
    19e2:	81 2f       	mov	r24, r17
    19e4:	0e 94 c6 06 	call	0xd8c	; 0xd8c <i2c_write>
    19e8:	80 2f       	mov	r24, r16
    19ea:	0e 94 c6 06 	call	0xd8c	; 0xd8c <i2c_write>
    19ee:	8f 2d       	mov	r24, r15
    19f0:	0e 94 c6 06 	call	0xd8c	; 0xd8c <i2c_write>
    19f4:	0e 94 bb 06 	call	0xd76	; 0xd76 <i2c_stop>
    19f8:	1f 91       	pop	r17
    19fa:	0f 91       	pop	r16
    19fc:	ff 90       	pop	r15
    19fe:	08 95       	ret

00001a00 <setMeasurementTimingBudget>:
    1a00:	cf 92       	push	r12
    1a02:	df 92       	push	r13
    1a04:	ef 92       	push	r14
    1a06:	ff 92       	push	r15
    1a08:	0f 93       	push	r16
    1a0a:	1f 93       	push	r17
    1a0c:	df 93       	push	r29
    1a0e:	cf 93       	push	r28
    1a10:	cd b7       	in	r28, 0x3d	; 61
    1a12:	de b7       	in	r29, 0x3e	; 62
    1a14:	6b 97       	sbiw	r28, 0x1b	; 27
    1a16:	0f b6       	in	r0, 0x3f	; 63
    1a18:	f8 94       	cli
    1a1a:	de bf       	out	0x3e, r29	; 62
    1a1c:	0f be       	out	0x3f, r0	; 63
    1a1e:	cd bf       	out	0x3d, r28	; 61
    1a20:	6b 01       	movw	r12, r22
    1a22:	7c 01       	movw	r14, r24
    1a24:	60 32       	cpi	r22, 0x20	; 32
    1a26:	2e e4       	ldi	r18, 0x4E	; 78
    1a28:	72 07       	cpc	r23, r18
    1a2a:	20 e0       	ldi	r18, 0x00	; 0
    1a2c:	82 07       	cpc	r24, r18
    1a2e:	20 e0       	ldi	r18, 0x00	; 0
    1a30:	92 07       	cpc	r25, r18
    1a32:	08 f4       	brcc	.+2      	; 0x1a36 <setMeasurementTimingBudget+0x36>
    1a34:	7a c0       	rjmp	.+244    	; 0x1b2a <setMeasurementTimingBudget+0x12a>
    1a36:	8e 01       	movw	r16, r28
    1a38:	0f 5f       	subi	r16, 0xFF	; 255
    1a3a:	1f 4f       	sbci	r17, 0xFF	; 255
    1a3c:	c8 01       	movw	r24, r16
    1a3e:	0e 94 b4 0b 	call	0x1768	; 0x1768 <getSequenceStepEnables>
    1a42:	c8 01       	movw	r24, r16
    1a44:	be 01       	movw	r22, r28
    1a46:	6a 5f       	subi	r22, 0xFA	; 250
    1a48:	7f 4f       	sbci	r23, 0xFF	; 255
    1a4a:	0e 94 e8 0b 	call	0x17d0	; 0x17d0 <getSequenceStepTimeouts>
    1a4e:	89 81       	ldd	r24, Y+1	; 0x01
    1a50:	88 23       	and	r24, r24
    1a52:	29 f4       	brne	.+10     	; 0x1a5e <setMeasurementTimingBudget+0x5e>
    1a54:	28 ee       	ldi	r18, 0xE8	; 232
    1a56:	38 e0       	ldi	r19, 0x08	; 8
    1a58:	40 e0       	ldi	r20, 0x00	; 0
    1a5a:	50 e0       	ldi	r21, 0x00	; 0
    1a5c:	08 c0       	rjmp	.+16     	; 0x1a6e <setMeasurementTimingBudget+0x6e>
    1a5e:	28 89       	ldd	r18, Y+16	; 0x10
    1a60:	39 89       	ldd	r19, Y+17	; 0x11
    1a62:	4a 89       	ldd	r20, Y+18	; 0x12
    1a64:	5b 89       	ldd	r21, Y+19	; 0x13
    1a66:	2a 5c       	subi	r18, 0xCA	; 202
    1a68:	34 4f       	sbci	r19, 0xF4	; 244
    1a6a:	4f 4f       	sbci	r20, 0xFF	; 255
    1a6c:	5f 4f       	sbci	r21, 0xFF	; 255
    1a6e:	8b 81       	ldd	r24, Y+3	; 0x03
    1a70:	88 23       	and	r24, r24
    1a72:	69 f0       	breq	.+26     	; 0x1a8e <setMeasurementTimingBudget+0x8e>
    1a74:	88 89       	ldd	r24, Y+16	; 0x10
    1a76:	99 89       	ldd	r25, Y+17	; 0x11
    1a78:	aa 89       	ldd	r26, Y+18	; 0x12
    1a7a:	bb 89       	ldd	r27, Y+19	; 0x13
    1a7c:	8e 54       	subi	r24, 0x4E	; 78
    1a7e:	9d 4f       	sbci	r25, 0xFD	; 253
    1a80:	af 4f       	sbci	r26, 0xFF	; 255
    1a82:	bf 4f       	sbci	r27, 0xFF	; 255
    1a84:	88 0f       	add	r24, r24
    1a86:	99 1f       	adc	r25, r25
    1a88:	aa 1f       	adc	r26, r26
    1a8a:	bb 1f       	adc	r27, r27
    1a8c:	0b c0       	rjmp	.+22     	; 0x1aa4 <setMeasurementTimingBudget+0xa4>
    1a8e:	8a 81       	ldd	r24, Y+2	; 0x02
    1a90:	88 23       	and	r24, r24
    1a92:	61 f0       	breq	.+24     	; 0x1aac <setMeasurementTimingBudget+0xac>
    1a94:	88 89       	ldd	r24, Y+16	; 0x10
    1a96:	99 89       	ldd	r25, Y+17	; 0x11
    1a98:	aa 89       	ldd	r26, Y+18	; 0x12
    1a9a:	bb 89       	ldd	r27, Y+19	; 0x13
    1a9c:	8c 56       	subi	r24, 0x6C	; 108
    1a9e:	9d 4f       	sbci	r25, 0xFD	; 253
    1aa0:	af 4f       	sbci	r26, 0xFF	; 255
    1aa2:	bf 4f       	sbci	r27, 0xFF	; 255
    1aa4:	28 0f       	add	r18, r24
    1aa6:	39 1f       	adc	r19, r25
    1aa8:	4a 1f       	adc	r20, r26
    1aaa:	5b 1f       	adc	r21, r27
    1aac:	0c 81       	ldd	r16, Y+4	; 0x04
    1aae:	00 23       	and	r16, r16
    1ab0:	61 f0       	breq	.+24     	; 0x1aca <setMeasurementTimingBudget+0xca>
    1ab2:	8c 89       	ldd	r24, Y+20	; 0x14
    1ab4:	9d 89       	ldd	r25, Y+21	; 0x15
    1ab6:	ae 89       	ldd	r26, Y+22	; 0x16
    1ab8:	bf 89       	ldd	r27, Y+23	; 0x17
    1aba:	8c 56       	subi	r24, 0x6C	; 108
    1abc:	9d 4f       	sbci	r25, 0xFD	; 253
    1abe:	af 4f       	sbci	r26, 0xFF	; 255
    1ac0:	bf 4f       	sbci	r27, 0xFF	; 255
    1ac2:	28 0f       	add	r18, r24
    1ac4:	39 1f       	adc	r19, r25
    1ac6:	4a 1f       	adc	r20, r26
    1ac8:	5b 1f       	adc	r21, r27
    1aca:	8d 81       	ldd	r24, Y+5	; 0x05
    1acc:	88 23       	and	r24, r24
    1ace:	59 f1       	breq	.+86     	; 0x1b26 <setMeasurementTimingBudget+0x126>
    1ad0:	da 01       	movw	r26, r20
    1ad2:	c9 01       	movw	r24, r18
    1ad4:	8a 5d       	subi	r24, 0xDA	; 218
    1ad6:	9d 4f       	sbci	r25, 0xFD	; 253
    1ad8:	af 4f       	sbci	r26, 0xFF	; 255
    1ada:	bf 4f       	sbci	r27, 0xFF	; 255
    1adc:	c8 16       	cp	r12, r24
    1ade:	d9 06       	cpc	r13, r25
    1ae0:	ea 06       	cpc	r14, r26
    1ae2:	fb 06       	cpc	r15, r27
    1ae4:	10 f1       	brcs	.+68     	; 0x1b2a <setMeasurementTimingBudget+0x12a>
    1ae6:	a7 01       	movw	r20, r14
    1ae8:	96 01       	movw	r18, r12
    1aea:	28 1b       	sub	r18, r24
    1aec:	39 0b       	sbc	r19, r25
    1aee:	4a 0b       	sbc	r20, r26
    1af0:	5b 0b       	sbc	r21, r27
    1af2:	ca 01       	movw	r24, r20
    1af4:	b9 01       	movw	r22, r18
    1af6:	48 85       	ldd	r20, Y+8	; 0x08
    1af8:	0e 94 7f 0a 	call	0x14fe	; 0x14fe <timeoutMicrosecondsToMclks>
    1afc:	00 23       	and	r16, r16
    1afe:	21 f0       	breq	.+8      	; 0x1b08 <setMeasurementTimingBudget+0x108>
    1b00:	8c 85       	ldd	r24, Y+12	; 0x0c
    1b02:	9d 85       	ldd	r25, Y+13	; 0x0d
    1b04:	68 0f       	add	r22, r24
    1b06:	79 1f       	adc	r23, r25
    1b08:	cb 01       	movw	r24, r22
    1b0a:	0e 94 20 0a 	call	0x1440	; 0x1440 <encodeTimeout>
    1b0e:	bc 01       	movw	r22, r24
    1b10:	81 e7       	ldi	r24, 0x71	; 113
    1b12:	0e 94 e7 0c 	call	0x19ce	; 0x19ce <writeReg16Bit>
    1b16:	c0 92 86 01 	sts	0x0186, r12
    1b1a:	d0 92 87 01 	sts	0x0187, r13
    1b1e:	e0 92 88 01 	sts	0x0188, r14
    1b22:	f0 92 89 01 	sts	0x0189, r15
    1b26:	81 e0       	ldi	r24, 0x01	; 1
    1b28:	01 c0       	rjmp	.+2      	; 0x1b2c <setMeasurementTimingBudget+0x12c>
    1b2a:	80 e0       	ldi	r24, 0x00	; 0
    1b2c:	6b 96       	adiw	r28, 0x1b	; 27
    1b2e:	0f b6       	in	r0, 0x3f	; 63
    1b30:	f8 94       	cli
    1b32:	de bf       	out	0x3e, r29	; 62
    1b34:	0f be       	out	0x3f, r0	; 63
    1b36:	cd bf       	out	0x3d, r28	; 61
    1b38:	cf 91       	pop	r28
    1b3a:	df 91       	pop	r29
    1b3c:	1f 91       	pop	r17
    1b3e:	0f 91       	pop	r16
    1b40:	ff 90       	pop	r15
    1b42:	ef 90       	pop	r14
    1b44:	df 90       	pop	r13
    1b46:	cf 90       	pop	r12
    1b48:	08 95       	ret

00001b4a <setSignalRateLimit>:
    1b4a:	ef 92       	push	r14
    1b4c:	ff 92       	push	r15
    1b4e:	0f 93       	push	r16
    1b50:	1f 93       	push	r17
    1b52:	7b 01       	movw	r14, r22
    1b54:	8c 01       	movw	r16, r24
    1b56:	20 e0       	ldi	r18, 0x00	; 0
    1b58:	30 e0       	ldi	r19, 0x00	; 0
    1b5a:	40 e0       	ldi	r20, 0x00	; 0
    1b5c:	50 e0       	ldi	r21, 0x00	; 0
    1b5e:	0e 94 79 03 	call	0x6f2	; 0x6f2 <__ltsf2>
    1b62:	87 fd       	sbrc	r24, 7
    1b64:	1c c0       	rjmp	.+56     	; 0x1b9e <setSignalRateLimit+0x54>
    1b66:	c8 01       	movw	r24, r16
    1b68:	b7 01       	movw	r22, r14
    1b6a:	28 eb       	ldi	r18, 0xB8	; 184
    1b6c:	3e ef       	ldi	r19, 0xFE	; 254
    1b6e:	4f ef       	ldi	r20, 0xFF	; 255
    1b70:	53 e4       	ldi	r21, 0x43	; 67
    1b72:	0e 94 19 03 	call	0x632	; 0x632 <__gtsf2>
    1b76:	18 16       	cp	r1, r24
    1b78:	94 f0       	brlt	.+36     	; 0x1b9e <setSignalRateLimit+0x54>
    1b7a:	c8 01       	movw	r24, r16
    1b7c:	b7 01       	movw	r22, r14
    1b7e:	20 e0       	ldi	r18, 0x00	; 0
    1b80:	30 e0       	ldi	r19, 0x00	; 0
    1b82:	40 e0       	ldi	r20, 0x00	; 0
    1b84:	53 e4       	ldi	r21, 0x43	; 67
    1b86:	0e 94 1f 02 	call	0x43e	; 0x43e <__mulsf3>
    1b8a:	0e 94 49 00 	call	0x92	; 0x92 <__fixunssfsi>
    1b8e:	9b 01       	movw	r18, r22
    1b90:	ac 01       	movw	r20, r24
    1b92:	84 e4       	ldi	r24, 0x44	; 68
    1b94:	b9 01       	movw	r22, r18
    1b96:	0e 94 e7 0c 	call	0x19ce	; 0x19ce <writeReg16Bit>
    1b9a:	81 e0       	ldi	r24, 0x01	; 1
    1b9c:	01 c0       	rjmp	.+2      	; 0x1ba0 <setSignalRateLimit+0x56>
    1b9e:	80 e0       	ldi	r24, 0x00	; 0
    1ba0:	1f 91       	pop	r17
    1ba2:	0f 91       	pop	r16
    1ba4:	ff 90       	pop	r15
    1ba6:	ef 90       	pop	r14
    1ba8:	08 95       	ret

00001baa <writeReg>:
    1baa:	0f 93       	push	r16
    1bac:	1f 93       	push	r17
    1bae:	18 2f       	mov	r17, r24
    1bb0:	06 2f       	mov	r16, r22
    1bb2:	80 91 75 01 	lds	r24, 0x0175
    1bb6:	0e 94 6f 06 	call	0xcde	; 0xcde <i2c_start>
    1bba:	81 2f       	mov	r24, r17
    1bbc:	0e 94 c6 06 	call	0xd8c	; 0xd8c <i2c_write>
    1bc0:	80 2f       	mov	r24, r16
    1bc2:	0e 94 c6 06 	call	0xd8c	; 0xd8c <i2c_write>
    1bc6:	0e 94 bb 06 	call	0xd76	; 0xd76 <i2c_stop>
    1bca:	1f 91       	pop	r17
    1bcc:	0f 91       	pop	r16
    1bce:	08 95       	ret

00001bd0 <performSingleRefCalibration>:
    1bd0:	68 2f       	mov	r22, r24
    1bd2:	61 60       	ori	r22, 0x01	; 1
    1bd4:	80 e0       	ldi	r24, 0x00	; 0
    1bd6:	0e 94 d5 0d 	call	0x1baa	; 0x1baa <writeReg>
    1bda:	0e 94 0d 07 	call	0xe1a	; 0xe1a <millis>
    1bde:	70 93 84 01 	sts	0x0184, r23
    1be2:	60 93 83 01 	sts	0x0183, r22
    1be6:	17 c0       	rjmp	.+46     	; 0x1c16 <performSingleRefCalibration+0x46>
    1be8:	80 91 80 01 	lds	r24, 0x0180
    1bec:	90 91 81 01 	lds	r25, 0x0181
    1bf0:	89 2b       	or	r24, r25
    1bf2:	89 f0       	breq	.+34     	; 0x1c16 <performSingleRefCalibration+0x46>
    1bf4:	0e 94 0d 07 	call	0xe1a	; 0xe1a <millis>
    1bf8:	20 91 83 01 	lds	r18, 0x0183
    1bfc:	30 91 84 01 	lds	r19, 0x0184
    1c00:	62 1b       	sub	r22, r18
    1c02:	73 0b       	sbc	r23, r19
    1c04:	20 91 80 01 	lds	r18, 0x0180
    1c08:	30 91 81 01 	lds	r19, 0x0181
    1c0c:	26 17       	cp	r18, r22
    1c0e:	37 07       	cpc	r19, r23
    1c10:	10 f4       	brcc	.+4      	; 0x1c16 <performSingleRefCalibration+0x46>
    1c12:	80 e0       	ldi	r24, 0x00	; 0
    1c14:	08 95       	ret
    1c16:	83 e1       	ldi	r24, 0x13	; 19
    1c18:	0e 94 9e 0b 	call	0x173c	; 0x173c <readReg>
    1c1c:	90 e0       	ldi	r25, 0x00	; 0
    1c1e:	87 70       	andi	r24, 0x07	; 7
    1c20:	90 70       	andi	r25, 0x00	; 0
    1c22:	89 2b       	or	r24, r25
    1c24:	09 f3       	breq	.-62     	; 0x1be8 <performSingleRefCalibration+0x18>
    1c26:	8b e0       	ldi	r24, 0x0B	; 11
    1c28:	61 e0       	ldi	r22, 0x01	; 1
    1c2a:	0e 94 d5 0d 	call	0x1baa	; 0x1baa <writeReg>
    1c2e:	80 e0       	ldi	r24, 0x00	; 0
    1c30:	60 e0       	ldi	r22, 0x00	; 0
    1c32:	0e 94 d5 0d 	call	0x1baa	; 0x1baa <writeReg>
    1c36:	81 e0       	ldi	r24, 0x01	; 1
    1c38:	08 95       	ret

00001c3a <getSpadInfo>:
    1c3a:	0f 93       	push	r16
    1c3c:	1f 93       	push	r17
    1c3e:	cf 93       	push	r28
    1c40:	df 93       	push	r29
    1c42:	ec 01       	movw	r28, r24
    1c44:	8b 01       	movw	r16, r22
    1c46:	80 e8       	ldi	r24, 0x80	; 128
    1c48:	61 e0       	ldi	r22, 0x01	; 1
    1c4a:	0e 94 d5 0d 	call	0x1baa	; 0x1baa <writeReg>
    1c4e:	8f ef       	ldi	r24, 0xFF	; 255
    1c50:	61 e0       	ldi	r22, 0x01	; 1
    1c52:	0e 94 d5 0d 	call	0x1baa	; 0x1baa <writeReg>
    1c56:	80 e0       	ldi	r24, 0x00	; 0
    1c58:	60 e0       	ldi	r22, 0x00	; 0
    1c5a:	0e 94 d5 0d 	call	0x1baa	; 0x1baa <writeReg>
    1c5e:	8f ef       	ldi	r24, 0xFF	; 255
    1c60:	66 e0       	ldi	r22, 0x06	; 6
    1c62:	0e 94 d5 0d 	call	0x1baa	; 0x1baa <writeReg>
    1c66:	83 e8       	ldi	r24, 0x83	; 131
    1c68:	0e 94 9e 0b 	call	0x173c	; 0x173c <readReg>
    1c6c:	68 2f       	mov	r22, r24
    1c6e:	64 60       	ori	r22, 0x04	; 4
    1c70:	83 e8       	ldi	r24, 0x83	; 131
    1c72:	0e 94 d5 0d 	call	0x1baa	; 0x1baa <writeReg>
    1c76:	8f ef       	ldi	r24, 0xFF	; 255
    1c78:	67 e0       	ldi	r22, 0x07	; 7
    1c7a:	0e 94 d5 0d 	call	0x1baa	; 0x1baa <writeReg>
    1c7e:	81 e8       	ldi	r24, 0x81	; 129
    1c80:	61 e0       	ldi	r22, 0x01	; 1
    1c82:	0e 94 d5 0d 	call	0x1baa	; 0x1baa <writeReg>
    1c86:	80 e8       	ldi	r24, 0x80	; 128
    1c88:	61 e0       	ldi	r22, 0x01	; 1
    1c8a:	0e 94 d5 0d 	call	0x1baa	; 0x1baa <writeReg>
    1c8e:	84 e9       	ldi	r24, 0x94	; 148
    1c90:	6b e6       	ldi	r22, 0x6B	; 107
    1c92:	0e 94 d5 0d 	call	0x1baa	; 0x1baa <writeReg>
    1c96:	83 e8       	ldi	r24, 0x83	; 131
    1c98:	60 e0       	ldi	r22, 0x00	; 0
    1c9a:	0e 94 d5 0d 	call	0x1baa	; 0x1baa <writeReg>
    1c9e:	0e 94 0d 07 	call	0xe1a	; 0xe1a <millis>
    1ca2:	70 93 84 01 	sts	0x0184, r23
    1ca6:	60 93 83 01 	sts	0x0183, r22
    1caa:	17 c0       	rjmp	.+46     	; 0x1cda <getSpadInfo+0xa0>
    1cac:	80 91 80 01 	lds	r24, 0x0180
    1cb0:	90 91 81 01 	lds	r25, 0x0181
    1cb4:	89 2b       	or	r24, r25
    1cb6:	89 f0       	breq	.+34     	; 0x1cda <getSpadInfo+0xa0>
    1cb8:	0e 94 0d 07 	call	0xe1a	; 0xe1a <millis>
    1cbc:	20 91 83 01 	lds	r18, 0x0183
    1cc0:	30 91 84 01 	lds	r19, 0x0184
    1cc4:	62 1b       	sub	r22, r18
    1cc6:	73 0b       	sbc	r23, r19
    1cc8:	20 91 80 01 	lds	r18, 0x0180
    1ccc:	30 91 81 01 	lds	r19, 0x0181
    1cd0:	26 17       	cp	r18, r22
    1cd2:	37 07       	cpc	r19, r23
    1cd4:	10 f4       	brcc	.+4      	; 0x1cda <getSpadInfo+0xa0>
    1cd6:	80 e0       	ldi	r24, 0x00	; 0
    1cd8:	35 c0       	rjmp	.+106    	; 0x1d44 <getSpadInfo+0x10a>
    1cda:	83 e8       	ldi	r24, 0x83	; 131
    1cdc:	0e 94 9e 0b 	call	0x173c	; 0x173c <readReg>
    1ce0:	88 23       	and	r24, r24
    1ce2:	21 f3       	breq	.-56     	; 0x1cac <getSpadInfo+0x72>
    1ce4:	83 e8       	ldi	r24, 0x83	; 131
    1ce6:	61 e0       	ldi	r22, 0x01	; 1
    1ce8:	0e 94 d5 0d 	call	0x1baa	; 0x1baa <writeReg>
    1cec:	82 e9       	ldi	r24, 0x92	; 146
    1cee:	0e 94 9e 0b 	call	0x173c	; 0x173c <readReg>
    1cf2:	98 2f       	mov	r25, r24
    1cf4:	9f 77       	andi	r25, 0x7F	; 127
    1cf6:	98 83       	st	Y, r25
    1cf8:	88 1f       	adc	r24, r24
    1cfa:	88 27       	eor	r24, r24
    1cfc:	88 1f       	adc	r24, r24
    1cfe:	f8 01       	movw	r30, r16
    1d00:	80 83       	st	Z, r24
    1d02:	81 e8       	ldi	r24, 0x81	; 129
    1d04:	60 e0       	ldi	r22, 0x00	; 0
    1d06:	0e 94 d5 0d 	call	0x1baa	; 0x1baa <writeReg>
    1d0a:	8f ef       	ldi	r24, 0xFF	; 255
    1d0c:	66 e0       	ldi	r22, 0x06	; 6
    1d0e:	0e 94 d5 0d 	call	0x1baa	; 0x1baa <writeReg>
    1d12:	83 e8       	ldi	r24, 0x83	; 131
    1d14:	0e 94 9e 0b 	call	0x173c	; 0x173c <readReg>
    1d18:	68 2f       	mov	r22, r24
    1d1a:	6b 7f       	andi	r22, 0xFB	; 251
    1d1c:	83 e8       	ldi	r24, 0x83	; 131
    1d1e:	0e 94 d5 0d 	call	0x1baa	; 0x1baa <writeReg>
    1d22:	8f ef       	ldi	r24, 0xFF	; 255
    1d24:	61 e0       	ldi	r22, 0x01	; 1
    1d26:	0e 94 d5 0d 	call	0x1baa	; 0x1baa <writeReg>
    1d2a:	80 e0       	ldi	r24, 0x00	; 0
    1d2c:	61 e0       	ldi	r22, 0x01	; 1
    1d2e:	0e 94 d5 0d 	call	0x1baa	; 0x1baa <writeReg>
    1d32:	8f ef       	ldi	r24, 0xFF	; 255
    1d34:	60 e0       	ldi	r22, 0x00	; 0
    1d36:	0e 94 d5 0d 	call	0x1baa	; 0x1baa <writeReg>
    1d3a:	80 e8       	ldi	r24, 0x80	; 128
    1d3c:	60 e0       	ldi	r22, 0x00	; 0
    1d3e:	0e 94 d5 0d 	call	0x1baa	; 0x1baa <writeReg>
    1d42:	81 e0       	ldi	r24, 0x01	; 1
    1d44:	df 91       	pop	r29
    1d46:	cf 91       	pop	r28
    1d48:	1f 91       	pop	r17
    1d4a:	0f 91       	pop	r16
    1d4c:	08 95       	ret

00001d4e <readRangeContinuousMillimeters>:
    1d4e:	ef 92       	push	r14
    1d50:	ff 92       	push	r15
    1d52:	0f 93       	push	r16
    1d54:	1f 93       	push	r17
    1d56:	df 93       	push	r29
    1d58:	cf 93       	push	r28
    1d5a:	cd b7       	in	r28, 0x3d	; 61
    1d5c:	de b7       	in	r29, 0x3e	; 62
    1d5e:	2c 97       	sbiw	r28, 0x0c	; 12
    1d60:	0f b6       	in	r0, 0x3f	; 63
    1d62:	f8 94       	cli
    1d64:	de bf       	out	0x3e, r29	; 62
    1d66:	0f be       	out	0x3f, r0	; 63
    1d68:	cd bf       	out	0x3d, r28	; 61
    1d6a:	7c 01       	movw	r14, r24
    1d6c:	0e 94 0d 07 	call	0xe1a	; 0xe1a <millis>
    1d70:	70 93 84 01 	sts	0x0184, r23
    1d74:	60 93 83 01 	sts	0x0183, r22
    1d78:	1b c0       	rjmp	.+54     	; 0x1db0 <readRangeContinuousMillimeters+0x62>
    1d7a:	80 91 80 01 	lds	r24, 0x0180
    1d7e:	90 91 81 01 	lds	r25, 0x0181
    1d82:	89 2b       	or	r24, r25
    1d84:	a9 f0       	breq	.+42     	; 0x1db0 <readRangeContinuousMillimeters+0x62>
    1d86:	0e 94 0d 07 	call	0xe1a	; 0xe1a <millis>
    1d8a:	20 91 83 01 	lds	r18, 0x0183
    1d8e:	30 91 84 01 	lds	r19, 0x0184
    1d92:	62 1b       	sub	r22, r18
    1d94:	73 0b       	sbc	r23, r19
    1d96:	20 91 80 01 	lds	r18, 0x0180
    1d9a:	30 91 81 01 	lds	r19, 0x0181
    1d9e:	26 17       	cp	r18, r22
    1da0:	37 07       	cpc	r19, r23
    1da2:	30 f4       	brcc	.+12     	; 0x1db0 <readRangeContinuousMillimeters+0x62>
    1da4:	81 e0       	ldi	r24, 0x01	; 1
    1da6:	80 93 82 01 	sts	0x0182, r24
    1daa:	0f ef       	ldi	r16, 0xFF	; 255
    1dac:	1f ef       	ldi	r17, 0xFF	; 255
    1dae:	42 c0       	rjmp	.+132    	; 0x1e34 <readRangeContinuousMillimeters+0xe6>
    1db0:	83 e1       	ldi	r24, 0x13	; 19
    1db2:	0e 94 9e 0b 	call	0x173c	; 0x173c <readReg>
    1db6:	90 e0       	ldi	r25, 0x00	; 0
    1db8:	87 70       	andi	r24, 0x07	; 7
    1dba:	90 70       	andi	r25, 0x00	; 0
    1dbc:	89 2b       	or	r24, r25
    1dbe:	e9 f2       	breq	.-70     	; 0x1d7a <readRangeContinuousMillimeters+0x2c>
    1dc0:	e1 14       	cp	r14, r1
    1dc2:	f1 04       	cpc	r15, r1
    1dc4:	29 f4       	brne	.+10     	; 0x1dd0 <readRangeContinuousMillimeters+0x82>
    1dc6:	8e e1       	ldi	r24, 0x1E	; 30
    1dc8:	0e 94 6b 0b 	call	0x16d6	; 0x16d6 <readReg16Bit>
    1dcc:	8c 01       	movw	r16, r24
    1dce:	2e c0       	rjmp	.+92     	; 0x1e2c <readRangeContinuousMillimeters+0xde>
    1dd0:	84 e1       	ldi	r24, 0x14	; 20
    1dd2:	be 01       	movw	r22, r28
    1dd4:	6f 5f       	subi	r22, 0xFF	; 255
    1dd6:	7f 4f       	sbci	r23, 0xFF	; 255
    1dd8:	4c e0       	ldi	r20, 0x0C	; 12
    1dda:	0e 94 cb 0a 	call	0x1596	; 0x1596 <readMulti>
    1dde:	89 81       	ldd	r24, Y+1	; 0x01
    1de0:	86 95       	lsr	r24
    1de2:	86 95       	lsr	r24
    1de4:	86 95       	lsr	r24
    1de6:	f7 01       	movw	r30, r14
    1de8:	80 87       	std	Z+8, r24	; 0x08
    1dea:	9b 81       	ldd	r25, Y+3	; 0x03
    1dec:	80 e0       	ldi	r24, 0x00	; 0
    1dee:	2c 81       	ldd	r18, Y+4	; 0x04
    1df0:	30 e0       	ldi	r19, 0x00	; 0
    1df2:	82 2b       	or	r24, r18
    1df4:	93 2b       	or	r25, r19
    1df6:	97 83       	std	Z+7, r25	; 0x07
    1df8:	86 83       	std	Z+6, r24	; 0x06
    1dfa:	9f 81       	ldd	r25, Y+7	; 0x07
    1dfc:	80 e0       	ldi	r24, 0x00	; 0
    1dfe:	28 85       	ldd	r18, Y+8	; 0x08
    1e00:	30 e0       	ldi	r19, 0x00	; 0
    1e02:	82 2b       	or	r24, r18
    1e04:	93 2b       	or	r25, r19
    1e06:	93 83       	std	Z+3, r25	; 0x03
    1e08:	82 83       	std	Z+2, r24	; 0x02
    1e0a:	99 85       	ldd	r25, Y+9	; 0x09
    1e0c:	80 e0       	ldi	r24, 0x00	; 0
    1e0e:	2a 85       	ldd	r18, Y+10	; 0x0a
    1e10:	30 e0       	ldi	r19, 0x00	; 0
    1e12:	82 2b       	or	r24, r18
    1e14:	93 2b       	or	r25, r19
    1e16:	95 83       	std	Z+5, r25	; 0x05
    1e18:	84 83       	std	Z+4, r24	; 0x04
    1e1a:	9b 85       	ldd	r25, Y+11	; 0x0b
    1e1c:	80 e0       	ldi	r24, 0x00	; 0
    1e1e:	2c 85       	ldd	r18, Y+12	; 0x0c
    1e20:	02 2f       	mov	r16, r18
    1e22:	10 e0       	ldi	r17, 0x00	; 0
    1e24:	08 2b       	or	r16, r24
    1e26:	19 2b       	or	r17, r25
    1e28:	11 83       	std	Z+1, r17	; 0x01
    1e2a:	00 83       	st	Z, r16
    1e2c:	8b e0       	ldi	r24, 0x0B	; 11
    1e2e:	61 e0       	ldi	r22, 0x01	; 1
    1e30:	0e 94 d5 0d 	call	0x1baa	; 0x1baa <writeReg>
    1e34:	c8 01       	movw	r24, r16
    1e36:	2c 96       	adiw	r28, 0x0c	; 12
    1e38:	0f b6       	in	r0, 0x3f	; 63
    1e3a:	f8 94       	cli
    1e3c:	de bf       	out	0x3e, r29	; 62
    1e3e:	0f be       	out	0x3f, r0	; 63
    1e40:	cd bf       	out	0x3d, r28	; 61
    1e42:	cf 91       	pop	r28
    1e44:	df 91       	pop	r29
    1e46:	1f 91       	pop	r17
    1e48:	0f 91       	pop	r16
    1e4a:	ff 90       	pop	r15
    1e4c:	ef 90       	pop	r14
    1e4e:	08 95       	ret

00001e50 <readRangeSingleMillimeters>:
    1e50:	cf 93       	push	r28
    1e52:	df 93       	push	r29
    1e54:	ec 01       	movw	r28, r24
    1e56:	80 e8       	ldi	r24, 0x80	; 128
    1e58:	61 e0       	ldi	r22, 0x01	; 1
    1e5a:	0e 94 d5 0d 	call	0x1baa	; 0x1baa <writeReg>
    1e5e:	8f ef       	ldi	r24, 0xFF	; 255
    1e60:	61 e0       	ldi	r22, 0x01	; 1
    1e62:	0e 94 d5 0d 	call	0x1baa	; 0x1baa <writeReg>
    1e66:	80 e0       	ldi	r24, 0x00	; 0
    1e68:	60 e0       	ldi	r22, 0x00	; 0
    1e6a:	0e 94 d5 0d 	call	0x1baa	; 0x1baa <writeReg>
    1e6e:	81 e9       	ldi	r24, 0x91	; 145
    1e70:	60 91 85 01 	lds	r22, 0x0185
    1e74:	0e 94 d5 0d 	call	0x1baa	; 0x1baa <writeReg>
    1e78:	80 e0       	ldi	r24, 0x00	; 0
    1e7a:	61 e0       	ldi	r22, 0x01	; 1
    1e7c:	0e 94 d5 0d 	call	0x1baa	; 0x1baa <writeReg>
    1e80:	8f ef       	ldi	r24, 0xFF	; 255
    1e82:	60 e0       	ldi	r22, 0x00	; 0
    1e84:	0e 94 d5 0d 	call	0x1baa	; 0x1baa <writeReg>
    1e88:	80 e8       	ldi	r24, 0x80	; 128
    1e8a:	60 e0       	ldi	r22, 0x00	; 0
    1e8c:	0e 94 d5 0d 	call	0x1baa	; 0x1baa <writeReg>
    1e90:	80 e0       	ldi	r24, 0x00	; 0
    1e92:	61 e0       	ldi	r22, 0x01	; 1
    1e94:	0e 94 d5 0d 	call	0x1baa	; 0x1baa <writeReg>
    1e98:	0e 94 0d 07 	call	0xe1a	; 0xe1a <millis>
    1e9c:	70 93 84 01 	sts	0x0184, r23
    1ea0:	60 93 83 01 	sts	0x0183, r22
    1ea4:	1b c0       	rjmp	.+54     	; 0x1edc <readRangeSingleMillimeters+0x8c>
    1ea6:	80 91 80 01 	lds	r24, 0x0180
    1eaa:	90 91 81 01 	lds	r25, 0x0181
    1eae:	89 2b       	or	r24, r25
    1eb0:	a9 f0       	breq	.+42     	; 0x1edc <readRangeSingleMillimeters+0x8c>
    1eb2:	0e 94 0d 07 	call	0xe1a	; 0xe1a <millis>
    1eb6:	20 91 83 01 	lds	r18, 0x0183
    1eba:	30 91 84 01 	lds	r19, 0x0184
    1ebe:	62 1b       	sub	r22, r18
    1ec0:	73 0b       	sbc	r23, r19
    1ec2:	20 91 80 01 	lds	r18, 0x0180
    1ec6:	30 91 81 01 	lds	r19, 0x0181
    1eca:	26 17       	cp	r18, r22
    1ecc:	37 07       	cpc	r19, r23
    1ece:	30 f4       	brcc	.+12     	; 0x1edc <readRangeSingleMillimeters+0x8c>
    1ed0:	81 e0       	ldi	r24, 0x01	; 1
    1ed2:	80 93 82 01 	sts	0x0182, r24
    1ed6:	2f ef       	ldi	r18, 0xFF	; 255
    1ed8:	3f ef       	ldi	r19, 0xFF	; 255
    1eda:	09 c0       	rjmp	.+18     	; 0x1eee <readRangeSingleMillimeters+0x9e>
    1edc:	80 e0       	ldi	r24, 0x00	; 0
    1ede:	0e 94 9e 0b 	call	0x173c	; 0x173c <readReg>
    1ee2:	80 fd       	sbrc	r24, 0
    1ee4:	e0 cf       	rjmp	.-64     	; 0x1ea6 <readRangeSingleMillimeters+0x56>
    1ee6:	ce 01       	movw	r24, r28
    1ee8:	0e 94 a7 0e 	call	0x1d4e	; 0x1d4e <readRangeContinuousMillimeters>
    1eec:	9c 01       	movw	r18, r24
    1eee:	c9 01       	movw	r24, r18
    1ef0:	df 91       	pop	r29
    1ef2:	cf 91       	pop	r28
    1ef4:	08 95       	ret

00001ef6 <stopContinuous>:
    1ef6:	80 e0       	ldi	r24, 0x00	; 0
    1ef8:	61 e0       	ldi	r22, 0x01	; 1
    1efa:	0e 94 d5 0d 	call	0x1baa	; 0x1baa <writeReg>
    1efe:	8f ef       	ldi	r24, 0xFF	; 255
    1f00:	61 e0       	ldi	r22, 0x01	; 1
    1f02:	0e 94 d5 0d 	call	0x1baa	; 0x1baa <writeReg>
    1f06:	80 e0       	ldi	r24, 0x00	; 0
    1f08:	60 e0       	ldi	r22, 0x00	; 0
    1f0a:	0e 94 d5 0d 	call	0x1baa	; 0x1baa <writeReg>
    1f0e:	81 e9       	ldi	r24, 0x91	; 145
    1f10:	60 e0       	ldi	r22, 0x00	; 0
    1f12:	0e 94 d5 0d 	call	0x1baa	; 0x1baa <writeReg>
    1f16:	80 e0       	ldi	r24, 0x00	; 0
    1f18:	61 e0       	ldi	r22, 0x01	; 1
    1f1a:	0e 94 d5 0d 	call	0x1baa	; 0x1baa <writeReg>
    1f1e:	8f ef       	ldi	r24, 0xFF	; 255
    1f20:	60 e0       	ldi	r22, 0x00	; 0
    1f22:	0e 94 d5 0d 	call	0x1baa	; 0x1baa <writeReg>
    1f26:	08 95       	ret

00001f28 <startContinuous>:
    1f28:	ef 92       	push	r14
    1f2a:	ff 92       	push	r15
    1f2c:	0f 93       	push	r16
    1f2e:	1f 93       	push	r17
    1f30:	7b 01       	movw	r14, r22
    1f32:	8c 01       	movw	r16, r24
    1f34:	80 e8       	ldi	r24, 0x80	; 128
    1f36:	61 e0       	ldi	r22, 0x01	; 1
    1f38:	0e 94 d5 0d 	call	0x1baa	; 0x1baa <writeReg>
    1f3c:	8f ef       	ldi	r24, 0xFF	; 255
    1f3e:	61 e0       	ldi	r22, 0x01	; 1
    1f40:	0e 94 d5 0d 	call	0x1baa	; 0x1baa <writeReg>
    1f44:	80 e0       	ldi	r24, 0x00	; 0
    1f46:	60 e0       	ldi	r22, 0x00	; 0
    1f48:	0e 94 d5 0d 	call	0x1baa	; 0x1baa <writeReg>
    1f4c:	81 e9       	ldi	r24, 0x91	; 145
    1f4e:	60 91 85 01 	lds	r22, 0x0185
    1f52:	0e 94 d5 0d 	call	0x1baa	; 0x1baa <writeReg>
    1f56:	80 e0       	ldi	r24, 0x00	; 0
    1f58:	61 e0       	ldi	r22, 0x01	; 1
    1f5a:	0e 94 d5 0d 	call	0x1baa	; 0x1baa <writeReg>
    1f5e:	8f ef       	ldi	r24, 0xFF	; 255
    1f60:	60 e0       	ldi	r22, 0x00	; 0
    1f62:	0e 94 d5 0d 	call	0x1baa	; 0x1baa <writeReg>
    1f66:	80 e8       	ldi	r24, 0x80	; 128
    1f68:	60 e0       	ldi	r22, 0x00	; 0
    1f6a:	0e 94 d5 0d 	call	0x1baa	; 0x1baa <writeReg>
    1f6e:	e1 14       	cp	r14, r1
    1f70:	f1 04       	cpc	r15, r1
    1f72:	01 05       	cpc	r16, r1
    1f74:	11 05       	cpc	r17, r1
    1f76:	b1 f0       	breq	.+44     	; 0x1fa4 <startContinuous+0x7c>
    1f78:	88 ef       	ldi	r24, 0xF8	; 248
    1f7a:	0e 94 6b 0b 	call	0x16d6	; 0x16d6 <readReg16Bit>
    1f7e:	00 97       	sbiw	r24, 0x00	; 0
    1f80:	49 f0       	breq	.+18     	; 0x1f94 <startContinuous+0x6c>
    1f82:	9c 01       	movw	r18, r24
    1f84:	40 e0       	ldi	r20, 0x00	; 0
    1f86:	50 e0       	ldi	r21, 0x00	; 0
    1f88:	c8 01       	movw	r24, r16
    1f8a:	b7 01       	movw	r22, r14
    1f8c:	0e 94 9f 13 	call	0x273e	; 0x273e <__mulsi3>
    1f90:	7b 01       	movw	r14, r22
    1f92:	8c 01       	movw	r16, r24
    1f94:	84 e0       	ldi	r24, 0x04	; 4
    1f96:	b8 01       	movw	r22, r16
    1f98:	a7 01       	movw	r20, r14
    1f9a:	0e 94 bc 0c 	call	0x1978	; 0x1978 <writeReg32Bit>
    1f9e:	80 e0       	ldi	r24, 0x00	; 0
    1fa0:	64 e0       	ldi	r22, 0x04	; 4
    1fa2:	02 c0       	rjmp	.+4      	; 0x1fa8 <startContinuous+0x80>
    1fa4:	80 e0       	ldi	r24, 0x00	; 0
    1fa6:	62 e0       	ldi	r22, 0x02	; 2
    1fa8:	0e 94 d5 0d 	call	0x1baa	; 0x1baa <writeReg>
    1fac:	1f 91       	pop	r17
    1fae:	0f 91       	pop	r16
    1fb0:	ff 90       	pop	r15
    1fb2:	ef 90       	pop	r14
    1fb4:	08 95       	ret

00001fb6 <setVcselPulsePeriod>:
    1fb6:	ef 92       	push	r14
    1fb8:	ff 92       	push	r15
    1fba:	0f 93       	push	r16
    1fbc:	1f 93       	push	r17
    1fbe:	df 93       	push	r29
    1fc0:	cf 93       	push	r28
    1fc2:	cd b7       	in	r28, 0x3d	; 61
    1fc4:	de b7       	in	r29, 0x3e	; 62
    1fc6:	6b 97       	sbiw	r28, 0x1b	; 27
    1fc8:	0f b6       	in	r0, 0x3f	; 63
    1fca:	f8 94       	cli
    1fcc:	de bf       	out	0x3e, r29	; 62
    1fce:	0f be       	out	0x3f, r0	; 63
    1fd0:	cd bf       	out	0x3d, r28	; 61
    1fd2:	f8 2e       	mov	r15, r24
    1fd4:	06 2f       	mov	r16, r22
    1fd6:	e6 2e       	mov	r14, r22
    1fd8:	e6 94       	lsr	r14
    1fda:	ea 94       	dec	r14
    1fdc:	ce 01       	movw	r24, r28
    1fde:	01 96       	adiw	r24, 0x01	; 1
    1fe0:	0e 94 b4 0b 	call	0x1768	; 0x1768 <getSequenceStepEnables>
    1fe4:	ce 01       	movw	r24, r28
    1fe6:	01 96       	adiw	r24, 0x01	; 1
    1fe8:	be 01       	movw	r22, r28
    1fea:	6a 5f       	subi	r22, 0xFA	; 250
    1fec:	7f 4f       	sbci	r23, 0xFF	; 255
    1fee:	0e 94 e8 0b 	call	0x17d0	; 0x17d0 <getSequenceStepTimeouts>
    1ff2:	ff 20       	and	r15, r15
    1ff4:	09 f0       	breq	.+2      	; 0x1ff8 <setVcselPulsePeriod+0x42>
    1ff6:	44 c0       	rjmp	.+136    	; 0x2080 <setVcselPulsePeriod+0xca>
    1ff8:	0e 30       	cpi	r16, 0x0E	; 14
    1ffa:	79 f0       	breq	.+30     	; 0x201a <setVcselPulsePeriod+0x64>
    1ffc:	0f 30       	cpi	r16, 0x0F	; 15
    1ffe:	20 f4       	brcc	.+8      	; 0x2008 <setVcselPulsePeriod+0x52>
    2000:	0c 30       	cpi	r16, 0x0C	; 12
    2002:	09 f0       	breq	.+2      	; 0x2006 <setVcselPulsePeriod+0x50>
    2004:	d4 c0       	rjmp	.+424    	; 0x21ae <setVcselPulsePeriod+0x1f8>
    2006:	06 c0       	rjmp	.+12     	; 0x2014 <setVcselPulsePeriod+0x5e>
    2008:	00 31       	cpi	r16, 0x10	; 16
    200a:	51 f0       	breq	.+20     	; 0x2020 <setVcselPulsePeriod+0x6a>
    200c:	02 31       	cpi	r16, 0x12	; 18
    200e:	09 f0       	breq	.+2      	; 0x2012 <setVcselPulsePeriod+0x5c>
    2010:	ce c0       	rjmp	.+412    	; 0x21ae <setVcselPulsePeriod+0x1f8>
    2012:	09 c0       	rjmp	.+18     	; 0x2026 <setVcselPulsePeriod+0x70>
    2014:	87 e5       	ldi	r24, 0x57	; 87
    2016:	68 e1       	ldi	r22, 0x18	; 24
    2018:	08 c0       	rjmp	.+16     	; 0x202a <setVcselPulsePeriod+0x74>
    201a:	87 e5       	ldi	r24, 0x57	; 87
    201c:	60 e3       	ldi	r22, 0x30	; 48
    201e:	05 c0       	rjmp	.+10     	; 0x202a <setVcselPulsePeriod+0x74>
    2020:	87 e5       	ldi	r24, 0x57	; 87
    2022:	60 e4       	ldi	r22, 0x40	; 64
    2024:	02 c0       	rjmp	.+4      	; 0x202a <setVcselPulsePeriod+0x74>
    2026:	87 e5       	ldi	r24, 0x57	; 87
    2028:	60 e5       	ldi	r22, 0x50	; 80
    202a:	0e 94 d5 0d 	call	0x1baa	; 0x1baa <writeReg>
    202e:	86 e5       	ldi	r24, 0x56	; 86
    2030:	68 e0       	ldi	r22, 0x08	; 8
    2032:	0e 94 d5 0d 	call	0x1baa	; 0x1baa <writeReg>
    2036:	80 e5       	ldi	r24, 0x50	; 80
    2038:	6e 2d       	mov	r22, r14
    203a:	0e 94 d5 0d 	call	0x1baa	; 0x1baa <writeReg>
    203e:	6c 89       	ldd	r22, Y+20	; 0x14
    2040:	7d 89       	ldd	r23, Y+21	; 0x15
    2042:	8e 89       	ldd	r24, Y+22	; 0x16
    2044:	9f 89       	ldd	r25, Y+23	; 0x17
    2046:	40 2f       	mov	r20, r16
    2048:	0e 94 7f 0a 	call	0x14fe	; 0x14fe <timeoutMicrosecondsToMclks>
    204c:	dc 01       	movw	r26, r24
    204e:	cb 01       	movw	r24, r22
    2050:	0e 94 20 0a 	call	0x1440	; 0x1440 <encodeTimeout>
    2054:	bc 01       	movw	r22, r24
    2056:	81 e5       	ldi	r24, 0x51	; 81
    2058:	0e 94 e7 0c 	call	0x19ce	; 0x19ce <writeReg16Bit>
    205c:	68 89       	ldd	r22, Y+16	; 0x10
    205e:	79 89       	ldd	r23, Y+17	; 0x11
    2060:	8a 89       	ldd	r24, Y+18	; 0x12
    2062:	9b 89       	ldd	r25, Y+19	; 0x13
    2064:	40 2f       	mov	r20, r16
    2066:	0e 94 7f 0a 	call	0x14fe	; 0x14fe <timeoutMicrosecondsToMclks>
    206a:	81 e0       	ldi	r24, 0x01	; 1
    206c:	61 30       	cpi	r22, 0x01	; 1
    206e:	78 07       	cpc	r23, r24
    2070:	10 f0       	brcs	.+4      	; 0x2076 <setVcselPulsePeriod+0xc0>
    2072:	6f ef       	ldi	r22, 0xFF	; 255
    2074:	01 c0       	rjmp	.+2      	; 0x2078 <setVcselPulsePeriod+0xc2>
    2076:	61 50       	subi	r22, 0x01	; 1
    2078:	86 e4       	ldi	r24, 0x46	; 70
    207a:	0e 94 d5 0d 	call	0x1baa	; 0x1baa <writeReg>
    207e:	7c c0       	rjmp	.+248    	; 0x2178 <setVcselPulsePeriod+0x1c2>
    2080:	81 e0       	ldi	r24, 0x01	; 1
    2082:	f8 16       	cp	r15, r24
    2084:	09 f0       	breq	.+2      	; 0x2088 <setVcselPulsePeriod+0xd2>
    2086:	93 c0       	rjmp	.+294    	; 0x21ae <setVcselPulsePeriod+0x1f8>
    2088:	0a 30       	cpi	r16, 0x0A	; 10
    208a:	19 f1       	breq	.+70     	; 0x20d2 <setVcselPulsePeriod+0x11c>
    208c:	0b 30       	cpi	r16, 0x0B	; 11
    208e:	20 f4       	brcc	.+8      	; 0x2098 <setVcselPulsePeriod+0xe2>
    2090:	08 30       	cpi	r16, 0x08	; 8
    2092:	09 f0       	breq	.+2      	; 0x2096 <setVcselPulsePeriod+0xe0>
    2094:	8c c0       	rjmp	.+280    	; 0x21ae <setVcselPulsePeriod+0x1f8>
    2096:	06 c0       	rjmp	.+12     	; 0x20a4 <setVcselPulsePeriod+0xee>
    2098:	0c 30       	cpi	r16, 0x0C	; 12
    209a:	51 f1       	breq	.+84     	; 0x20f0 <setVcselPulsePeriod+0x13a>
    209c:	0e 30       	cpi	r16, 0x0E	; 14
    209e:	09 f0       	breq	.+2      	; 0x20a2 <setVcselPulsePeriod+0xec>
    20a0:	86 c0       	rjmp	.+268    	; 0x21ae <setVcselPulsePeriod+0x1f8>
    20a2:	35 c0       	rjmp	.+106    	; 0x210e <setVcselPulsePeriod+0x158>
    20a4:	88 e4       	ldi	r24, 0x48	; 72
    20a6:	60 e1       	ldi	r22, 0x10	; 16
    20a8:	0e 94 d5 0d 	call	0x1baa	; 0x1baa <writeReg>
    20ac:	87 e4       	ldi	r24, 0x47	; 71
    20ae:	68 e0       	ldi	r22, 0x08	; 8
    20b0:	0e 94 d5 0d 	call	0x1baa	; 0x1baa <writeReg>
    20b4:	82 e3       	ldi	r24, 0x32	; 50
    20b6:	62 e0       	ldi	r22, 0x02	; 2
    20b8:	0e 94 d5 0d 	call	0x1baa	; 0x1baa <writeReg>
    20bc:	80 e3       	ldi	r24, 0x30	; 48
    20be:	6c e0       	ldi	r22, 0x0C	; 12
    20c0:	0e 94 d5 0d 	call	0x1baa	; 0x1baa <writeReg>
    20c4:	8f ef       	ldi	r24, 0xFF	; 255
    20c6:	61 e0       	ldi	r22, 0x01	; 1
    20c8:	0e 94 d5 0d 	call	0x1baa	; 0x1baa <writeReg>
    20cc:	80 e3       	ldi	r24, 0x30	; 48
    20ce:	60 e3       	ldi	r22, 0x30	; 48
    20d0:	34 c0       	rjmp	.+104    	; 0x213a <setVcselPulsePeriod+0x184>
    20d2:	88 e4       	ldi	r24, 0x48	; 72
    20d4:	68 e2       	ldi	r22, 0x28	; 40
    20d6:	0e 94 d5 0d 	call	0x1baa	; 0x1baa <writeReg>
    20da:	87 e4       	ldi	r24, 0x47	; 71
    20dc:	68 e0       	ldi	r22, 0x08	; 8
    20de:	0e 94 d5 0d 	call	0x1baa	; 0x1baa <writeReg>
    20e2:	82 e3       	ldi	r24, 0x32	; 50
    20e4:	63 e0       	ldi	r22, 0x03	; 3
    20e6:	0e 94 d5 0d 	call	0x1baa	; 0x1baa <writeReg>
    20ea:	80 e3       	ldi	r24, 0x30	; 48
    20ec:	69 e0       	ldi	r22, 0x09	; 9
    20ee:	1d c0       	rjmp	.+58     	; 0x212a <setVcselPulsePeriod+0x174>
    20f0:	88 e4       	ldi	r24, 0x48	; 72
    20f2:	68 e3       	ldi	r22, 0x38	; 56
    20f4:	0e 94 d5 0d 	call	0x1baa	; 0x1baa <writeReg>
    20f8:	87 e4       	ldi	r24, 0x47	; 71
    20fa:	68 e0       	ldi	r22, 0x08	; 8
    20fc:	0e 94 d5 0d 	call	0x1baa	; 0x1baa <writeReg>
    2100:	82 e3       	ldi	r24, 0x32	; 50
    2102:	63 e0       	ldi	r22, 0x03	; 3
    2104:	0e 94 d5 0d 	call	0x1baa	; 0x1baa <writeReg>
    2108:	80 e3       	ldi	r24, 0x30	; 48
    210a:	68 e0       	ldi	r22, 0x08	; 8
    210c:	0e c0       	rjmp	.+28     	; 0x212a <setVcselPulsePeriod+0x174>
    210e:	88 e4       	ldi	r24, 0x48	; 72
    2110:	68 e4       	ldi	r22, 0x48	; 72
    2112:	0e 94 d5 0d 	call	0x1baa	; 0x1baa <writeReg>
    2116:	87 e4       	ldi	r24, 0x47	; 71
    2118:	68 e0       	ldi	r22, 0x08	; 8
    211a:	0e 94 d5 0d 	call	0x1baa	; 0x1baa <writeReg>
    211e:	82 e3       	ldi	r24, 0x32	; 50
    2120:	63 e0       	ldi	r22, 0x03	; 3
    2122:	0e 94 d5 0d 	call	0x1baa	; 0x1baa <writeReg>
    2126:	80 e3       	ldi	r24, 0x30	; 48
    2128:	67 e0       	ldi	r22, 0x07	; 7
    212a:	0e 94 d5 0d 	call	0x1baa	; 0x1baa <writeReg>
    212e:	8f ef       	ldi	r24, 0xFF	; 255
    2130:	61 e0       	ldi	r22, 0x01	; 1
    2132:	0e 94 d5 0d 	call	0x1baa	; 0x1baa <writeReg>
    2136:	80 e3       	ldi	r24, 0x30	; 48
    2138:	60 e2       	ldi	r22, 0x20	; 32
    213a:	0e 94 d5 0d 	call	0x1baa	; 0x1baa <writeReg>
    213e:	8f ef       	ldi	r24, 0xFF	; 255
    2140:	60 e0       	ldi	r22, 0x00	; 0
    2142:	0e 94 d5 0d 	call	0x1baa	; 0x1baa <writeReg>
    2146:	80 e7       	ldi	r24, 0x70	; 112
    2148:	6e 2d       	mov	r22, r14
    214a:	0e 94 d5 0d 	call	0x1baa	; 0x1baa <writeReg>
    214e:	68 8d       	ldd	r22, Y+24	; 0x18
    2150:	79 8d       	ldd	r23, Y+25	; 0x19
    2152:	8a 8d       	ldd	r24, Y+26	; 0x1a
    2154:	9b 8d       	ldd	r25, Y+27	; 0x1b
    2156:	40 2f       	mov	r20, r16
    2158:	0e 94 7f 0a 	call	0x14fe	; 0x14fe <timeoutMicrosecondsToMclks>
    215c:	8c 81       	ldd	r24, Y+4	; 0x04
    215e:	88 23       	and	r24, r24
    2160:	21 f0       	breq	.+8      	; 0x216a <setVcselPulsePeriod+0x1b4>
    2162:	8c 85       	ldd	r24, Y+12	; 0x0c
    2164:	9d 85       	ldd	r25, Y+13	; 0x0d
    2166:	68 0f       	add	r22, r24
    2168:	79 1f       	adc	r23, r25
    216a:	cb 01       	movw	r24, r22
    216c:	0e 94 20 0a 	call	0x1440	; 0x1440 <encodeTimeout>
    2170:	bc 01       	movw	r22, r24
    2172:	81 e7       	ldi	r24, 0x71	; 113
    2174:	0e 94 e7 0c 	call	0x19ce	; 0x19ce <writeReg16Bit>
    2178:	60 91 86 01 	lds	r22, 0x0186
    217c:	70 91 87 01 	lds	r23, 0x0187
    2180:	80 91 88 01 	lds	r24, 0x0188
    2184:	90 91 89 01 	lds	r25, 0x0189
    2188:	0e 94 00 0d 	call	0x1a00	; 0x1a00 <setMeasurementTimingBudget>
    218c:	81 e0       	ldi	r24, 0x01	; 1
    218e:	0e 94 9e 0b 	call	0x173c	; 0x173c <readReg>
    2192:	18 2f       	mov	r17, r24
    2194:	81 e0       	ldi	r24, 0x01	; 1
    2196:	62 e0       	ldi	r22, 0x02	; 2
    2198:	0e 94 d5 0d 	call	0x1baa	; 0x1baa <writeReg>
    219c:	80 e0       	ldi	r24, 0x00	; 0
    219e:	0e 94 e8 0d 	call	0x1bd0	; 0x1bd0 <performSingleRefCalibration>
    21a2:	81 e0       	ldi	r24, 0x01	; 1
    21a4:	61 2f       	mov	r22, r17
    21a6:	0e 94 d5 0d 	call	0x1baa	; 0x1baa <writeReg>
    21aa:	81 e0       	ldi	r24, 0x01	; 1
    21ac:	01 c0       	rjmp	.+2      	; 0x21b0 <setVcselPulsePeriod+0x1fa>
    21ae:	80 e0       	ldi	r24, 0x00	; 0
    21b0:	6b 96       	adiw	r28, 0x1b	; 27
    21b2:	0f b6       	in	r0, 0x3f	; 63
    21b4:	f8 94       	cli
    21b6:	de bf       	out	0x3e, r29	; 62
    21b8:	0f be       	out	0x3f, r0	; 63
    21ba:	cd bf       	out	0x3d, r28	; 61
    21bc:	cf 91       	pop	r28
    21be:	df 91       	pop	r29
    21c0:	1f 91       	pop	r17
    21c2:	0f 91       	pop	r16
    21c4:	ff 90       	pop	r15
    21c6:	ef 90       	pop	r14
    21c8:	08 95       	ret

000021ca <initVL53L0X>:
    21ca:	ff 92       	push	r15
    21cc:	0f 93       	push	r16
    21ce:	1f 93       	push	r17
    21d0:	df 93       	push	r29
    21d2:	cf 93       	push	r28
    21d4:	cd b7       	in	r28, 0x3d	; 61
    21d6:	de b7       	in	r29, 0x3e	; 62
    21d8:	28 97       	sbiw	r28, 0x08	; 8
    21da:	0f b6       	in	r0, 0x3f	; 63
    21dc:	f8 94       	cli
    21de:	de bf       	out	0x3e, r29	; 62
    21e0:	0f be       	out	0x3f, r0	; 63
    21e2:	cd bf       	out	0x3d, r28	; 61
    21e4:	88 23       	and	r24, r24
    21e6:	41 f0       	breq	.+16     	; 0x21f8 <initVL53L0X+0x2e>
    21e8:	89 e8       	ldi	r24, 0x89	; 137
    21ea:	0e 94 9e 0b 	call	0x173c	; 0x173c <readReg>
    21ee:	68 2f       	mov	r22, r24
    21f0:	61 60       	ori	r22, 0x01	; 1
    21f2:	89 e8       	ldi	r24, 0x89	; 137
    21f4:	0e 94 d5 0d 	call	0x1baa	; 0x1baa <writeReg>
    21f8:	88 e8       	ldi	r24, 0x88	; 136
    21fa:	60 e0       	ldi	r22, 0x00	; 0
    21fc:	0e 94 d5 0d 	call	0x1baa	; 0x1baa <writeReg>
    2200:	80 e8       	ldi	r24, 0x80	; 128
    2202:	61 e0       	ldi	r22, 0x01	; 1
    2204:	0e 94 d5 0d 	call	0x1baa	; 0x1baa <writeReg>
    2208:	8f ef       	ldi	r24, 0xFF	; 255
    220a:	61 e0       	ldi	r22, 0x01	; 1
    220c:	0e 94 d5 0d 	call	0x1baa	; 0x1baa <writeReg>
    2210:	80 e0       	ldi	r24, 0x00	; 0
    2212:	60 e0       	ldi	r22, 0x00	; 0
    2214:	0e 94 d5 0d 	call	0x1baa	; 0x1baa <writeReg>
    2218:	81 e9       	ldi	r24, 0x91	; 145
    221a:	0e 94 9e 0b 	call	0x173c	; 0x173c <readReg>
    221e:	80 93 85 01 	sts	0x0185, r24
    2222:	80 e0       	ldi	r24, 0x00	; 0
    2224:	61 e0       	ldi	r22, 0x01	; 1
    2226:	0e 94 d5 0d 	call	0x1baa	; 0x1baa <writeReg>
    222a:	8f ef       	ldi	r24, 0xFF	; 255
    222c:	60 e0       	ldi	r22, 0x00	; 0
    222e:	0e 94 d5 0d 	call	0x1baa	; 0x1baa <writeReg>
    2232:	80 e8       	ldi	r24, 0x80	; 128
    2234:	60 e0       	ldi	r22, 0x00	; 0
    2236:	0e 94 d5 0d 	call	0x1baa	; 0x1baa <writeReg>
    223a:	80 e6       	ldi	r24, 0x60	; 96
    223c:	0e 94 9e 0b 	call	0x173c	; 0x173c <readReg>
    2240:	68 2f       	mov	r22, r24
    2242:	62 61       	ori	r22, 0x12	; 18
    2244:	80 e6       	ldi	r24, 0x60	; 96
    2246:	0e 94 d5 0d 	call	0x1baa	; 0x1baa <writeReg>
    224a:	60 e0       	ldi	r22, 0x00	; 0
    224c:	70 e0       	ldi	r23, 0x00	; 0
    224e:	80 e8       	ldi	r24, 0x80	; 128
    2250:	9e e3       	ldi	r25, 0x3E	; 62
    2252:	0e 94 a5 0d 	call	0x1b4a	; 0x1b4a <setSignalRateLimit>
    2256:	81 e0       	ldi	r24, 0x01	; 1
    2258:	6f ef       	ldi	r22, 0xFF	; 255
    225a:	0e 94 d5 0d 	call	0x1baa	; 0x1baa <writeReg>
    225e:	ce 01       	movw	r24, r28
    2260:	01 96       	adiw	r24, 0x01	; 1
    2262:	be 01       	movw	r22, r28
    2264:	6e 5f       	subi	r22, 0xFE	; 254
    2266:	7f 4f       	sbci	r23, 0xFF	; 255
    2268:	0e 94 1d 0e 	call	0x1c3a	; 0x1c3a <getSpadInfo>
    226c:	88 23       	and	r24, r24
    226e:	09 f4       	brne	.+2      	; 0x2272 <initVL53L0X+0xa8>
    2270:	e1 c1       	rjmp	.+962    	; 0x2634 <initVL53L0X+0x46a>
    2272:	80 eb       	ldi	r24, 0xB0	; 176
    2274:	be 01       	movw	r22, r28
    2276:	6d 5f       	subi	r22, 0xFD	; 253
    2278:	7f 4f       	sbci	r23, 0xFF	; 255
    227a:	46 e0       	ldi	r20, 0x06	; 6
    227c:	0e 94 cb 0a 	call	0x1596	; 0x1596 <readMulti>
    2280:	8f ef       	ldi	r24, 0xFF	; 255
    2282:	61 e0       	ldi	r22, 0x01	; 1
    2284:	0e 94 d5 0d 	call	0x1baa	; 0x1baa <writeReg>
    2288:	8f e4       	ldi	r24, 0x4F	; 79
    228a:	60 e0       	ldi	r22, 0x00	; 0
    228c:	0e 94 d5 0d 	call	0x1baa	; 0x1baa <writeReg>
    2290:	8e e4       	ldi	r24, 0x4E	; 78
    2292:	6c e2       	ldi	r22, 0x2C	; 44
    2294:	0e 94 d5 0d 	call	0x1baa	; 0x1baa <writeReg>
    2298:	8f ef       	ldi	r24, 0xFF	; 255
    229a:	60 e0       	ldi	r22, 0x00	; 0
    229c:	0e 94 d5 0d 	call	0x1baa	; 0x1baa <writeReg>
    22a0:	86 eb       	ldi	r24, 0xB6	; 182
    22a2:	64 eb       	ldi	r22, 0xB4	; 180
    22a4:	0e 94 d5 0d 	call	0x1baa	; 0x1baa <writeReg>
    22a8:	8a 81       	ldd	r24, Y+2	; 0x02
    22aa:	88 23       	and	r24, r24
    22ac:	11 f4       	brne	.+4      	; 0x22b2 <initVL53L0X+0xe8>
    22ae:	70 e0       	ldi	r23, 0x00	; 0
    22b0:	01 c0       	rjmp	.+2      	; 0x22b4 <initVL53L0X+0xea>
    22b2:	7c e0       	ldi	r23, 0x0C	; 12
    22b4:	f9 80       	ldd	r15, Y+1	; 0x01
    22b6:	60 e0       	ldi	r22, 0x00	; 0
    22b8:	40 e0       	ldi	r20, 0x00	; 0
    22ba:	50 e0       	ldi	r21, 0x00	; 0
    22bc:	de 01       	movw	r26, r28
    22be:	13 96       	adiw	r26, 0x03	; 3
    22c0:	01 e0       	ldi	r16, 0x01	; 1
    22c2:	10 e0       	ldi	r17, 0x00	; 0
    22c4:	84 2f       	mov	r24, r20
    22c6:	47 17       	cp	r20, r23
    22c8:	10 f0       	brcs	.+4      	; 0x22ce <initVL53L0X+0x104>
    22ca:	6f 15       	cp	r22, r15
    22cc:	a9 f4       	brne	.+42     	; 0x22f8 <initVL53L0X+0x12e>
    22ce:	86 95       	lsr	r24
    22d0:	86 95       	lsr	r24
    22d2:	86 95       	lsr	r24
    22d4:	fd 01       	movw	r30, r26
    22d6:	e8 0f       	add	r30, r24
    22d8:	f1 1d       	adc	r31, r1
    22da:	ca 01       	movw	r24, r20
    22dc:	87 70       	andi	r24, 0x07	; 7
    22de:	90 70       	andi	r25, 0x00	; 0
    22e0:	98 01       	movw	r18, r16
    22e2:	02 c0       	rjmp	.+4      	; 0x22e8 <initVL53L0X+0x11e>
    22e4:	22 0f       	add	r18, r18
    22e6:	33 1f       	adc	r19, r19
    22e8:	8a 95       	dec	r24
    22ea:	e2 f7       	brpl	.-8      	; 0x22e4 <initVL53L0X+0x11a>
    22ec:	c9 01       	movw	r24, r18
    22ee:	80 95       	com	r24
    22f0:	20 81       	ld	r18, Z
    22f2:	82 23       	and	r24, r18
    22f4:	80 83       	st	Z, r24
    22f6:	12 c0       	rjmp	.+36     	; 0x231c <initVL53L0X+0x152>
    22f8:	86 95       	lsr	r24
    22fa:	86 95       	lsr	r24
    22fc:	86 95       	lsr	r24
    22fe:	fd 01       	movw	r30, r26
    2300:	e8 0f       	add	r30, r24
    2302:	f1 1d       	adc	r31, r1
    2304:	80 81       	ld	r24, Z
    2306:	90 e0       	ldi	r25, 0x00	; 0
    2308:	9a 01       	movw	r18, r20
    230a:	27 70       	andi	r18, 0x07	; 7
    230c:	30 70       	andi	r19, 0x00	; 0
    230e:	02 c0       	rjmp	.+4      	; 0x2314 <initVL53L0X+0x14a>
    2310:	95 95       	asr	r25
    2312:	87 95       	ror	r24
    2314:	2a 95       	dec	r18
    2316:	e2 f7       	brpl	.-8      	; 0x2310 <initVL53L0X+0x146>
    2318:	80 fd       	sbrc	r24, 0
    231a:	6f 5f       	subi	r22, 0xFF	; 255
    231c:	4f 5f       	subi	r20, 0xFF	; 255
    231e:	5f 4f       	sbci	r21, 0xFF	; 255
    2320:	40 33       	cpi	r20, 0x30	; 48
    2322:	51 05       	cpc	r21, r1
    2324:	79 f6       	brne	.-98     	; 0x22c4 <initVL53L0X+0xfa>
    2326:	80 eb       	ldi	r24, 0xB0	; 176
    2328:	be 01       	movw	r22, r28
    232a:	6d 5f       	subi	r22, 0xFD	; 253
    232c:	7f 4f       	sbci	r23, 0xFF	; 255
    232e:	46 e0       	ldi	r20, 0x06	; 6
    2330:	0e 94 f7 0a 	call	0x15ee	; 0x15ee <writeMulti>
    2334:	8f ef       	ldi	r24, 0xFF	; 255
    2336:	61 e0       	ldi	r22, 0x01	; 1
    2338:	0e 94 d5 0d 	call	0x1baa	; 0x1baa <writeReg>
    233c:	80 e0       	ldi	r24, 0x00	; 0
    233e:	60 e0       	ldi	r22, 0x00	; 0
    2340:	0e 94 d5 0d 	call	0x1baa	; 0x1baa <writeReg>
    2344:	8f ef       	ldi	r24, 0xFF	; 255
    2346:	60 e0       	ldi	r22, 0x00	; 0
    2348:	0e 94 d5 0d 	call	0x1baa	; 0x1baa <writeReg>
    234c:	89 e0       	ldi	r24, 0x09	; 9
    234e:	60 e0       	ldi	r22, 0x00	; 0
    2350:	0e 94 d5 0d 	call	0x1baa	; 0x1baa <writeReg>
    2354:	80 e1       	ldi	r24, 0x10	; 16
    2356:	60 e0       	ldi	r22, 0x00	; 0
    2358:	0e 94 d5 0d 	call	0x1baa	; 0x1baa <writeReg>
    235c:	81 e1       	ldi	r24, 0x11	; 17
    235e:	60 e0       	ldi	r22, 0x00	; 0
    2360:	0e 94 d5 0d 	call	0x1baa	; 0x1baa <writeReg>
    2364:	84 e2       	ldi	r24, 0x24	; 36
    2366:	61 e0       	ldi	r22, 0x01	; 1
    2368:	0e 94 d5 0d 	call	0x1baa	; 0x1baa <writeReg>
    236c:	85 e2       	ldi	r24, 0x25	; 37
    236e:	6f ef       	ldi	r22, 0xFF	; 255
    2370:	0e 94 d5 0d 	call	0x1baa	; 0x1baa <writeReg>
    2374:	85 e7       	ldi	r24, 0x75	; 117
    2376:	60 e0       	ldi	r22, 0x00	; 0
    2378:	0e 94 d5 0d 	call	0x1baa	; 0x1baa <writeReg>
    237c:	8f ef       	ldi	r24, 0xFF	; 255
    237e:	61 e0       	ldi	r22, 0x01	; 1
    2380:	0e 94 d5 0d 	call	0x1baa	; 0x1baa <writeReg>
    2384:	8e e4       	ldi	r24, 0x4E	; 78
    2386:	6c e2       	ldi	r22, 0x2C	; 44
    2388:	0e 94 d5 0d 	call	0x1baa	; 0x1baa <writeReg>
    238c:	88 e4       	ldi	r24, 0x48	; 72
    238e:	60 e0       	ldi	r22, 0x00	; 0
    2390:	0e 94 d5 0d 	call	0x1baa	; 0x1baa <writeReg>
    2394:	80 e3       	ldi	r24, 0x30	; 48
    2396:	60 e2       	ldi	r22, 0x20	; 32
    2398:	0e 94 d5 0d 	call	0x1baa	; 0x1baa <writeReg>
    239c:	8f ef       	ldi	r24, 0xFF	; 255
    239e:	60 e0       	ldi	r22, 0x00	; 0
    23a0:	0e 94 d5 0d 	call	0x1baa	; 0x1baa <writeReg>
    23a4:	80 e3       	ldi	r24, 0x30	; 48
    23a6:	69 e0       	ldi	r22, 0x09	; 9
    23a8:	0e 94 d5 0d 	call	0x1baa	; 0x1baa <writeReg>
    23ac:	84 e5       	ldi	r24, 0x54	; 84
    23ae:	60 e0       	ldi	r22, 0x00	; 0
    23b0:	0e 94 d5 0d 	call	0x1baa	; 0x1baa <writeReg>
    23b4:	81 e3       	ldi	r24, 0x31	; 49
    23b6:	64 e0       	ldi	r22, 0x04	; 4
    23b8:	0e 94 d5 0d 	call	0x1baa	; 0x1baa <writeReg>
    23bc:	82 e3       	ldi	r24, 0x32	; 50
    23be:	63 e0       	ldi	r22, 0x03	; 3
    23c0:	0e 94 d5 0d 	call	0x1baa	; 0x1baa <writeReg>
    23c4:	80 e4       	ldi	r24, 0x40	; 64
    23c6:	63 e8       	ldi	r22, 0x83	; 131
    23c8:	0e 94 d5 0d 	call	0x1baa	; 0x1baa <writeReg>
    23cc:	86 e4       	ldi	r24, 0x46	; 70
    23ce:	65 e2       	ldi	r22, 0x25	; 37
    23d0:	0e 94 d5 0d 	call	0x1baa	; 0x1baa <writeReg>
    23d4:	80 e6       	ldi	r24, 0x60	; 96
    23d6:	60 e0       	ldi	r22, 0x00	; 0
    23d8:	0e 94 d5 0d 	call	0x1baa	; 0x1baa <writeReg>
    23dc:	87 e2       	ldi	r24, 0x27	; 39
    23de:	60 e0       	ldi	r22, 0x00	; 0
    23e0:	0e 94 d5 0d 	call	0x1baa	; 0x1baa <writeReg>
    23e4:	80 e5       	ldi	r24, 0x50	; 80
    23e6:	66 e0       	ldi	r22, 0x06	; 6
    23e8:	0e 94 d5 0d 	call	0x1baa	; 0x1baa <writeReg>
    23ec:	81 e5       	ldi	r24, 0x51	; 81
    23ee:	60 e0       	ldi	r22, 0x00	; 0
    23f0:	0e 94 d5 0d 	call	0x1baa	; 0x1baa <writeReg>
    23f4:	82 e5       	ldi	r24, 0x52	; 82
    23f6:	66 e9       	ldi	r22, 0x96	; 150
    23f8:	0e 94 d5 0d 	call	0x1baa	; 0x1baa <writeReg>
    23fc:	86 e5       	ldi	r24, 0x56	; 86
    23fe:	68 e0       	ldi	r22, 0x08	; 8
    2400:	0e 94 d5 0d 	call	0x1baa	; 0x1baa <writeReg>
    2404:	87 e5       	ldi	r24, 0x57	; 87
    2406:	60 e3       	ldi	r22, 0x30	; 48
    2408:	0e 94 d5 0d 	call	0x1baa	; 0x1baa <writeReg>
    240c:	81 e6       	ldi	r24, 0x61	; 97
    240e:	60 e0       	ldi	r22, 0x00	; 0
    2410:	0e 94 d5 0d 	call	0x1baa	; 0x1baa <writeReg>
    2414:	82 e6       	ldi	r24, 0x62	; 98
    2416:	60 e0       	ldi	r22, 0x00	; 0
    2418:	0e 94 d5 0d 	call	0x1baa	; 0x1baa <writeReg>
    241c:	84 e6       	ldi	r24, 0x64	; 100
    241e:	60 e0       	ldi	r22, 0x00	; 0
    2420:	0e 94 d5 0d 	call	0x1baa	; 0x1baa <writeReg>
    2424:	85 e6       	ldi	r24, 0x65	; 101
    2426:	60 e0       	ldi	r22, 0x00	; 0
    2428:	0e 94 d5 0d 	call	0x1baa	; 0x1baa <writeReg>
    242c:	86 e6       	ldi	r24, 0x66	; 102
    242e:	60 ea       	ldi	r22, 0xA0	; 160
    2430:	0e 94 d5 0d 	call	0x1baa	; 0x1baa <writeReg>
    2434:	8f ef       	ldi	r24, 0xFF	; 255
    2436:	61 e0       	ldi	r22, 0x01	; 1
    2438:	0e 94 d5 0d 	call	0x1baa	; 0x1baa <writeReg>
    243c:	82 e2       	ldi	r24, 0x22	; 34
    243e:	62 e3       	ldi	r22, 0x32	; 50
    2440:	0e 94 d5 0d 	call	0x1baa	; 0x1baa <writeReg>
    2444:	87 e4       	ldi	r24, 0x47	; 71
    2446:	64 e1       	ldi	r22, 0x14	; 20
    2448:	0e 94 d5 0d 	call	0x1baa	; 0x1baa <writeReg>
    244c:	89 e4       	ldi	r24, 0x49	; 73
    244e:	6f ef       	ldi	r22, 0xFF	; 255
    2450:	0e 94 d5 0d 	call	0x1baa	; 0x1baa <writeReg>
    2454:	8a e4       	ldi	r24, 0x4A	; 74
    2456:	60 e0       	ldi	r22, 0x00	; 0
    2458:	0e 94 d5 0d 	call	0x1baa	; 0x1baa <writeReg>
    245c:	8f ef       	ldi	r24, 0xFF	; 255
    245e:	60 e0       	ldi	r22, 0x00	; 0
    2460:	0e 94 d5 0d 	call	0x1baa	; 0x1baa <writeReg>
    2464:	8a e7       	ldi	r24, 0x7A	; 122
    2466:	6a e0       	ldi	r22, 0x0A	; 10
    2468:	0e 94 d5 0d 	call	0x1baa	; 0x1baa <writeReg>
    246c:	8b e7       	ldi	r24, 0x7B	; 123
    246e:	60 e0       	ldi	r22, 0x00	; 0
    2470:	0e 94 d5 0d 	call	0x1baa	; 0x1baa <writeReg>
    2474:	88 e7       	ldi	r24, 0x78	; 120
    2476:	61 e2       	ldi	r22, 0x21	; 33
    2478:	0e 94 d5 0d 	call	0x1baa	; 0x1baa <writeReg>
    247c:	8f ef       	ldi	r24, 0xFF	; 255
    247e:	61 e0       	ldi	r22, 0x01	; 1
    2480:	0e 94 d5 0d 	call	0x1baa	; 0x1baa <writeReg>
    2484:	83 e2       	ldi	r24, 0x23	; 35
    2486:	64 e3       	ldi	r22, 0x34	; 52
    2488:	0e 94 d5 0d 	call	0x1baa	; 0x1baa <writeReg>
    248c:	82 e4       	ldi	r24, 0x42	; 66
    248e:	60 e0       	ldi	r22, 0x00	; 0
    2490:	0e 94 d5 0d 	call	0x1baa	; 0x1baa <writeReg>
    2494:	84 e4       	ldi	r24, 0x44	; 68
    2496:	6f ef       	ldi	r22, 0xFF	; 255
    2498:	0e 94 d5 0d 	call	0x1baa	; 0x1baa <writeReg>
    249c:	85 e4       	ldi	r24, 0x45	; 69
    249e:	66 e2       	ldi	r22, 0x26	; 38
    24a0:	0e 94 d5 0d 	call	0x1baa	; 0x1baa <writeReg>
    24a4:	86 e4       	ldi	r24, 0x46	; 70
    24a6:	65 e0       	ldi	r22, 0x05	; 5
    24a8:	0e 94 d5 0d 	call	0x1baa	; 0x1baa <writeReg>
    24ac:	80 e4       	ldi	r24, 0x40	; 64
    24ae:	60 e4       	ldi	r22, 0x40	; 64
    24b0:	0e 94 d5 0d 	call	0x1baa	; 0x1baa <writeReg>
    24b4:	8e e0       	ldi	r24, 0x0E	; 14
    24b6:	66 e0       	ldi	r22, 0x06	; 6
    24b8:	0e 94 d5 0d 	call	0x1baa	; 0x1baa <writeReg>
    24bc:	80 e2       	ldi	r24, 0x20	; 32
    24be:	6a e1       	ldi	r22, 0x1A	; 26
    24c0:	0e 94 d5 0d 	call	0x1baa	; 0x1baa <writeReg>
    24c4:	83 e4       	ldi	r24, 0x43	; 67
    24c6:	60 e4       	ldi	r22, 0x40	; 64
    24c8:	0e 94 d5 0d 	call	0x1baa	; 0x1baa <writeReg>
    24cc:	8f ef       	ldi	r24, 0xFF	; 255
    24ce:	60 e0       	ldi	r22, 0x00	; 0
    24d0:	0e 94 d5 0d 	call	0x1baa	; 0x1baa <writeReg>
    24d4:	84 e3       	ldi	r24, 0x34	; 52
    24d6:	63 e0       	ldi	r22, 0x03	; 3
    24d8:	0e 94 d5 0d 	call	0x1baa	; 0x1baa <writeReg>
    24dc:	85 e3       	ldi	r24, 0x35	; 53
    24de:	64 e4       	ldi	r22, 0x44	; 68
    24e0:	0e 94 d5 0d 	call	0x1baa	; 0x1baa <writeReg>
    24e4:	8f ef       	ldi	r24, 0xFF	; 255
    24e6:	61 e0       	ldi	r22, 0x01	; 1
    24e8:	0e 94 d5 0d 	call	0x1baa	; 0x1baa <writeReg>
    24ec:	81 e3       	ldi	r24, 0x31	; 49
    24ee:	64 e0       	ldi	r22, 0x04	; 4
    24f0:	0e 94 d5 0d 	call	0x1baa	; 0x1baa <writeReg>
    24f4:	8b e4       	ldi	r24, 0x4B	; 75
    24f6:	69 e0       	ldi	r22, 0x09	; 9
    24f8:	0e 94 d5 0d 	call	0x1baa	; 0x1baa <writeReg>
    24fc:	8c e4       	ldi	r24, 0x4C	; 76
    24fe:	65 e0       	ldi	r22, 0x05	; 5
    2500:	0e 94 d5 0d 	call	0x1baa	; 0x1baa <writeReg>
    2504:	8d e4       	ldi	r24, 0x4D	; 77
    2506:	64 e0       	ldi	r22, 0x04	; 4
    2508:	0e 94 d5 0d 	call	0x1baa	; 0x1baa <writeReg>
    250c:	8f ef       	ldi	r24, 0xFF	; 255
    250e:	60 e0       	ldi	r22, 0x00	; 0
    2510:	0e 94 d5 0d 	call	0x1baa	; 0x1baa <writeReg>
    2514:	84 e4       	ldi	r24, 0x44	; 68
    2516:	60 e0       	ldi	r22, 0x00	; 0
    2518:	0e 94 d5 0d 	call	0x1baa	; 0x1baa <writeReg>
    251c:	85 e4       	ldi	r24, 0x45	; 69
    251e:	60 e2       	ldi	r22, 0x20	; 32
    2520:	0e 94 d5 0d 	call	0x1baa	; 0x1baa <writeReg>
    2524:	87 e4       	ldi	r24, 0x47	; 71
    2526:	68 e0       	ldi	r22, 0x08	; 8
    2528:	0e 94 d5 0d 	call	0x1baa	; 0x1baa <writeReg>
    252c:	88 e4       	ldi	r24, 0x48	; 72
    252e:	68 e2       	ldi	r22, 0x28	; 40
    2530:	0e 94 d5 0d 	call	0x1baa	; 0x1baa <writeReg>
    2534:	87 e6       	ldi	r24, 0x67	; 103
    2536:	60 e0       	ldi	r22, 0x00	; 0
    2538:	0e 94 d5 0d 	call	0x1baa	; 0x1baa <writeReg>
    253c:	80 e7       	ldi	r24, 0x70	; 112
    253e:	64 e0       	ldi	r22, 0x04	; 4
    2540:	0e 94 d5 0d 	call	0x1baa	; 0x1baa <writeReg>
    2544:	81 e7       	ldi	r24, 0x71	; 113
    2546:	61 e0       	ldi	r22, 0x01	; 1
    2548:	0e 94 d5 0d 	call	0x1baa	; 0x1baa <writeReg>
    254c:	82 e7       	ldi	r24, 0x72	; 114
    254e:	6e ef       	ldi	r22, 0xFE	; 254
    2550:	0e 94 d5 0d 	call	0x1baa	; 0x1baa <writeReg>
    2554:	86 e7       	ldi	r24, 0x76	; 118
    2556:	60 e0       	ldi	r22, 0x00	; 0
    2558:	0e 94 d5 0d 	call	0x1baa	; 0x1baa <writeReg>
    255c:	87 e7       	ldi	r24, 0x77	; 119
    255e:	60 e0       	ldi	r22, 0x00	; 0
    2560:	0e 94 d5 0d 	call	0x1baa	; 0x1baa <writeReg>
    2564:	8f ef       	ldi	r24, 0xFF	; 255
    2566:	61 e0       	ldi	r22, 0x01	; 1
    2568:	0e 94 d5 0d 	call	0x1baa	; 0x1baa <writeReg>
    256c:	8d e0       	ldi	r24, 0x0D	; 13
    256e:	61 e0       	ldi	r22, 0x01	; 1
    2570:	0e 94 d5 0d 	call	0x1baa	; 0x1baa <writeReg>
    2574:	8f ef       	ldi	r24, 0xFF	; 255
    2576:	60 e0       	ldi	r22, 0x00	; 0
    2578:	0e 94 d5 0d 	call	0x1baa	; 0x1baa <writeReg>
    257c:	80 e8       	ldi	r24, 0x80	; 128
    257e:	61 e0       	ldi	r22, 0x01	; 1
    2580:	0e 94 d5 0d 	call	0x1baa	; 0x1baa <writeReg>
    2584:	81 e0       	ldi	r24, 0x01	; 1
    2586:	68 ef       	ldi	r22, 0xF8	; 248
    2588:	0e 94 d5 0d 	call	0x1baa	; 0x1baa <writeReg>
    258c:	8f ef       	ldi	r24, 0xFF	; 255
    258e:	61 e0       	ldi	r22, 0x01	; 1
    2590:	0e 94 d5 0d 	call	0x1baa	; 0x1baa <writeReg>
    2594:	8e e8       	ldi	r24, 0x8E	; 142
    2596:	61 e0       	ldi	r22, 0x01	; 1
    2598:	0e 94 d5 0d 	call	0x1baa	; 0x1baa <writeReg>
    259c:	80 e0       	ldi	r24, 0x00	; 0
    259e:	61 e0       	ldi	r22, 0x01	; 1
    25a0:	0e 94 d5 0d 	call	0x1baa	; 0x1baa <writeReg>
    25a4:	8f ef       	ldi	r24, 0xFF	; 255
    25a6:	60 e0       	ldi	r22, 0x00	; 0
    25a8:	0e 94 d5 0d 	call	0x1baa	; 0x1baa <writeReg>
    25ac:	80 e8       	ldi	r24, 0x80	; 128
    25ae:	60 e0       	ldi	r22, 0x00	; 0
    25b0:	0e 94 d5 0d 	call	0x1baa	; 0x1baa <writeReg>
    25b4:	8a e0       	ldi	r24, 0x0A	; 10
    25b6:	64 e0       	ldi	r22, 0x04	; 4
    25b8:	0e 94 d5 0d 	call	0x1baa	; 0x1baa <writeReg>
    25bc:	84 e8       	ldi	r24, 0x84	; 132
    25be:	0e 94 9e 0b 	call	0x173c	; 0x173c <readReg>
    25c2:	68 2f       	mov	r22, r24
    25c4:	6f 7e       	andi	r22, 0xEF	; 239
    25c6:	84 e8       	ldi	r24, 0x84	; 132
    25c8:	0e 94 d5 0d 	call	0x1baa	; 0x1baa <writeReg>
    25cc:	8b e0       	ldi	r24, 0x0B	; 11
    25ce:	61 e0       	ldi	r22, 0x01	; 1
    25d0:	0e 94 d5 0d 	call	0x1baa	; 0x1baa <writeReg>
    25d4:	0e 94 42 0c 	call	0x1884	; 0x1884 <getMeasurementTimingBudget>
    25d8:	60 93 86 01 	sts	0x0186, r22
    25dc:	70 93 87 01 	sts	0x0187, r23
    25e0:	80 93 88 01 	sts	0x0188, r24
    25e4:	90 93 89 01 	sts	0x0189, r25
    25e8:	81 e0       	ldi	r24, 0x01	; 1
    25ea:	68 ee       	ldi	r22, 0xE8	; 232
    25ec:	0e 94 d5 0d 	call	0x1baa	; 0x1baa <writeReg>
    25f0:	60 91 86 01 	lds	r22, 0x0186
    25f4:	70 91 87 01 	lds	r23, 0x0187
    25f8:	80 91 88 01 	lds	r24, 0x0188
    25fc:	90 91 89 01 	lds	r25, 0x0189
    2600:	0e 94 00 0d 	call	0x1a00	; 0x1a00 <setMeasurementTimingBudget>
    2604:	81 e0       	ldi	r24, 0x01	; 1
    2606:	61 e0       	ldi	r22, 0x01	; 1
    2608:	0e 94 d5 0d 	call	0x1baa	; 0x1baa <writeReg>
    260c:	80 e4       	ldi	r24, 0x40	; 64
    260e:	0e 94 e8 0d 	call	0x1bd0	; 0x1bd0 <performSingleRefCalibration>
    2612:	88 23       	and	r24, r24
    2614:	79 f0       	breq	.+30     	; 0x2634 <initVL53L0X+0x46a>
    2616:	81 e0       	ldi	r24, 0x01	; 1
    2618:	62 e0       	ldi	r22, 0x02	; 2
    261a:	0e 94 d5 0d 	call	0x1baa	; 0x1baa <writeReg>
    261e:	80 e0       	ldi	r24, 0x00	; 0
    2620:	0e 94 e8 0d 	call	0x1bd0	; 0x1bd0 <performSingleRefCalibration>
    2624:	88 23       	and	r24, r24
    2626:	31 f0       	breq	.+12     	; 0x2634 <initVL53L0X+0x46a>
    2628:	81 e0       	ldi	r24, 0x01	; 1
    262a:	68 ee       	ldi	r22, 0xE8	; 232
    262c:	0e 94 d5 0d 	call	0x1baa	; 0x1baa <writeReg>
    2630:	81 e0       	ldi	r24, 0x01	; 1
    2632:	01 c0       	rjmp	.+2      	; 0x2636 <initVL53L0X+0x46c>
    2634:	80 e0       	ldi	r24, 0x00	; 0
    2636:	28 96       	adiw	r28, 0x08	; 8
    2638:	0f b6       	in	r0, 0x3f	; 63
    263a:	f8 94       	cli
    263c:	de bf       	out	0x3e, r29	; 62
    263e:	0f be       	out	0x3f, r0	; 63
    2640:	cd bf       	out	0x3d, r28	; 61
    2642:	cf 91       	pop	r28
    2644:	df 91       	pop	r29
    2646:	1f 91       	pop	r17
    2648:	0f 91       	pop	r16
    264a:	ff 90       	pop	r15
    264c:	08 95       	ret

0000264e <setAddress>:
    264e:	1f 93       	push	r17
    2650:	18 2f       	mov	r17, r24
    2652:	68 2f       	mov	r22, r24
    2654:	66 95       	lsr	r22
    2656:	8a e8       	ldi	r24, 0x8A	; 138
    2658:	0e 94 d5 0d 	call	0x1baa	; 0x1baa <writeReg>
    265c:	10 93 75 01 	sts	0x0175, r17
    2660:	1f 91       	pop	r17
    2662:	08 95       	ret

00002664 <init>:
    2664:	54 98       	cbi	0x0a, 4	; 10
    2666:	82 e0       	ldi	r24, 0x02	; 2
    2668:	81 bb       	out	0x11, r24	; 17
    266a:	83 e0       	ldi	r24, 0x03	; 3
    266c:	85 bb       	out	0x15, r24	; 21
    266e:	0e 94 6b 06 	call	0xcd6	; 0xcd6 <i2c_init>
    2672:	0e 94 03 07 	call	0xe06	; 0xe06 <initMillis>
    2676:	78 94       	sei
    2678:	08 95       	ret

0000267a <main>:
    267a:	8f 92       	push	r8
    267c:	9f 92       	push	r9
    267e:	af 92       	push	r10
    2680:	bf 92       	push	r11
    2682:	cf 92       	push	r12
    2684:	df 92       	push	r13
    2686:	ef 92       	push	r14
    2688:	ff 92       	push	r15
    268a:	0f 93       	push	r16
    268c:	1f 93       	push	r17
    268e:	df 93       	push	r29
    2690:	cf 93       	push	r28
    2692:	cd b7       	in	r28, 0x3d	; 61
    2694:	de b7       	in	r29, 0x3e	; 62
    2696:	6d 97       	sbiw	r28, 0x1d	; 29
    2698:	0f b6       	in	r0, 0x3f	; 63
    269a:	f8 94       	cli
    269c:	de bf       	out	0x3e, r29	; 62
    269e:	0f be       	out	0x3f, r0	; 63
    26a0:	cd bf       	out	0x3d, r28	; 61
    26a2:	0e 94 32 13 	call	0x2664	; 0x2664 <init>
    26a6:	81 e0       	ldi	r24, 0x01	; 1
    26a8:	0e 94 e5 10 	call	0x21ca	; 0x21ca <initVL53L0X>
    26ac:	60 e2       	ldi	r22, 0x20	; 32
    26ae:	71 ea       	ldi	r23, 0xA1	; 161
    26b0:	87 e0       	ldi	r24, 0x07	; 7
    26b2:	90 e0       	ldi	r25, 0x00	; 0
    26b4:	0e 94 00 0d 	call	0x1a00	; 0x1a00 <setMeasurementTimingBudget>
    26b8:	0e 94 c7 07 	call	0xf8e	; 0xf8e <LCD_Initalize>
    26bc:	0e 94 bf 07 	call	0xf7e	; 0xf7e <LCD_Home>
    26c0:	4e 01       	movw	r8, r28
    26c2:	08 94       	sec
    26c4:	81 1c       	adc	r8, r1
    26c6:	91 1c       	adc	r9, r1
    26c8:	2a e0       	ldi	r18, 0x0A	; 10
    26ca:	e2 2e       	mov	r14, r18
    26cc:	f1 2c       	mov	r15, r1
    26ce:	ec 0e       	add	r14, r28
    26d0:	fd 1e       	adc	r15, r29
    26d2:	90 e6       	ldi	r25, 0x60	; 96
    26d4:	a9 2e       	mov	r10, r25
    26d6:	90 e0       	ldi	r25, 0x00	; 0
    26d8:	b9 2e       	mov	r11, r25
    26da:	88 ec       	ldi	r24, 0xC8	; 200
    26dc:	c8 2e       	mov	r12, r24
    26de:	d1 2c       	mov	r13, r1
    26e0:	c4 01       	movw	r24, r8
    26e2:	0e 94 28 0f 	call	0x1e50	; 0x1e50 <readRangeSingleMillimeters>
    26e6:	8c 01       	movw	r16, r24
    26e8:	0e 94 b7 07 	call	0xf6e	; 0xf6e <LCD_Clear>
    26ec:	80 e0       	ldi	r24, 0x00	; 0
    26ee:	60 e0       	ldi	r22, 0x00	; 0
    26f0:	0e 94 ad 07 	call	0xf5a	; 0xf5a <LCD_GoTo>
    26f4:	00 d0       	rcall	.+0      	; 0x26f6 <main+0x7c>
    26f6:	00 d0       	rcall	.+0      	; 0x26f8 <main+0x7e>
    26f8:	00 d0       	rcall	.+0      	; 0x26fa <main+0x80>
    26fa:	ed b7       	in	r30, 0x3d	; 61
    26fc:	fe b7       	in	r31, 0x3e	; 62
    26fe:	31 96       	adiw	r30, 0x01	; 1
    2700:	ad b7       	in	r26, 0x3d	; 61
    2702:	be b7       	in	r27, 0x3e	; 62
    2704:	12 96       	adiw	r26, 0x02	; 2
    2706:	fc 92       	st	X, r15
    2708:	ee 92       	st	-X, r14
    270a:	11 97       	sbiw	r26, 0x01	; 1
    270c:	b3 82       	std	Z+3, r11	; 0x03
    270e:	a2 82       	std	Z+2, r10	; 0x02
    2710:	15 83       	std	Z+5, r17	; 0x05
    2712:	04 83       	std	Z+4, r16	; 0x04
    2714:	0e 94 17 14 	call	0x282e	; 0x282e <sprintf>
    2718:	8d b7       	in	r24, 0x3d	; 61
    271a:	9e b7       	in	r25, 0x3e	; 62
    271c:	06 96       	adiw	r24, 0x06	; 6
    271e:	0f b6       	in	r0, 0x3f	; 63
    2720:	f8 94       	cli
    2722:	9e bf       	out	0x3e, r25	; 62
    2724:	0f be       	out	0x3f, r0	; 63
    2726:	8d bf       	out	0x3d, r24	; 61
    2728:	c7 01       	movw	r24, r14
    272a:	0e 94 a0 07 	call	0xf40	; 0xf40 <LCD_WriteText>
    272e:	88 ee       	ldi	r24, 0xE8	; 232
    2730:	93 e0       	ldi	r25, 0x03	; 3
    2732:	f6 01       	movw	r30, r12
    2734:	31 97       	sbiw	r30, 0x01	; 1
    2736:	f1 f7       	brne	.-4      	; 0x2734 <main+0xba>
    2738:	01 97       	sbiw	r24, 0x01	; 1
    273a:	d9 f7       	brne	.-10     	; 0x2732 <main+0xb8>
    273c:	d1 cf       	rjmp	.-94     	; 0x26e0 <main+0x66>

0000273e <__mulsi3>:
    273e:	62 9f       	mul	r22, r18
    2740:	d0 01       	movw	r26, r0
    2742:	73 9f       	mul	r23, r19
    2744:	f0 01       	movw	r30, r0
    2746:	82 9f       	mul	r24, r18
    2748:	e0 0d       	add	r30, r0
    274a:	f1 1d       	adc	r31, r1
    274c:	64 9f       	mul	r22, r20
    274e:	e0 0d       	add	r30, r0
    2750:	f1 1d       	adc	r31, r1
    2752:	92 9f       	mul	r25, r18
    2754:	f0 0d       	add	r31, r0
    2756:	83 9f       	mul	r24, r19
    2758:	f0 0d       	add	r31, r0
    275a:	74 9f       	mul	r23, r20
    275c:	f0 0d       	add	r31, r0
    275e:	65 9f       	mul	r22, r21
    2760:	f0 0d       	add	r31, r0
    2762:	99 27       	eor	r25, r25
    2764:	72 9f       	mul	r23, r18
    2766:	b0 0d       	add	r27, r0
    2768:	e1 1d       	adc	r30, r1
    276a:	f9 1f       	adc	r31, r25
    276c:	63 9f       	mul	r22, r19
    276e:	b0 0d       	add	r27, r0
    2770:	e1 1d       	adc	r30, r1
    2772:	f9 1f       	adc	r31, r25
    2774:	bd 01       	movw	r22, r26
    2776:	cf 01       	movw	r24, r30
    2778:	11 24       	eor	r1, r1
    277a:	08 95       	ret

0000277c <__udivmodsi4>:
    277c:	a1 e2       	ldi	r26, 0x21	; 33
    277e:	1a 2e       	mov	r1, r26
    2780:	aa 1b       	sub	r26, r26
    2782:	bb 1b       	sub	r27, r27
    2784:	fd 01       	movw	r30, r26
    2786:	0d c0       	rjmp	.+26     	; 0x27a2 <__udivmodsi4_ep>

00002788 <__udivmodsi4_loop>:
    2788:	aa 1f       	adc	r26, r26
    278a:	bb 1f       	adc	r27, r27
    278c:	ee 1f       	adc	r30, r30
    278e:	ff 1f       	adc	r31, r31
    2790:	a2 17       	cp	r26, r18
    2792:	b3 07       	cpc	r27, r19
    2794:	e4 07       	cpc	r30, r20
    2796:	f5 07       	cpc	r31, r21
    2798:	20 f0       	brcs	.+8      	; 0x27a2 <__udivmodsi4_ep>
    279a:	a2 1b       	sub	r26, r18
    279c:	b3 0b       	sbc	r27, r19
    279e:	e4 0b       	sbc	r30, r20
    27a0:	f5 0b       	sbc	r31, r21

000027a2 <__udivmodsi4_ep>:
    27a2:	66 1f       	adc	r22, r22
    27a4:	77 1f       	adc	r23, r23
    27a6:	88 1f       	adc	r24, r24
    27a8:	99 1f       	adc	r25, r25
    27aa:	1a 94       	dec	r1
    27ac:	69 f7       	brne	.-38     	; 0x2788 <__udivmodsi4_loop>
    27ae:	60 95       	com	r22
    27b0:	70 95       	com	r23
    27b2:	80 95       	com	r24
    27b4:	90 95       	com	r25
    27b6:	9b 01       	movw	r18, r22
    27b8:	ac 01       	movw	r20, r24
    27ba:	bd 01       	movw	r22, r26
    27bc:	cf 01       	movw	r24, r30
    27be:	08 95       	ret

000027c0 <__prologue_saves__>:
    27c0:	2f 92       	push	r2
    27c2:	3f 92       	push	r3
    27c4:	4f 92       	push	r4
    27c6:	5f 92       	push	r5
    27c8:	6f 92       	push	r6
    27ca:	7f 92       	push	r7
    27cc:	8f 92       	push	r8
    27ce:	9f 92       	push	r9
    27d0:	af 92       	push	r10
    27d2:	bf 92       	push	r11
    27d4:	cf 92       	push	r12
    27d6:	df 92       	push	r13
    27d8:	ef 92       	push	r14
    27da:	ff 92       	push	r15
    27dc:	0f 93       	push	r16
    27de:	1f 93       	push	r17
    27e0:	cf 93       	push	r28
    27e2:	df 93       	push	r29
    27e4:	cd b7       	in	r28, 0x3d	; 61
    27e6:	de b7       	in	r29, 0x3e	; 62
    27e8:	ca 1b       	sub	r28, r26
    27ea:	db 0b       	sbc	r29, r27
    27ec:	0f b6       	in	r0, 0x3f	; 63
    27ee:	f8 94       	cli
    27f0:	de bf       	out	0x3e, r29	; 62
    27f2:	0f be       	out	0x3f, r0	; 63
    27f4:	cd bf       	out	0x3d, r28	; 61
    27f6:	09 94       	ijmp

000027f8 <__epilogue_restores__>:
    27f8:	2a 88       	ldd	r2, Y+18	; 0x12
    27fa:	39 88       	ldd	r3, Y+17	; 0x11
    27fc:	48 88       	ldd	r4, Y+16	; 0x10
    27fe:	5f 84       	ldd	r5, Y+15	; 0x0f
    2800:	6e 84       	ldd	r6, Y+14	; 0x0e
    2802:	7d 84       	ldd	r7, Y+13	; 0x0d
    2804:	8c 84       	ldd	r8, Y+12	; 0x0c
    2806:	9b 84       	ldd	r9, Y+11	; 0x0b
    2808:	aa 84       	ldd	r10, Y+10	; 0x0a
    280a:	b9 84       	ldd	r11, Y+9	; 0x09
    280c:	c8 84       	ldd	r12, Y+8	; 0x08
    280e:	df 80       	ldd	r13, Y+7	; 0x07
    2810:	ee 80       	ldd	r14, Y+6	; 0x06
    2812:	fd 80       	ldd	r15, Y+5	; 0x05
    2814:	0c 81       	ldd	r16, Y+4	; 0x04
    2816:	1b 81       	ldd	r17, Y+3	; 0x03
    2818:	aa 81       	ldd	r26, Y+2	; 0x02
    281a:	b9 81       	ldd	r27, Y+1	; 0x01
    281c:	ce 0f       	add	r28, r30
    281e:	d1 1d       	adc	r29, r1
    2820:	0f b6       	in	r0, 0x3f	; 63
    2822:	f8 94       	cli
    2824:	de bf       	out	0x3e, r29	; 62
    2826:	0f be       	out	0x3f, r0	; 63
    2828:	cd bf       	out	0x3d, r28	; 61
    282a:	ed 01       	movw	r28, r26
    282c:	08 95       	ret

0000282e <sprintf>:
    282e:	ae e0       	ldi	r26, 0x0E	; 14
    2830:	b0 e0       	ldi	r27, 0x00	; 0
    2832:	ed e1       	ldi	r30, 0x1D	; 29
    2834:	f4 e1       	ldi	r31, 0x14	; 20
    2836:	0c 94 ee 13 	jmp	0x27dc	; 0x27dc <__prologue_saves__+0x1c>
    283a:	0d 89       	ldd	r16, Y+21	; 0x15
    283c:	1e 89       	ldd	r17, Y+22	; 0x16
    283e:	86 e0       	ldi	r24, 0x06	; 6
    2840:	8c 83       	std	Y+4, r24	; 0x04
    2842:	1a 83       	std	Y+2, r17	; 0x02
    2844:	09 83       	std	Y+1, r16	; 0x01
    2846:	8f ef       	ldi	r24, 0xFF	; 255
    2848:	9f e7       	ldi	r25, 0x7F	; 127
    284a:	9e 83       	std	Y+6, r25	; 0x06
    284c:	8d 83       	std	Y+5, r24	; 0x05
    284e:	9e 01       	movw	r18, r28
    2850:	27 5e       	subi	r18, 0xE7	; 231
    2852:	3f 4f       	sbci	r19, 0xFF	; 255
    2854:	ce 01       	movw	r24, r28
    2856:	01 96       	adiw	r24, 0x01	; 1
    2858:	6f 89       	ldd	r22, Y+23	; 0x17
    285a:	78 8d       	ldd	r23, Y+24	; 0x18
    285c:	a9 01       	movw	r20, r18
    285e:	0e 94 3b 14 	call	0x2876	; 0x2876 <vfprintf>
    2862:	2f 81       	ldd	r18, Y+7	; 0x07
    2864:	38 85       	ldd	r19, Y+8	; 0x08
    2866:	02 0f       	add	r16, r18
    2868:	13 1f       	adc	r17, r19
    286a:	f8 01       	movw	r30, r16
    286c:	10 82       	st	Z, r1
    286e:	2e 96       	adiw	r28, 0x0e	; 14
    2870:	e4 e0       	ldi	r30, 0x04	; 4
    2872:	0c 94 0a 14 	jmp	0x2814	; 0x2814 <__epilogue_restores__+0x1c>

00002876 <vfprintf>:
    2876:	ab e0       	ldi	r26, 0x0B	; 11
    2878:	b0 e0       	ldi	r27, 0x00	; 0
    287a:	e1 e4       	ldi	r30, 0x41	; 65
    287c:	f4 e1       	ldi	r31, 0x14	; 20
    287e:	0c 94 e0 13 	jmp	0x27c0	; 0x27c0 <__prologue_saves__>
    2882:	3c 01       	movw	r6, r24
    2884:	2b 01       	movw	r4, r22
    2886:	5a 01       	movw	r10, r20
    2888:	fc 01       	movw	r30, r24
    288a:	17 82       	std	Z+7, r1	; 0x07
    288c:	16 82       	std	Z+6, r1	; 0x06
    288e:	83 81       	ldd	r24, Z+3	; 0x03
    2890:	81 fd       	sbrc	r24, 1
    2892:	03 c0       	rjmp	.+6      	; 0x289a <vfprintf+0x24>
    2894:	6f ef       	ldi	r22, 0xFF	; 255
    2896:	7f ef       	ldi	r23, 0xFF	; 255
    2898:	c6 c1       	rjmp	.+908    	; 0x2c26 <vfprintf+0x3b0>
    289a:	9a e0       	ldi	r25, 0x0A	; 10
    289c:	89 2e       	mov	r8, r25
    289e:	1e 01       	movw	r2, r28
    28a0:	08 94       	sec
    28a2:	21 1c       	adc	r2, r1
    28a4:	31 1c       	adc	r3, r1
    28a6:	f3 01       	movw	r30, r6
    28a8:	23 81       	ldd	r18, Z+3	; 0x03
    28aa:	f2 01       	movw	r30, r4
    28ac:	23 fd       	sbrc	r18, 3
    28ae:	85 91       	lpm	r24, Z+
    28b0:	23 ff       	sbrs	r18, 3
    28b2:	81 91       	ld	r24, Z+
    28b4:	2f 01       	movw	r4, r30
    28b6:	88 23       	and	r24, r24
    28b8:	09 f4       	brne	.+2      	; 0x28bc <vfprintf+0x46>
    28ba:	b2 c1       	rjmp	.+868    	; 0x2c20 <vfprintf+0x3aa>
    28bc:	85 32       	cpi	r24, 0x25	; 37
    28be:	39 f4       	brne	.+14     	; 0x28ce <vfprintf+0x58>
    28c0:	23 fd       	sbrc	r18, 3
    28c2:	85 91       	lpm	r24, Z+
    28c4:	23 ff       	sbrs	r18, 3
    28c6:	81 91       	ld	r24, Z+
    28c8:	2f 01       	movw	r4, r30
    28ca:	85 32       	cpi	r24, 0x25	; 37
    28cc:	29 f4       	brne	.+10     	; 0x28d8 <vfprintf+0x62>
    28ce:	90 e0       	ldi	r25, 0x00	; 0
    28d0:	b3 01       	movw	r22, r6
    28d2:	0e 94 2e 16 	call	0x2c5c	; 0x2c5c <fputc>
    28d6:	e7 cf       	rjmp	.-50     	; 0x28a6 <vfprintf+0x30>
    28d8:	98 2f       	mov	r25, r24
    28da:	ff 24       	eor	r15, r15
    28dc:	ee 24       	eor	r14, r14
    28de:	99 24       	eor	r9, r9
    28e0:	ff e1       	ldi	r31, 0x1F	; 31
    28e2:	ff 15       	cp	r31, r15
    28e4:	d0 f0       	brcs	.+52     	; 0x291a <vfprintf+0xa4>
    28e6:	9b 32       	cpi	r25, 0x2B	; 43
    28e8:	69 f0       	breq	.+26     	; 0x2904 <vfprintf+0x8e>
    28ea:	9c 32       	cpi	r25, 0x2C	; 44
    28ec:	28 f4       	brcc	.+10     	; 0x28f8 <vfprintf+0x82>
    28ee:	90 32       	cpi	r25, 0x20	; 32
    28f0:	59 f0       	breq	.+22     	; 0x2908 <vfprintf+0x92>
    28f2:	93 32       	cpi	r25, 0x23	; 35
    28f4:	91 f4       	brne	.+36     	; 0x291a <vfprintf+0xa4>
    28f6:	0e c0       	rjmp	.+28     	; 0x2914 <vfprintf+0x9e>
    28f8:	9d 32       	cpi	r25, 0x2D	; 45
    28fa:	49 f0       	breq	.+18     	; 0x290e <vfprintf+0x98>
    28fc:	90 33       	cpi	r25, 0x30	; 48
    28fe:	69 f4       	brne	.+26     	; 0x291a <vfprintf+0xa4>
    2900:	41 e0       	ldi	r20, 0x01	; 1
    2902:	24 c0       	rjmp	.+72     	; 0x294c <vfprintf+0xd6>
    2904:	52 e0       	ldi	r21, 0x02	; 2
    2906:	f5 2a       	or	r15, r21
    2908:	84 e0       	ldi	r24, 0x04	; 4
    290a:	f8 2a       	or	r15, r24
    290c:	28 c0       	rjmp	.+80     	; 0x295e <vfprintf+0xe8>
    290e:	98 e0       	ldi	r25, 0x08	; 8
    2910:	f9 2a       	or	r15, r25
    2912:	25 c0       	rjmp	.+74     	; 0x295e <vfprintf+0xe8>
    2914:	e0 e1       	ldi	r30, 0x10	; 16
    2916:	fe 2a       	or	r15, r30
    2918:	22 c0       	rjmp	.+68     	; 0x295e <vfprintf+0xe8>
    291a:	f7 fc       	sbrc	r15, 7
    291c:	29 c0       	rjmp	.+82     	; 0x2970 <vfprintf+0xfa>
    291e:	89 2f       	mov	r24, r25
    2920:	80 53       	subi	r24, 0x30	; 48
    2922:	8a 30       	cpi	r24, 0x0A	; 10
    2924:	70 f4       	brcc	.+28     	; 0x2942 <vfprintf+0xcc>
    2926:	f6 fe       	sbrs	r15, 6
    2928:	05 c0       	rjmp	.+10     	; 0x2934 <vfprintf+0xbe>
    292a:	98 9c       	mul	r9, r8
    292c:	90 2c       	mov	r9, r0
    292e:	11 24       	eor	r1, r1
    2930:	98 0e       	add	r9, r24
    2932:	15 c0       	rjmp	.+42     	; 0x295e <vfprintf+0xe8>
    2934:	e8 9c       	mul	r14, r8
    2936:	e0 2c       	mov	r14, r0
    2938:	11 24       	eor	r1, r1
    293a:	e8 0e       	add	r14, r24
    293c:	f0 e2       	ldi	r31, 0x20	; 32
    293e:	ff 2a       	or	r15, r31
    2940:	0e c0       	rjmp	.+28     	; 0x295e <vfprintf+0xe8>
    2942:	9e 32       	cpi	r25, 0x2E	; 46
    2944:	29 f4       	brne	.+10     	; 0x2950 <vfprintf+0xda>
    2946:	f6 fc       	sbrc	r15, 6
    2948:	6b c1       	rjmp	.+726    	; 0x2c20 <vfprintf+0x3aa>
    294a:	40 e4       	ldi	r20, 0x40	; 64
    294c:	f4 2a       	or	r15, r20
    294e:	07 c0       	rjmp	.+14     	; 0x295e <vfprintf+0xe8>
    2950:	9c 36       	cpi	r25, 0x6C	; 108
    2952:	19 f4       	brne	.+6      	; 0x295a <vfprintf+0xe4>
    2954:	50 e8       	ldi	r21, 0x80	; 128
    2956:	f5 2a       	or	r15, r21
    2958:	02 c0       	rjmp	.+4      	; 0x295e <vfprintf+0xe8>
    295a:	98 36       	cpi	r25, 0x68	; 104
    295c:	49 f4       	brne	.+18     	; 0x2970 <vfprintf+0xfa>
    295e:	f2 01       	movw	r30, r4
    2960:	23 fd       	sbrc	r18, 3
    2962:	95 91       	lpm	r25, Z+
    2964:	23 ff       	sbrs	r18, 3
    2966:	91 91       	ld	r25, Z+
    2968:	2f 01       	movw	r4, r30
    296a:	99 23       	and	r25, r25
    296c:	09 f0       	breq	.+2      	; 0x2970 <vfprintf+0xfa>
    296e:	b8 cf       	rjmp	.-144    	; 0x28e0 <vfprintf+0x6a>
    2970:	89 2f       	mov	r24, r25
    2972:	85 54       	subi	r24, 0x45	; 69
    2974:	83 30       	cpi	r24, 0x03	; 3
    2976:	18 f0       	brcs	.+6      	; 0x297e <vfprintf+0x108>
    2978:	80 52       	subi	r24, 0x20	; 32
    297a:	83 30       	cpi	r24, 0x03	; 3
    297c:	38 f4       	brcc	.+14     	; 0x298c <vfprintf+0x116>
    297e:	44 e0       	ldi	r20, 0x04	; 4
    2980:	50 e0       	ldi	r21, 0x00	; 0
    2982:	a4 0e       	add	r10, r20
    2984:	b5 1e       	adc	r11, r21
    2986:	5f e3       	ldi	r21, 0x3F	; 63
    2988:	59 83       	std	Y+1, r21	; 0x01
    298a:	0f c0       	rjmp	.+30     	; 0x29aa <vfprintf+0x134>
    298c:	93 36       	cpi	r25, 0x63	; 99
    298e:	31 f0       	breq	.+12     	; 0x299c <vfprintf+0x126>
    2990:	93 37       	cpi	r25, 0x73	; 115
    2992:	79 f0       	breq	.+30     	; 0x29b2 <vfprintf+0x13c>
    2994:	93 35       	cpi	r25, 0x53	; 83
    2996:	09 f0       	breq	.+2      	; 0x299a <vfprintf+0x124>
    2998:	56 c0       	rjmp	.+172    	; 0x2a46 <vfprintf+0x1d0>
    299a:	20 c0       	rjmp	.+64     	; 0x29dc <vfprintf+0x166>
    299c:	f5 01       	movw	r30, r10
    299e:	80 81       	ld	r24, Z
    29a0:	89 83       	std	Y+1, r24	; 0x01
    29a2:	42 e0       	ldi	r20, 0x02	; 2
    29a4:	50 e0       	ldi	r21, 0x00	; 0
    29a6:	a4 0e       	add	r10, r20
    29a8:	b5 1e       	adc	r11, r21
    29aa:	61 01       	movw	r12, r2
    29ac:	01 e0       	ldi	r16, 0x01	; 1
    29ae:	10 e0       	ldi	r17, 0x00	; 0
    29b0:	12 c0       	rjmp	.+36     	; 0x29d6 <vfprintf+0x160>
    29b2:	f5 01       	movw	r30, r10
    29b4:	c0 80       	ld	r12, Z
    29b6:	d1 80       	ldd	r13, Z+1	; 0x01
    29b8:	f6 fc       	sbrc	r15, 6
    29ba:	03 c0       	rjmp	.+6      	; 0x29c2 <vfprintf+0x14c>
    29bc:	6f ef       	ldi	r22, 0xFF	; 255
    29be:	7f ef       	ldi	r23, 0xFF	; 255
    29c0:	02 c0       	rjmp	.+4      	; 0x29c6 <vfprintf+0x150>
    29c2:	69 2d       	mov	r22, r9
    29c4:	70 e0       	ldi	r23, 0x00	; 0
    29c6:	42 e0       	ldi	r20, 0x02	; 2
    29c8:	50 e0       	ldi	r21, 0x00	; 0
    29ca:	a4 0e       	add	r10, r20
    29cc:	b5 1e       	adc	r11, r21
    29ce:	c6 01       	movw	r24, r12
    29d0:	0e 94 23 16 	call	0x2c46	; 0x2c46 <strnlen>
    29d4:	8c 01       	movw	r16, r24
    29d6:	5f e7       	ldi	r21, 0x7F	; 127
    29d8:	f5 22       	and	r15, r21
    29da:	14 c0       	rjmp	.+40     	; 0x2a04 <vfprintf+0x18e>
    29dc:	f5 01       	movw	r30, r10
    29de:	c0 80       	ld	r12, Z
    29e0:	d1 80       	ldd	r13, Z+1	; 0x01
    29e2:	f6 fc       	sbrc	r15, 6
    29e4:	03 c0       	rjmp	.+6      	; 0x29ec <vfprintf+0x176>
    29e6:	6f ef       	ldi	r22, 0xFF	; 255
    29e8:	7f ef       	ldi	r23, 0xFF	; 255
    29ea:	02 c0       	rjmp	.+4      	; 0x29f0 <vfprintf+0x17a>
    29ec:	69 2d       	mov	r22, r9
    29ee:	70 e0       	ldi	r23, 0x00	; 0
    29f0:	42 e0       	ldi	r20, 0x02	; 2
    29f2:	50 e0       	ldi	r21, 0x00	; 0
    29f4:	a4 0e       	add	r10, r20
    29f6:	b5 1e       	adc	r11, r21
    29f8:	c6 01       	movw	r24, r12
    29fa:	0e 94 18 16 	call	0x2c30	; 0x2c30 <strnlen_P>
    29fe:	8c 01       	movw	r16, r24
    2a00:	50 e8       	ldi	r21, 0x80	; 128
    2a02:	f5 2a       	or	r15, r21
    2a04:	f3 fe       	sbrs	r15, 3
    2a06:	07 c0       	rjmp	.+14     	; 0x2a16 <vfprintf+0x1a0>
    2a08:	1a c0       	rjmp	.+52     	; 0x2a3e <vfprintf+0x1c8>
    2a0a:	80 e2       	ldi	r24, 0x20	; 32
    2a0c:	90 e0       	ldi	r25, 0x00	; 0
    2a0e:	b3 01       	movw	r22, r6
    2a10:	0e 94 2e 16 	call	0x2c5c	; 0x2c5c <fputc>
    2a14:	ea 94       	dec	r14
    2a16:	8e 2d       	mov	r24, r14
    2a18:	90 e0       	ldi	r25, 0x00	; 0
    2a1a:	08 17       	cp	r16, r24
    2a1c:	19 07       	cpc	r17, r25
    2a1e:	a8 f3       	brcs	.-22     	; 0x2a0a <vfprintf+0x194>
    2a20:	0e c0       	rjmp	.+28     	; 0x2a3e <vfprintf+0x1c8>
    2a22:	f6 01       	movw	r30, r12
    2a24:	f7 fc       	sbrc	r15, 7
    2a26:	85 91       	lpm	r24, Z+
    2a28:	f7 fe       	sbrs	r15, 7
    2a2a:	81 91       	ld	r24, Z+
    2a2c:	6f 01       	movw	r12, r30
    2a2e:	90 e0       	ldi	r25, 0x00	; 0
    2a30:	b3 01       	movw	r22, r6
    2a32:	0e 94 2e 16 	call	0x2c5c	; 0x2c5c <fputc>
    2a36:	e1 10       	cpse	r14, r1
    2a38:	ea 94       	dec	r14
    2a3a:	01 50       	subi	r16, 0x01	; 1
    2a3c:	10 40       	sbci	r17, 0x00	; 0
    2a3e:	01 15       	cp	r16, r1
    2a40:	11 05       	cpc	r17, r1
    2a42:	79 f7       	brne	.-34     	; 0x2a22 <vfprintf+0x1ac>
    2a44:	ea c0       	rjmp	.+468    	; 0x2c1a <vfprintf+0x3a4>
    2a46:	94 36       	cpi	r25, 0x64	; 100
    2a48:	11 f0       	breq	.+4      	; 0x2a4e <vfprintf+0x1d8>
    2a4a:	99 36       	cpi	r25, 0x69	; 105
    2a4c:	69 f5       	brne	.+90     	; 0x2aa8 <vfprintf+0x232>
    2a4e:	f7 fe       	sbrs	r15, 7
    2a50:	08 c0       	rjmp	.+16     	; 0x2a62 <vfprintf+0x1ec>
    2a52:	f5 01       	movw	r30, r10
    2a54:	20 81       	ld	r18, Z
    2a56:	31 81       	ldd	r19, Z+1	; 0x01
    2a58:	42 81       	ldd	r20, Z+2	; 0x02
    2a5a:	53 81       	ldd	r21, Z+3	; 0x03
    2a5c:	84 e0       	ldi	r24, 0x04	; 4
    2a5e:	90 e0       	ldi	r25, 0x00	; 0
    2a60:	0a c0       	rjmp	.+20     	; 0x2a76 <vfprintf+0x200>
    2a62:	f5 01       	movw	r30, r10
    2a64:	80 81       	ld	r24, Z
    2a66:	91 81       	ldd	r25, Z+1	; 0x01
    2a68:	9c 01       	movw	r18, r24
    2a6a:	44 27       	eor	r20, r20
    2a6c:	37 fd       	sbrc	r19, 7
    2a6e:	40 95       	com	r20
    2a70:	54 2f       	mov	r21, r20
    2a72:	82 e0       	ldi	r24, 0x02	; 2
    2a74:	90 e0       	ldi	r25, 0x00	; 0
    2a76:	a8 0e       	add	r10, r24
    2a78:	b9 1e       	adc	r11, r25
    2a7a:	9f e6       	ldi	r25, 0x6F	; 111
    2a7c:	f9 22       	and	r15, r25
    2a7e:	57 ff       	sbrs	r21, 7
    2a80:	09 c0       	rjmp	.+18     	; 0x2a94 <vfprintf+0x21e>
    2a82:	50 95       	com	r21
    2a84:	40 95       	com	r20
    2a86:	30 95       	com	r19
    2a88:	21 95       	neg	r18
    2a8a:	3f 4f       	sbci	r19, 0xFF	; 255
    2a8c:	4f 4f       	sbci	r20, 0xFF	; 255
    2a8e:	5f 4f       	sbci	r21, 0xFF	; 255
    2a90:	e0 e8       	ldi	r30, 0x80	; 128
    2a92:	fe 2a       	or	r15, r30
    2a94:	ca 01       	movw	r24, r20
    2a96:	b9 01       	movw	r22, r18
    2a98:	a1 01       	movw	r20, r2
    2a9a:	2a e0       	ldi	r18, 0x0A	; 10
    2a9c:	30 e0       	ldi	r19, 0x00	; 0
    2a9e:	0e 94 5a 16 	call	0x2cb4	; 0x2cb4 <__ultoa_invert>
    2aa2:	d8 2e       	mov	r13, r24
    2aa4:	d2 18       	sub	r13, r2
    2aa6:	40 c0       	rjmp	.+128    	; 0x2b28 <vfprintf+0x2b2>
    2aa8:	95 37       	cpi	r25, 0x75	; 117
    2aaa:	29 f4       	brne	.+10     	; 0x2ab6 <vfprintf+0x240>
    2aac:	1f 2d       	mov	r17, r15
    2aae:	1f 7e       	andi	r17, 0xEF	; 239
    2ab0:	2a e0       	ldi	r18, 0x0A	; 10
    2ab2:	30 e0       	ldi	r19, 0x00	; 0
    2ab4:	1d c0       	rjmp	.+58     	; 0x2af0 <vfprintf+0x27a>
    2ab6:	1f 2d       	mov	r17, r15
    2ab8:	19 7f       	andi	r17, 0xF9	; 249
    2aba:	9f 36       	cpi	r25, 0x6F	; 111
    2abc:	61 f0       	breq	.+24     	; 0x2ad6 <vfprintf+0x260>
    2abe:	90 37       	cpi	r25, 0x70	; 112
    2ac0:	20 f4       	brcc	.+8      	; 0x2aca <vfprintf+0x254>
    2ac2:	98 35       	cpi	r25, 0x58	; 88
    2ac4:	09 f0       	breq	.+2      	; 0x2ac8 <vfprintf+0x252>
    2ac6:	ac c0       	rjmp	.+344    	; 0x2c20 <vfprintf+0x3aa>
    2ac8:	0f c0       	rjmp	.+30     	; 0x2ae8 <vfprintf+0x272>
    2aca:	90 37       	cpi	r25, 0x70	; 112
    2acc:	39 f0       	breq	.+14     	; 0x2adc <vfprintf+0x266>
    2ace:	98 37       	cpi	r25, 0x78	; 120
    2ad0:	09 f0       	breq	.+2      	; 0x2ad4 <vfprintf+0x25e>
    2ad2:	a6 c0       	rjmp	.+332    	; 0x2c20 <vfprintf+0x3aa>
    2ad4:	04 c0       	rjmp	.+8      	; 0x2ade <vfprintf+0x268>
    2ad6:	28 e0       	ldi	r18, 0x08	; 8
    2ad8:	30 e0       	ldi	r19, 0x00	; 0
    2ada:	0a c0       	rjmp	.+20     	; 0x2af0 <vfprintf+0x27a>
    2adc:	10 61       	ori	r17, 0x10	; 16
    2ade:	14 fd       	sbrc	r17, 4
    2ae0:	14 60       	ori	r17, 0x04	; 4
    2ae2:	20 e1       	ldi	r18, 0x10	; 16
    2ae4:	30 e0       	ldi	r19, 0x00	; 0
    2ae6:	04 c0       	rjmp	.+8      	; 0x2af0 <vfprintf+0x27a>
    2ae8:	14 fd       	sbrc	r17, 4
    2aea:	16 60       	ori	r17, 0x06	; 6
    2aec:	20 e1       	ldi	r18, 0x10	; 16
    2aee:	32 e0       	ldi	r19, 0x02	; 2
    2af0:	17 ff       	sbrs	r17, 7
    2af2:	08 c0       	rjmp	.+16     	; 0x2b04 <vfprintf+0x28e>
    2af4:	f5 01       	movw	r30, r10
    2af6:	60 81       	ld	r22, Z
    2af8:	71 81       	ldd	r23, Z+1	; 0x01
    2afa:	82 81       	ldd	r24, Z+2	; 0x02
    2afc:	93 81       	ldd	r25, Z+3	; 0x03
    2afe:	44 e0       	ldi	r20, 0x04	; 4
    2b00:	50 e0       	ldi	r21, 0x00	; 0
    2b02:	08 c0       	rjmp	.+16     	; 0x2b14 <vfprintf+0x29e>
    2b04:	f5 01       	movw	r30, r10
    2b06:	80 81       	ld	r24, Z
    2b08:	91 81       	ldd	r25, Z+1	; 0x01
    2b0a:	bc 01       	movw	r22, r24
    2b0c:	80 e0       	ldi	r24, 0x00	; 0
    2b0e:	90 e0       	ldi	r25, 0x00	; 0
    2b10:	42 e0       	ldi	r20, 0x02	; 2
    2b12:	50 e0       	ldi	r21, 0x00	; 0
    2b14:	a4 0e       	add	r10, r20
    2b16:	b5 1e       	adc	r11, r21
    2b18:	a1 01       	movw	r20, r2
    2b1a:	0e 94 5a 16 	call	0x2cb4	; 0x2cb4 <__ultoa_invert>
    2b1e:	d8 2e       	mov	r13, r24
    2b20:	d2 18       	sub	r13, r2
    2b22:	8f e7       	ldi	r24, 0x7F	; 127
    2b24:	f8 2e       	mov	r15, r24
    2b26:	f1 22       	and	r15, r17
    2b28:	f6 fe       	sbrs	r15, 6
    2b2a:	0b c0       	rjmp	.+22     	; 0x2b42 <vfprintf+0x2cc>
    2b2c:	5e ef       	ldi	r21, 0xFE	; 254
    2b2e:	f5 22       	and	r15, r21
    2b30:	d9 14       	cp	r13, r9
    2b32:	38 f4       	brcc	.+14     	; 0x2b42 <vfprintf+0x2cc>
    2b34:	f4 fe       	sbrs	r15, 4
    2b36:	07 c0       	rjmp	.+14     	; 0x2b46 <vfprintf+0x2d0>
    2b38:	f2 fc       	sbrc	r15, 2
    2b3a:	05 c0       	rjmp	.+10     	; 0x2b46 <vfprintf+0x2d0>
    2b3c:	8f ee       	ldi	r24, 0xEF	; 239
    2b3e:	f8 22       	and	r15, r24
    2b40:	02 c0       	rjmp	.+4      	; 0x2b46 <vfprintf+0x2d0>
    2b42:	1d 2d       	mov	r17, r13
    2b44:	01 c0       	rjmp	.+2      	; 0x2b48 <vfprintf+0x2d2>
    2b46:	19 2d       	mov	r17, r9
    2b48:	f4 fe       	sbrs	r15, 4
    2b4a:	0d c0       	rjmp	.+26     	; 0x2b66 <vfprintf+0x2f0>
    2b4c:	fe 01       	movw	r30, r28
    2b4e:	ed 0d       	add	r30, r13
    2b50:	f1 1d       	adc	r31, r1
    2b52:	80 81       	ld	r24, Z
    2b54:	80 33       	cpi	r24, 0x30	; 48
    2b56:	19 f4       	brne	.+6      	; 0x2b5e <vfprintf+0x2e8>
    2b58:	99 ee       	ldi	r25, 0xE9	; 233
    2b5a:	f9 22       	and	r15, r25
    2b5c:	08 c0       	rjmp	.+16     	; 0x2b6e <vfprintf+0x2f8>
    2b5e:	1f 5f       	subi	r17, 0xFF	; 255
    2b60:	f2 fe       	sbrs	r15, 2
    2b62:	05 c0       	rjmp	.+10     	; 0x2b6e <vfprintf+0x2f8>
    2b64:	03 c0       	rjmp	.+6      	; 0x2b6c <vfprintf+0x2f6>
    2b66:	8f 2d       	mov	r24, r15
    2b68:	86 78       	andi	r24, 0x86	; 134
    2b6a:	09 f0       	breq	.+2      	; 0x2b6e <vfprintf+0x2f8>
    2b6c:	1f 5f       	subi	r17, 0xFF	; 255
    2b6e:	0f 2d       	mov	r16, r15
    2b70:	f3 fc       	sbrc	r15, 3
    2b72:	14 c0       	rjmp	.+40     	; 0x2b9c <vfprintf+0x326>
    2b74:	f0 fe       	sbrs	r15, 0
    2b76:	0f c0       	rjmp	.+30     	; 0x2b96 <vfprintf+0x320>
    2b78:	1e 15       	cp	r17, r14
    2b7a:	10 f0       	brcs	.+4      	; 0x2b80 <vfprintf+0x30a>
    2b7c:	9d 2c       	mov	r9, r13
    2b7e:	0b c0       	rjmp	.+22     	; 0x2b96 <vfprintf+0x320>
    2b80:	9d 2c       	mov	r9, r13
    2b82:	9e 0c       	add	r9, r14
    2b84:	91 1a       	sub	r9, r17
    2b86:	1e 2d       	mov	r17, r14
    2b88:	06 c0       	rjmp	.+12     	; 0x2b96 <vfprintf+0x320>
    2b8a:	80 e2       	ldi	r24, 0x20	; 32
    2b8c:	90 e0       	ldi	r25, 0x00	; 0
    2b8e:	b3 01       	movw	r22, r6
    2b90:	0e 94 2e 16 	call	0x2c5c	; 0x2c5c <fputc>
    2b94:	1f 5f       	subi	r17, 0xFF	; 255
    2b96:	1e 15       	cp	r17, r14
    2b98:	c0 f3       	brcs	.-16     	; 0x2b8a <vfprintf+0x314>
    2b9a:	04 c0       	rjmp	.+8      	; 0x2ba4 <vfprintf+0x32e>
    2b9c:	1e 15       	cp	r17, r14
    2b9e:	10 f4       	brcc	.+4      	; 0x2ba4 <vfprintf+0x32e>
    2ba0:	e1 1a       	sub	r14, r17
    2ba2:	01 c0       	rjmp	.+2      	; 0x2ba6 <vfprintf+0x330>
    2ba4:	ee 24       	eor	r14, r14
    2ba6:	04 ff       	sbrs	r16, 4
    2ba8:	0f c0       	rjmp	.+30     	; 0x2bc8 <vfprintf+0x352>
    2baa:	80 e3       	ldi	r24, 0x30	; 48
    2bac:	90 e0       	ldi	r25, 0x00	; 0
    2bae:	b3 01       	movw	r22, r6
    2bb0:	0e 94 2e 16 	call	0x2c5c	; 0x2c5c <fputc>
    2bb4:	02 ff       	sbrs	r16, 2
    2bb6:	1d c0       	rjmp	.+58     	; 0x2bf2 <vfprintf+0x37c>
    2bb8:	01 fd       	sbrc	r16, 1
    2bba:	03 c0       	rjmp	.+6      	; 0x2bc2 <vfprintf+0x34c>
    2bbc:	88 e7       	ldi	r24, 0x78	; 120
    2bbe:	90 e0       	ldi	r25, 0x00	; 0
    2bc0:	0e c0       	rjmp	.+28     	; 0x2bde <vfprintf+0x368>
    2bc2:	88 e5       	ldi	r24, 0x58	; 88
    2bc4:	90 e0       	ldi	r25, 0x00	; 0
    2bc6:	0b c0       	rjmp	.+22     	; 0x2bde <vfprintf+0x368>
    2bc8:	80 2f       	mov	r24, r16
    2bca:	86 78       	andi	r24, 0x86	; 134
    2bcc:	91 f0       	breq	.+36     	; 0x2bf2 <vfprintf+0x37c>
    2bce:	01 ff       	sbrs	r16, 1
    2bd0:	02 c0       	rjmp	.+4      	; 0x2bd6 <vfprintf+0x360>
    2bd2:	8b e2       	ldi	r24, 0x2B	; 43
    2bd4:	01 c0       	rjmp	.+2      	; 0x2bd8 <vfprintf+0x362>
    2bd6:	80 e2       	ldi	r24, 0x20	; 32
    2bd8:	f7 fc       	sbrc	r15, 7
    2bda:	8d e2       	ldi	r24, 0x2D	; 45
    2bdc:	90 e0       	ldi	r25, 0x00	; 0
    2bde:	b3 01       	movw	r22, r6
    2be0:	0e 94 2e 16 	call	0x2c5c	; 0x2c5c <fputc>
    2be4:	06 c0       	rjmp	.+12     	; 0x2bf2 <vfprintf+0x37c>
    2be6:	80 e3       	ldi	r24, 0x30	; 48
    2be8:	90 e0       	ldi	r25, 0x00	; 0
    2bea:	b3 01       	movw	r22, r6
    2bec:	0e 94 2e 16 	call	0x2c5c	; 0x2c5c <fputc>
    2bf0:	9a 94       	dec	r9
    2bf2:	d9 14       	cp	r13, r9
    2bf4:	c0 f3       	brcs	.-16     	; 0x2be6 <vfprintf+0x370>
    2bf6:	da 94       	dec	r13
    2bf8:	f1 01       	movw	r30, r2
    2bfa:	ed 0d       	add	r30, r13
    2bfc:	f1 1d       	adc	r31, r1
    2bfe:	80 81       	ld	r24, Z
    2c00:	90 e0       	ldi	r25, 0x00	; 0
    2c02:	b3 01       	movw	r22, r6
    2c04:	0e 94 2e 16 	call	0x2c5c	; 0x2c5c <fputc>
    2c08:	dd 20       	and	r13, r13
    2c0a:	a9 f7       	brne	.-22     	; 0x2bf6 <vfprintf+0x380>
    2c0c:	06 c0       	rjmp	.+12     	; 0x2c1a <vfprintf+0x3a4>
    2c0e:	80 e2       	ldi	r24, 0x20	; 32
    2c10:	90 e0       	ldi	r25, 0x00	; 0
    2c12:	b3 01       	movw	r22, r6
    2c14:	0e 94 2e 16 	call	0x2c5c	; 0x2c5c <fputc>
    2c18:	ea 94       	dec	r14
    2c1a:	ee 20       	and	r14, r14
    2c1c:	c1 f7       	brne	.-16     	; 0x2c0e <vfprintf+0x398>
    2c1e:	43 ce       	rjmp	.-890    	; 0x28a6 <vfprintf+0x30>
    2c20:	f3 01       	movw	r30, r6
    2c22:	66 81       	ldd	r22, Z+6	; 0x06
    2c24:	77 81       	ldd	r23, Z+7	; 0x07
    2c26:	cb 01       	movw	r24, r22
    2c28:	2b 96       	adiw	r28, 0x0b	; 11
    2c2a:	e2 e1       	ldi	r30, 0x12	; 18
    2c2c:	0c 94 fc 13 	jmp	0x27f8	; 0x27f8 <__epilogue_restores__>

00002c30 <strnlen_P>:
    2c30:	fc 01       	movw	r30, r24
    2c32:	05 90       	lpm	r0, Z+
    2c34:	61 50       	subi	r22, 0x01	; 1
    2c36:	70 40       	sbci	r23, 0x00	; 0
    2c38:	01 10       	cpse	r0, r1
    2c3a:	d8 f7       	brcc	.-10     	; 0x2c32 <strnlen_P+0x2>
    2c3c:	80 95       	com	r24
    2c3e:	90 95       	com	r25
    2c40:	8e 0f       	add	r24, r30
    2c42:	9f 1f       	adc	r25, r31
    2c44:	08 95       	ret

00002c46 <strnlen>:
    2c46:	fc 01       	movw	r30, r24
    2c48:	61 50       	subi	r22, 0x01	; 1
    2c4a:	70 40       	sbci	r23, 0x00	; 0
    2c4c:	01 90       	ld	r0, Z+
    2c4e:	01 10       	cpse	r0, r1
    2c50:	d8 f7       	brcc	.-10     	; 0x2c48 <strnlen+0x2>
    2c52:	80 95       	com	r24
    2c54:	90 95       	com	r25
    2c56:	8e 0f       	add	r24, r30
    2c58:	9f 1f       	adc	r25, r31
    2c5a:	08 95       	ret

00002c5c <fputc>:
    2c5c:	0f 93       	push	r16
    2c5e:	1f 93       	push	r17
    2c60:	cf 93       	push	r28
    2c62:	df 93       	push	r29
    2c64:	8c 01       	movw	r16, r24
    2c66:	eb 01       	movw	r28, r22
    2c68:	8b 81       	ldd	r24, Y+3	; 0x03
    2c6a:	81 ff       	sbrs	r24, 1
    2c6c:	1b c0       	rjmp	.+54     	; 0x2ca4 <fputc+0x48>
    2c6e:	82 ff       	sbrs	r24, 2
    2c70:	0d c0       	rjmp	.+26     	; 0x2c8c <fputc+0x30>
    2c72:	2e 81       	ldd	r18, Y+6	; 0x06
    2c74:	3f 81       	ldd	r19, Y+7	; 0x07
    2c76:	8c 81       	ldd	r24, Y+4	; 0x04
    2c78:	9d 81       	ldd	r25, Y+5	; 0x05
    2c7a:	28 17       	cp	r18, r24
    2c7c:	39 07       	cpc	r19, r25
    2c7e:	64 f4       	brge	.+24     	; 0x2c98 <fputc+0x3c>
    2c80:	e8 81       	ld	r30, Y
    2c82:	f9 81       	ldd	r31, Y+1	; 0x01
    2c84:	01 93       	st	Z+, r16
    2c86:	f9 83       	std	Y+1, r31	; 0x01
    2c88:	e8 83       	st	Y, r30
    2c8a:	06 c0       	rjmp	.+12     	; 0x2c98 <fputc+0x3c>
    2c8c:	e8 85       	ldd	r30, Y+8	; 0x08
    2c8e:	f9 85       	ldd	r31, Y+9	; 0x09
    2c90:	80 2f       	mov	r24, r16
    2c92:	09 95       	icall
    2c94:	89 2b       	or	r24, r25
    2c96:	31 f4       	brne	.+12     	; 0x2ca4 <fputc+0x48>
    2c98:	8e 81       	ldd	r24, Y+6	; 0x06
    2c9a:	9f 81       	ldd	r25, Y+7	; 0x07
    2c9c:	01 96       	adiw	r24, 0x01	; 1
    2c9e:	9f 83       	std	Y+7, r25	; 0x07
    2ca0:	8e 83       	std	Y+6, r24	; 0x06
    2ca2:	02 c0       	rjmp	.+4      	; 0x2ca8 <fputc+0x4c>
    2ca4:	0f ef       	ldi	r16, 0xFF	; 255
    2ca6:	1f ef       	ldi	r17, 0xFF	; 255
    2ca8:	c8 01       	movw	r24, r16
    2caa:	df 91       	pop	r29
    2cac:	cf 91       	pop	r28
    2cae:	1f 91       	pop	r17
    2cb0:	0f 91       	pop	r16
    2cb2:	08 95       	ret

00002cb4 <__ultoa_invert>:
    2cb4:	fa 01       	movw	r30, r20
    2cb6:	aa 27       	eor	r26, r26
    2cb8:	28 30       	cpi	r18, 0x08	; 8
    2cba:	51 f1       	breq	.+84     	; 0x2d10 <__ultoa_invert+0x5c>
    2cbc:	20 31       	cpi	r18, 0x10	; 16
    2cbe:	81 f1       	breq	.+96     	; 0x2d20 <__ultoa_invert+0x6c>
    2cc0:	e8 94       	clt
    2cc2:	6f 93       	push	r22
    2cc4:	6e 7f       	andi	r22, 0xFE	; 254
    2cc6:	6e 5f       	subi	r22, 0xFE	; 254
    2cc8:	7f 4f       	sbci	r23, 0xFF	; 255
    2cca:	8f 4f       	sbci	r24, 0xFF	; 255
    2ccc:	9f 4f       	sbci	r25, 0xFF	; 255
    2cce:	af 4f       	sbci	r26, 0xFF	; 255
    2cd0:	b1 e0       	ldi	r27, 0x01	; 1
    2cd2:	3e d0       	rcall	.+124    	; 0x2d50 <__ultoa_invert+0x9c>
    2cd4:	b4 e0       	ldi	r27, 0x04	; 4
    2cd6:	3c d0       	rcall	.+120    	; 0x2d50 <__ultoa_invert+0x9c>
    2cd8:	67 0f       	add	r22, r23
    2cda:	78 1f       	adc	r23, r24
    2cdc:	89 1f       	adc	r24, r25
    2cde:	9a 1f       	adc	r25, r26
    2ce0:	a1 1d       	adc	r26, r1
    2ce2:	68 0f       	add	r22, r24
    2ce4:	79 1f       	adc	r23, r25
    2ce6:	8a 1f       	adc	r24, r26
    2ce8:	91 1d       	adc	r25, r1
    2cea:	a1 1d       	adc	r26, r1
    2cec:	6a 0f       	add	r22, r26
    2cee:	71 1d       	adc	r23, r1
    2cf0:	81 1d       	adc	r24, r1
    2cf2:	91 1d       	adc	r25, r1
    2cf4:	a1 1d       	adc	r26, r1
    2cf6:	20 d0       	rcall	.+64     	; 0x2d38 <__ultoa_invert+0x84>
    2cf8:	09 f4       	brne	.+2      	; 0x2cfc <__ultoa_invert+0x48>
    2cfa:	68 94       	set
    2cfc:	3f 91       	pop	r19
    2cfe:	2a e0       	ldi	r18, 0x0A	; 10
    2d00:	26 9f       	mul	r18, r22
    2d02:	11 24       	eor	r1, r1
    2d04:	30 19       	sub	r19, r0
    2d06:	30 5d       	subi	r19, 0xD0	; 208
    2d08:	31 93       	st	Z+, r19
    2d0a:	de f6       	brtc	.-74     	; 0x2cc2 <__ultoa_invert+0xe>
    2d0c:	cf 01       	movw	r24, r30
    2d0e:	08 95       	ret
    2d10:	46 2f       	mov	r20, r22
    2d12:	47 70       	andi	r20, 0x07	; 7
    2d14:	40 5d       	subi	r20, 0xD0	; 208
    2d16:	41 93       	st	Z+, r20
    2d18:	b3 e0       	ldi	r27, 0x03	; 3
    2d1a:	0f d0       	rcall	.+30     	; 0x2d3a <__ultoa_invert+0x86>
    2d1c:	c9 f7       	brne	.-14     	; 0x2d10 <__ultoa_invert+0x5c>
    2d1e:	f6 cf       	rjmp	.-20     	; 0x2d0c <__ultoa_invert+0x58>
    2d20:	46 2f       	mov	r20, r22
    2d22:	4f 70       	andi	r20, 0x0F	; 15
    2d24:	40 5d       	subi	r20, 0xD0	; 208
    2d26:	4a 33       	cpi	r20, 0x3A	; 58
    2d28:	18 f0       	brcs	.+6      	; 0x2d30 <__ultoa_invert+0x7c>
    2d2a:	49 5d       	subi	r20, 0xD9	; 217
    2d2c:	31 fd       	sbrc	r19, 1
    2d2e:	40 52       	subi	r20, 0x20	; 32
    2d30:	41 93       	st	Z+, r20
    2d32:	02 d0       	rcall	.+4      	; 0x2d38 <__ultoa_invert+0x84>
    2d34:	a9 f7       	brne	.-22     	; 0x2d20 <__ultoa_invert+0x6c>
    2d36:	ea cf       	rjmp	.-44     	; 0x2d0c <__ultoa_invert+0x58>
    2d38:	b4 e0       	ldi	r27, 0x04	; 4
    2d3a:	a6 95       	lsr	r26
    2d3c:	97 95       	ror	r25
    2d3e:	87 95       	ror	r24
    2d40:	77 95       	ror	r23
    2d42:	67 95       	ror	r22
    2d44:	ba 95       	dec	r27
    2d46:	c9 f7       	brne	.-14     	; 0x2d3a <__ultoa_invert+0x86>
    2d48:	00 97       	sbiw	r24, 0x00	; 0
    2d4a:	61 05       	cpc	r22, r1
    2d4c:	71 05       	cpc	r23, r1
    2d4e:	08 95       	ret
    2d50:	9b 01       	movw	r18, r22
    2d52:	ac 01       	movw	r20, r24
    2d54:	0a 2e       	mov	r0, r26
    2d56:	06 94       	lsr	r0
    2d58:	57 95       	ror	r21
    2d5a:	47 95       	ror	r20
    2d5c:	37 95       	ror	r19
    2d5e:	27 95       	ror	r18
    2d60:	ba 95       	dec	r27
    2d62:	c9 f7       	brne	.-14     	; 0x2d56 <__ultoa_invert+0xa2>
    2d64:	62 0f       	add	r22, r18
    2d66:	73 1f       	adc	r23, r19
    2d68:	84 1f       	adc	r24, r20
    2d6a:	95 1f       	adc	r25, r21
    2d6c:	a0 1d       	adc	r26, r0
    2d6e:	08 95       	ret

00002d70 <_exit>:
    2d70:	f8 94       	cli

00002d72 <__stop_program>:
    2d72:	ff cf       	rjmp	.-2      	; 0x2d72 <__stop_program>
