
SD_gotowy.elf:     file format elf32-avr

Sections:
Idx Name          Size      VMA       LMA       File off  Algn
  0 .text         00004132  00000000  00000000  00000094  2**1
                  CONTENTS, ALLOC, LOAD, READONLY, CODE
  1 .data         000000f2  00800060  00004132  000041c6  2**0
                  CONTENTS, ALLOC, LOAD, DATA
  2 .bss          0000027a  00800152  00800152  000042b8  2**0
                  ALLOC

Disassembly of section .text:

00000000 <__vectors>:
       0:	0c 94 2a 00 	jmp	0x54	; 0x54 <__ctors_end>
       4:	0c 94 47 00 	jmp	0x8e	; 0x8e <__bad_interrupt>
       8:	0c 94 47 00 	jmp	0x8e	; 0x8e <__bad_interrupt>
       c:	0c 94 47 00 	jmp	0x8e	; 0x8e <__bad_interrupt>
      10:	0c 94 dc 15 	jmp	0x2bb8	; 0x2bb8 <__vector_4>
      14:	0c 94 47 00 	jmp	0x8e	; 0x8e <__bad_interrupt>
      18:	0c 94 47 00 	jmp	0x8e	; 0x8e <__bad_interrupt>
      1c:	0c 94 47 00 	jmp	0x8e	; 0x8e <__bad_interrupt>
      20:	0c 94 47 00 	jmp	0x8e	; 0x8e <__bad_interrupt>
      24:	0c 94 47 00 	jmp	0x8e	; 0x8e <__bad_interrupt>
      28:	0c 94 47 00 	jmp	0x8e	; 0x8e <__bad_interrupt>
      2c:	0c 94 47 00 	jmp	0x8e	; 0x8e <__bad_interrupt>
      30:	0c 94 47 00 	jmp	0x8e	; 0x8e <__bad_interrupt>
      34:	0c 94 47 00 	jmp	0x8e	; 0x8e <__bad_interrupt>
      38:	0c 94 47 00 	jmp	0x8e	; 0x8e <__bad_interrupt>
      3c:	0c 94 47 00 	jmp	0x8e	; 0x8e <__bad_interrupt>
      40:	0c 94 47 00 	jmp	0x8e	; 0x8e <__bad_interrupt>
      44:	0c 94 47 00 	jmp	0x8e	; 0x8e <__bad_interrupt>
      48:	0c 94 47 00 	jmp	0x8e	; 0x8e <__bad_interrupt>
      4c:	0c 94 47 00 	jmp	0x8e	; 0x8e <__bad_interrupt>
      50:	0c 94 47 00 	jmp	0x8e	; 0x8e <__bad_interrupt>

00000054 <__ctors_end>:
      54:	11 24       	eor	r1, r1
      56:	1f be       	out	0x3f, r1	; 63
      58:	cf e5       	ldi	r28, 0x5F	; 95
      5a:	d8 e0       	ldi	r29, 0x08	; 8
      5c:	de bf       	out	0x3e, r29	; 62
      5e:	cd bf       	out	0x3d, r28	; 61

00000060 <__do_copy_data>:
      60:	11 e0       	ldi	r17, 0x01	; 1
      62:	a0 e6       	ldi	r26, 0x60	; 96
      64:	b0 e0       	ldi	r27, 0x00	; 0
      66:	e2 e3       	ldi	r30, 0x32	; 50
      68:	f1 e4       	ldi	r31, 0x41	; 65
      6a:	02 c0       	rjmp	.+4      	; 0x70 <.do_copy_data_start>

0000006c <.do_copy_data_loop>:
      6c:	05 90       	lpm	r0, Z+
      6e:	0d 92       	st	X+, r0

00000070 <.do_copy_data_start>:
      70:	a2 35       	cpi	r26, 0x52	; 82
      72:	b1 07       	cpc	r27, r17
      74:	d9 f7       	brne	.-10     	; 0x6c <.do_copy_data_loop>

00000076 <__do_clear_bss>:
      76:	13 e0       	ldi	r17, 0x03	; 3
      78:	a2 e5       	ldi	r26, 0x52	; 82
      7a:	b1 e0       	ldi	r27, 0x01	; 1
      7c:	01 c0       	rjmp	.+2      	; 0x80 <.do_clear_bss_start>

0000007e <.do_clear_bss_loop>:
      7e:	1d 92       	st	X+, r1

00000080 <.do_clear_bss_start>:
      80:	ac 3c       	cpi	r26, 0xCC	; 204
      82:	b1 07       	cpc	r27, r17
      84:	e1 f7       	brne	.-8      	; 0x7e <.do_clear_bss_loop>
      86:	0e 94 09 16 	call	0x2c12	; 0x2c12 <main>
      8a:	0c 94 97 20 	jmp	0x412e	; 0x412e <_exit>

0000008e <__bad_interrupt>:
      8e:	0c 94 00 00 	jmp	0	; 0x0 <__vectors>

00000092 <_LCD_OutNibble>:
      92:	80 ff       	sbrs	r24, 0
      94:	02 c0       	rjmp	.+4      	; 0x9a <_LCD_OutNibble+0x8>
      96:	d8 9a       	sbi	0x1b, 0	; 27
      98:	01 c0       	rjmp	.+2      	; 0x9c <_LCD_OutNibble+0xa>
      9a:	d8 98       	cbi	0x1b, 0	; 27
      9c:	81 ff       	sbrs	r24, 1
      9e:	02 c0       	rjmp	.+4      	; 0xa4 <_LCD_OutNibble+0x12>
      a0:	d9 9a       	sbi	0x1b, 1	; 27
      a2:	01 c0       	rjmp	.+2      	; 0xa6 <_LCD_OutNibble+0x14>
      a4:	d9 98       	cbi	0x1b, 1	; 27
      a6:	82 ff       	sbrs	r24, 2
      a8:	02 c0       	rjmp	.+4      	; 0xae <_LCD_OutNibble+0x1c>
      aa:	da 9a       	sbi	0x1b, 2	; 27
      ac:	01 c0       	rjmp	.+2      	; 0xb0 <_LCD_OutNibble+0x1e>
      ae:	da 98       	cbi	0x1b, 2	; 27
      b0:	83 ff       	sbrs	r24, 3
      b2:	02 c0       	rjmp	.+4      	; 0xb8 <_LCD_OutNibble+0x26>
      b4:	db 9a       	sbi	0x1b, 3	; 27
      b6:	08 95       	ret
      b8:	db 98       	cbi	0x1b, 3	; 27
      ba:	08 95       	ret

000000bc <_LCD_Write>:
      bc:	1f 93       	push	r17
      be:	18 2f       	mov	r17, r24
      c0:	c1 9a       	sbi	0x18, 1	; 24
      c2:	82 95       	swap	r24
      c4:	8f 70       	andi	r24, 0x0F	; 15
      c6:	0e 94 49 00 	call	0x92	; 0x92 <_LCD_OutNibble>
      ca:	c1 98       	cbi	0x18, 1	; 24
      cc:	c1 9a       	sbi	0x18, 1	; 24
      ce:	81 2f       	mov	r24, r17
      d0:	0e 94 49 00 	call	0x92	; 0x92 <_LCD_OutNibble>
      d4:	c1 98       	cbi	0x18, 1	; 24
      d6:	85 e8       	ldi	r24, 0x85	; 133
      d8:	8a 95       	dec	r24
      da:	f1 f7       	brne	.-4      	; 0xd8 <_LCD_Write+0x1c>
      dc:	1f 91       	pop	r17
      de:	08 95       	ret

000000e0 <LCD_WriteCommand>:
      e0:	c0 98       	cbi	0x18, 0	; 24
      e2:	0e 94 5e 00 	call	0xbc	; 0xbc <_LCD_Write>
      e6:	08 95       	ret

000000e8 <LCD_WriteData>:
      e8:	c0 9a       	sbi	0x18, 0	; 24
      ea:	0e 94 5e 00 	call	0xbc	; 0xbc <_LCD_Write>
      ee:	08 95       	ret

000000f0 <LCD_WriteText>:
      f0:	cf 93       	push	r28
      f2:	df 93       	push	r29
      f4:	ec 01       	movw	r28, r24
      f6:	03 c0       	rjmp	.+6      	; 0xfe <LCD_WriteText+0xe>
      f8:	21 96       	adiw	r28, 0x01	; 1
      fa:	0e 94 74 00 	call	0xe8	; 0xe8 <LCD_WriteData>
      fe:	88 81       	ld	r24, Y
     100:	88 23       	and	r24, r24
     102:	d1 f7       	brne	.-12     	; 0xf8 <LCD_WriteText+0x8>
     104:	df 91       	pop	r29
     106:	cf 91       	pop	r28
     108:	08 95       	ret

0000010a <LCD_GoTo>:
     10a:	62 95       	swap	r22
     10c:	66 0f       	add	r22, r22
     10e:	66 0f       	add	r22, r22
     110:	60 7c       	andi	r22, 0xC0	; 192
     112:	68 0f       	add	r22, r24
     114:	86 2f       	mov	r24, r22
     116:	80 68       	ori	r24, 0x80	; 128
     118:	0e 94 70 00 	call	0xe0	; 0xe0 <LCD_WriteCommand>
     11c:	08 95       	ret

0000011e <LCD_Clear>:
     11e:	81 e0       	ldi	r24, 0x01	; 1
     120:	0e 94 70 00 	call	0xe0	; 0xe0 <LCD_WriteCommand>
     124:	80 ea       	ldi	r24, 0xA0	; 160
     126:	9f e0       	ldi	r25, 0x0F	; 15
     128:	01 97       	sbiw	r24, 0x01	; 1
     12a:	f1 f7       	brne	.-4      	; 0x128 <LCD_Clear+0xa>
     12c:	08 95       	ret

0000012e <LCD_Home>:
     12e:	82 e0       	ldi	r24, 0x02	; 2
     130:	0e 94 70 00 	call	0xe0	; 0xe0 <LCD_WriteCommand>
     134:	80 ea       	ldi	r24, 0xA0	; 160
     136:	9f e0       	ldi	r25, 0x0F	; 15
     138:	01 97       	sbiw	r24, 0x01	; 1
     13a:	f1 f7       	brne	.-4      	; 0x138 <LCD_Home+0xa>
     13c:	08 95       	ret

0000013e <LCD_Initalize>:
     13e:	1f 93       	push	r17
     140:	cf 93       	push	r28
     142:	df 93       	push	r29
     144:	d0 9a       	sbi	0x1a, 0	; 26
     146:	d1 9a       	sbi	0x1a, 1	; 26
     148:	d2 9a       	sbi	0x1a, 2	; 26
     14a:	d3 9a       	sbi	0x1a, 3	; 26
     14c:	b9 9a       	sbi	0x17, 1	; 23
     14e:	b8 9a       	sbi	0x17, 0	; 23
     150:	80 e3       	ldi	r24, 0x30	; 48
     152:	95 e7       	ldi	r25, 0x75	; 117
     154:	01 97       	sbiw	r24, 0x01	; 1
     156:	f1 f7       	brne	.-4      	; 0x154 <LCD_Initalize+0x16>
     158:	c0 98       	cbi	0x18, 0	; 24
     15a:	c1 98       	cbi	0x18, 1	; 24
     15c:	10 e0       	ldi	r17, 0x00	; 0
     15e:	c0 e1       	ldi	r28, 0x10	; 16
     160:	d7 e2       	ldi	r29, 0x27	; 39
     162:	c1 9a       	sbi	0x18, 1	; 24
     164:	83 e0       	ldi	r24, 0x03	; 3
     166:	0e 94 49 00 	call	0x92	; 0x92 <_LCD_OutNibble>
     16a:	c1 98       	cbi	0x18, 1	; 24
     16c:	ce 01       	movw	r24, r28
     16e:	01 97       	sbiw	r24, 0x01	; 1
     170:	f1 f7       	brne	.-4      	; 0x16e <LCD_Initalize+0x30>
     172:	1f 5f       	subi	r17, 0xFF	; 255
     174:	13 30       	cpi	r17, 0x03	; 3
     176:	a9 f7       	brne	.-22     	; 0x162 <LCD_Initalize+0x24>
     178:	c1 9a       	sbi	0x18, 1	; 24
     17a:	82 e0       	ldi	r24, 0x02	; 2
     17c:	0e 94 49 00 	call	0x92	; 0x92 <_LCD_OutNibble>
     180:	c1 98       	cbi	0x18, 1	; 24
     182:	80 ed       	ldi	r24, 0xD0	; 208
     184:	97 e0       	ldi	r25, 0x07	; 7
     186:	01 97       	sbiw	r24, 0x01	; 1
     188:	f1 f7       	brne	.-4      	; 0x186 <LCD_Initalize+0x48>
     18a:	88 e2       	ldi	r24, 0x28	; 40
     18c:	0e 94 70 00 	call	0xe0	; 0xe0 <LCD_WriteCommand>
     190:	88 e0       	ldi	r24, 0x08	; 8
     192:	0e 94 70 00 	call	0xe0	; 0xe0 <LCD_WriteCommand>
     196:	81 e0       	ldi	r24, 0x01	; 1
     198:	0e 94 70 00 	call	0xe0	; 0xe0 <LCD_WriteCommand>
     19c:	80 ea       	ldi	r24, 0xA0	; 160
     19e:	9f e0       	ldi	r25, 0x0F	; 15
     1a0:	01 97       	sbiw	r24, 0x01	; 1
     1a2:	f1 f7       	brne	.-4      	; 0x1a0 <LCD_Initalize+0x62>
     1a4:	86 e0       	ldi	r24, 0x06	; 6
     1a6:	0e 94 70 00 	call	0xe0	; 0xe0 <LCD_WriteCommand>
     1aa:	8c e0       	ldi	r24, 0x0C	; 12
     1ac:	0e 94 70 00 	call	0xe0	; 0xe0 <LCD_WriteCommand>
     1b0:	df 91       	pop	r29
     1b2:	cf 91       	pop	r28
     1b4:	1f 91       	pop	r17
     1b6:	08 95       	ret

000001b8 <disk_timerproc>:
     1b8:	0e 94 23 1d 	call	0x3a46	; 0x3a46 <mmc_disk_timerproc>
     1bc:	08 95       	ret

000001be <disk_ioctl>:
     1be:	88 23       	and	r24, r24
     1c0:	11 f0       	breq	.+4      	; 0x1c6 <disk_ioctl+0x8>
     1c2:	84 e0       	ldi	r24, 0x04	; 4
     1c4:	08 95       	ret
     1c6:	86 2f       	mov	r24, r22
     1c8:	ba 01       	movw	r22, r20
     1ca:	0e 94 ff 19 	call	0x33fe	; 0x33fe <mmc_disk_ioctl>
     1ce:	08 95       	ret

000001d0 <disk_write>:
     1d0:	0f 93       	push	r16
     1d2:	1f 93       	push	r17
     1d4:	88 23       	and	r24, r24
     1d6:	11 f0       	breq	.+4      	; 0x1dc <disk_write+0xc>
     1d8:	84 e0       	ldi	r24, 0x04	; 4
     1da:	06 c0       	rjmp	.+12     	; 0x1e8 <disk_write+0x18>
     1dc:	cb 01       	movw	r24, r22
     1de:	ba 01       	movw	r22, r20
     1e0:	a9 01       	movw	r20, r18
     1e2:	98 01       	movw	r18, r16
     1e4:	0e 94 88 19 	call	0x3310	; 0x3310 <mmc_disk_write>
     1e8:	1f 91       	pop	r17
     1ea:	0f 91       	pop	r16
     1ec:	08 95       	ret

000001ee <disk_read>:
     1ee:	0f 93       	push	r16
     1f0:	1f 93       	push	r17
     1f2:	88 23       	and	r24, r24
     1f4:	11 f0       	breq	.+4      	; 0x1fa <disk_read+0xc>
     1f6:	84 e0       	ldi	r24, 0x04	; 4
     1f8:	06 c0       	rjmp	.+12     	; 0x206 <disk_read+0x18>
     1fa:	cb 01       	movw	r24, r22
     1fc:	ba 01       	movw	r22, r20
     1fe:	a9 01       	movw	r20, r18
     200:	98 01       	movw	r18, r16
     202:	0e 94 38 19 	call	0x3270	; 0x3270 <mmc_disk_read>
     206:	1f 91       	pop	r17
     208:	0f 91       	pop	r16
     20a:	08 95       	ret

0000020c <disk_initialize>:
     20c:	88 23       	and	r24, r24
     20e:	11 f0       	breq	.+4      	; 0x214 <disk_initialize+0x8>
     210:	81 e0       	ldi	r24, 0x01	; 1
     212:	08 95       	ret
     214:	0e 94 54 18 	call	0x30a8	; 0x30a8 <mmc_disk_initialize>
     218:	08 95       	ret

0000021a <disk_status>:
     21a:	88 23       	and	r24, r24
     21c:	11 f0       	breq	.+4      	; 0x222 <disk_status+0x8>
     21e:	81 e0       	ldi	r24, 0x01	; 1
     220:	08 95       	ret
     222:	0e 94 35 19 	call	0x326a	; 0x326a <mmc_disk_status>
     226:	08 95       	ret

00000228 <ld_dword>:
     228:	fc 01       	movw	r30, r24
     22a:	23 81       	ldd	r18, Z+3	; 0x03
     22c:	30 e0       	ldi	r19, 0x00	; 0
     22e:	40 e0       	ldi	r20, 0x00	; 0
     230:	50 e0       	ldi	r21, 0x00	; 0
     232:	54 2f       	mov	r21, r20
     234:	43 2f       	mov	r20, r19
     236:	32 2f       	mov	r19, r18
     238:	22 27       	eor	r18, r18
     23a:	82 81       	ldd	r24, Z+2	; 0x02
     23c:	90 e0       	ldi	r25, 0x00	; 0
     23e:	a0 e0       	ldi	r26, 0x00	; 0
     240:	b0 e0       	ldi	r27, 0x00	; 0
     242:	28 2b       	or	r18, r24
     244:	39 2b       	or	r19, r25
     246:	4a 2b       	or	r20, r26
     248:	5b 2b       	or	r21, r27
     24a:	54 2f       	mov	r21, r20
     24c:	43 2f       	mov	r20, r19
     24e:	32 2f       	mov	r19, r18
     250:	22 27       	eor	r18, r18
     252:	81 81       	ldd	r24, Z+1	; 0x01
     254:	90 e0       	ldi	r25, 0x00	; 0
     256:	a0 e0       	ldi	r26, 0x00	; 0
     258:	b0 e0       	ldi	r27, 0x00	; 0
     25a:	28 2b       	or	r18, r24
     25c:	39 2b       	or	r19, r25
     25e:	4a 2b       	or	r20, r26
     260:	5b 2b       	or	r21, r27
     262:	54 2f       	mov	r21, r20
     264:	43 2f       	mov	r20, r19
     266:	32 2f       	mov	r19, r18
     268:	22 27       	eor	r18, r18
     26a:	80 81       	ld	r24, Z
     26c:	90 e0       	ldi	r25, 0x00	; 0
     26e:	a0 e0       	ldi	r26, 0x00	; 0
     270:	b0 e0       	ldi	r27, 0x00	; 0
     272:	28 2b       	or	r18, r24
     274:	39 2b       	or	r19, r25
     276:	4a 2b       	or	r20, r26
     278:	5b 2b       	or	r21, r27
     27a:	b9 01       	movw	r22, r18
     27c:	ca 01       	movw	r24, r20
     27e:	08 95       	ret

00000280 <st_dword>:
     280:	cf 93       	push	r28
     282:	df 93       	push	r29
     284:	9c 01       	movw	r18, r24
     286:	fc 01       	movw	r30, r24
     288:	41 93       	st	Z+, r20
     28a:	bb 27       	eor	r27, r27
     28c:	a7 2f       	mov	r26, r23
     28e:	96 2f       	mov	r25, r22
     290:	85 2f       	mov	r24, r21
     292:	e9 01       	movw	r28, r18
     294:	89 83       	std	Y+1, r24	; 0x01
     296:	cb 01       	movw	r24, r22
     298:	aa 27       	eor	r26, r26
     29a:	bb 27       	eor	r27, r27
     29c:	81 83       	std	Z+1, r24	; 0x01
     29e:	47 2f       	mov	r20, r23
     2a0:	55 27       	eor	r21, r21
     2a2:	66 27       	eor	r22, r22
     2a4:	77 27       	eor	r23, r23
     2a6:	42 83       	std	Z+2, r20	; 0x02
     2a8:	df 91       	pop	r29
     2aa:	cf 91       	pop	r28
     2ac:	08 95       	ret

000002ae <ld_clust>:
     2ae:	ef 92       	push	r14
     2b0:	ff 92       	push	r15
     2b2:	0f 93       	push	r16
     2b4:	1f 93       	push	r17
     2b6:	fc 01       	movw	r30, r24
     2b8:	db 01       	movw	r26, r22
     2ba:	5b 96       	adiw	r26, 0x1b	; 27
     2bc:	9c 91       	ld	r25, X
     2be:	5b 97       	sbiw	r26, 0x1b	; 27
     2c0:	80 e0       	ldi	r24, 0x00	; 0
     2c2:	5a 96       	adiw	r26, 0x1a	; 26
     2c4:	2c 91       	ld	r18, X
     2c6:	5a 97       	sbiw	r26, 0x1a	; 26
     2c8:	30 e0       	ldi	r19, 0x00	; 0
     2ca:	82 2b       	or	r24, r18
     2cc:	93 2b       	or	r25, r19
     2ce:	7c 01       	movw	r14, r24
     2d0:	00 e0       	ldi	r16, 0x00	; 0
     2d2:	10 e0       	ldi	r17, 0x00	; 0
     2d4:	80 81       	ld	r24, Z
     2d6:	83 30       	cpi	r24, 0x03	; 3
     2d8:	91 f4       	brne	.+36     	; 0x2fe <ld_clust+0x50>
     2da:	55 96       	adiw	r26, 0x15	; 21
     2dc:	9c 91       	ld	r25, X
     2de:	55 97       	sbiw	r26, 0x15	; 21
     2e0:	80 e0       	ldi	r24, 0x00	; 0
     2e2:	54 96       	adiw	r26, 0x14	; 20
     2e4:	2c 91       	ld	r18, X
     2e6:	30 e0       	ldi	r19, 0x00	; 0
     2e8:	82 2b       	or	r24, r18
     2ea:	93 2b       	or	r25, r19
     2ec:	a0 e0       	ldi	r26, 0x00	; 0
     2ee:	b0 e0       	ldi	r27, 0x00	; 0
     2f0:	dc 01       	movw	r26, r24
     2f2:	99 27       	eor	r25, r25
     2f4:	88 27       	eor	r24, r24
     2f6:	e8 2a       	or	r14, r24
     2f8:	f9 2a       	or	r15, r25
     2fa:	0a 2b       	or	r16, r26
     2fc:	1b 2b       	or	r17, r27
     2fe:	b7 01       	movw	r22, r14
     300:	c8 01       	movw	r24, r16
     302:	1f 91       	pop	r17
     304:	0f 91       	pop	r16
     306:	ff 90       	pop	r15
     308:	ef 90       	pop	r14
     30a:	08 95       	ret

0000030c <get_ldnumber>:
     30c:	cf 93       	push	r28
     30e:	df 93       	push	r29
     310:	ec 01       	movw	r28, r24
     312:	e8 81       	ld	r30, Y
     314:	f9 81       	ldd	r31, Y+1	; 0x01
     316:	30 97       	sbiw	r30, 0x00	; 0
     318:	f9 f0       	breq	.+62     	; 0x358 <get_ldnumber+0x4c>
     31a:	df 01       	movw	r26, r30
     31c:	8c 91       	ld	r24, X
     31e:	81 32       	cpi	r24, 0x21	; 33
     320:	b0 f0       	brcs	.+44     	; 0x34e <get_ldnumber+0x42>
     322:	11 96       	adiw	r26, 0x01	; 1
     324:	8a 33       	cpi	r24, 0x3A	; 58
     326:	d1 f7       	brne	.-12     	; 0x31c <get_ldnumber+0x10>
     328:	90 81       	ld	r25, Z
     32a:	89 2f       	mov	r24, r25
     32c:	80 53       	subi	r24, 0x30	; 48
     32e:	8a 30       	cpi	r24, 0x0A	; 10
     330:	98 f4       	brcc	.+38     	; 0x358 <get_ldnumber+0x4c>
     332:	32 96       	adiw	r30, 0x02	; 2
     334:	ea 17       	cp	r30, r26
     336:	fb 07       	cpc	r31, r27
     338:	79 f4       	brne	.+30     	; 0x358 <get_ldnumber+0x4c>
     33a:	89 2f       	mov	r24, r25
     33c:	90 e0       	ldi	r25, 0x00	; 0
     33e:	c0 97       	sbiw	r24, 0x30	; 48
     340:	82 30       	cpi	r24, 0x02	; 2
     342:	91 05       	cpc	r25, r1
     344:	4c f4       	brge	.+18     	; 0x358 <get_ldnumber+0x4c>
     346:	b9 83       	std	Y+1, r27	; 0x01
     348:	a8 83       	st	Y, r26
     34a:	9c 01       	movw	r18, r24
     34c:	07 c0       	rjmp	.+14     	; 0x35c <get_ldnumber+0x50>
     34e:	80 91 58 01 	lds	r24, 0x0158
     352:	28 2f       	mov	r18, r24
     354:	30 e0       	ldi	r19, 0x00	; 0
     356:	02 c0       	rjmp	.+4      	; 0x35c <get_ldnumber+0x50>
     358:	2f ef       	ldi	r18, 0xFF	; 255
     35a:	3f ef       	ldi	r19, 0xFF	; 255
     35c:	c9 01       	movw	r24, r18
     35e:	df 91       	pop	r29
     360:	cf 91       	pop	r28
     362:	08 95       	ret

00000364 <validate>:
     364:	0f 93       	push	r16
     366:	1f 93       	push	r17
     368:	cf 93       	push	r28
     36a:	df 93       	push	r29
     36c:	ec 01       	movw	r28, r24
     36e:	8b 01       	movw	r16, r22
     370:	00 97       	sbiw	r24, 0x00	; 0
     372:	99 f0       	breq	.+38     	; 0x39a <validate+0x36>
     374:	e8 81       	ld	r30, Y
     376:	f9 81       	ldd	r31, Y+1	; 0x01
     378:	30 97       	sbiw	r30, 0x00	; 0
     37a:	79 f0       	breq	.+30     	; 0x39a <validate+0x36>
     37c:	80 81       	ld	r24, Z
     37e:	88 23       	and	r24, r24
     380:	61 f0       	breq	.+24     	; 0x39a <validate+0x36>
     382:	2a 81       	ldd	r18, Y+2	; 0x02
     384:	3b 81       	ldd	r19, Y+3	; 0x03
     386:	85 81       	ldd	r24, Z+5	; 0x05
     388:	96 81       	ldd	r25, Z+6	; 0x06
     38a:	28 17       	cp	r18, r24
     38c:	39 07       	cpc	r19, r25
     38e:	29 f4       	brne	.+10     	; 0x39a <validate+0x36>
     390:	81 81       	ldd	r24, Z+1	; 0x01
     392:	0e 94 0d 01 	call	0x21a	; 0x21a <disk_status>
     396:	80 ff       	sbrs	r24, 0
     398:	0c c0       	rjmp	.+24     	; 0x3b2 <validate+0x4e>
     39a:	80 e0       	ldi	r24, 0x00	; 0
     39c:	90 e0       	ldi	r25, 0x00	; 0
     39e:	29 e0       	ldi	r18, 0x09	; 9
     3a0:	f8 01       	movw	r30, r16
     3a2:	91 83       	std	Z+1, r25	; 0x01
     3a4:	80 83       	st	Z, r24
     3a6:	82 2f       	mov	r24, r18
     3a8:	df 91       	pop	r29
     3aa:	cf 91       	pop	r28
     3ac:	1f 91       	pop	r17
     3ae:	0f 91       	pop	r16
     3b0:	08 95       	ret
     3b2:	88 81       	ld	r24, Y
     3b4:	99 81       	ldd	r25, Y+1	; 0x01
     3b6:	20 e0       	ldi	r18, 0x00	; 0
     3b8:	f3 cf       	rjmp	.-26     	; 0x3a0 <validate+0x3c>

000003ba <sync_window>:
     3ba:	8f 92       	push	r8
     3bc:	9f 92       	push	r9
     3be:	af 92       	push	r10
     3c0:	bf 92       	push	r11
     3c2:	cf 92       	push	r12
     3c4:	df 92       	push	r13
     3c6:	ef 92       	push	r14
     3c8:	ff 92       	push	r15
     3ca:	0f 93       	push	r16
     3cc:	1f 93       	push	r17
     3ce:	cf 93       	push	r28
     3d0:	df 93       	push	r29
     3d2:	ec 01       	movw	r28, r24
     3d4:	8b 81       	ldd	r24, Y+3	; 0x03
     3d6:	88 23       	and	r24, r24
     3d8:	c1 f1       	breq	.+112    	; 0x44a <sync_window+0x90>
     3da:	33 e3       	ldi	r19, 0x33	; 51
     3dc:	c3 2e       	mov	r12, r19
     3de:	d1 2c       	mov	r13, r1
     3e0:	cc 0e       	add	r12, r28
     3e2:	dd 1e       	adc	r13, r29
     3e4:	2f a5       	ldd	r18, Y+47	; 0x2f
     3e6:	38 a9       	ldd	r19, Y+48	; 0x30
     3e8:	49 a9       	ldd	r20, Y+49	; 0x31
     3ea:	5a a9       	ldd	r21, Y+50	; 0x32
     3ec:	89 81       	ldd	r24, Y+1	; 0x01
     3ee:	b6 01       	movw	r22, r12
     3f0:	01 e0       	ldi	r16, 0x01	; 1
     3f2:	10 e0       	ldi	r17, 0x00	; 0
     3f4:	0e 94 e8 00 	call	0x1d0	; 0x1d0 <disk_write>
     3f8:	88 23       	and	r24, r24
     3fa:	11 f0       	breq	.+4      	; 0x400 <sync_window+0x46>
     3fc:	81 e0       	ldi	r24, 0x01	; 1
     3fe:	26 c0       	rjmp	.+76     	; 0x44c <sync_window+0x92>
     400:	1b 82       	std	Y+3, r1	; 0x03
     402:	ef a4       	ldd	r14, Y+47	; 0x2f
     404:	f8 a8       	ldd	r15, Y+48	; 0x30
     406:	09 a9       	ldd	r16, Y+49	; 0x31
     408:	1a a9       	ldd	r17, Y+50	; 0x32
     40a:	2b 8d       	ldd	r18, Y+27	; 0x1b
     40c:	3c 8d       	ldd	r19, Y+28	; 0x1c
     40e:	4d 8d       	ldd	r20, Y+29	; 0x1d
     410:	5e 8d       	ldd	r21, Y+30	; 0x1e
     412:	8b a1       	ldd	r24, Y+35	; 0x23
     414:	9c a1       	ldd	r25, Y+36	; 0x24
     416:	ad a1       	ldd	r26, Y+37	; 0x25
     418:	be a1       	ldd	r27, Y+38	; 0x26
     41a:	47 01       	movw	r8, r14
     41c:	58 01       	movw	r10, r16
     41e:	88 1a       	sub	r8, r24
     420:	99 0a       	sbc	r9, r25
     422:	aa 0a       	sbc	r10, r26
     424:	bb 0a       	sbc	r11, r27
     426:	82 16       	cp	r8, r18
     428:	93 06       	cpc	r9, r19
     42a:	a4 06       	cpc	r10, r20
     42c:	b5 06       	cpc	r11, r21
     42e:	68 f4       	brcc	.+26     	; 0x44a <sync_window+0x90>
     430:	8a 81       	ldd	r24, Y+2	; 0x02
     432:	82 30       	cpi	r24, 0x02	; 2
     434:	51 f4       	brne	.+20     	; 0x44a <sync_window+0x90>
     436:	2e 0d       	add	r18, r14
     438:	3f 1d       	adc	r19, r15
     43a:	40 1f       	adc	r20, r16
     43c:	51 1f       	adc	r21, r17
     43e:	89 81       	ldd	r24, Y+1	; 0x01
     440:	b6 01       	movw	r22, r12
     442:	01 e0       	ldi	r16, 0x01	; 1
     444:	10 e0       	ldi	r17, 0x00	; 0
     446:	0e 94 e8 00 	call	0x1d0	; 0x1d0 <disk_write>
     44a:	80 e0       	ldi	r24, 0x00	; 0
     44c:	df 91       	pop	r29
     44e:	cf 91       	pop	r28
     450:	1f 91       	pop	r17
     452:	0f 91       	pop	r16
     454:	ff 90       	pop	r15
     456:	ef 90       	pop	r14
     458:	df 90       	pop	r13
     45a:	cf 90       	pop	r12
     45c:	bf 90       	pop	r11
     45e:	af 90       	pop	r10
     460:	9f 90       	pop	r9
     462:	8f 90       	pop	r8
     464:	08 95       	ret

00000466 <move_window>:
     466:	af 92       	push	r10
     468:	bf 92       	push	r11
     46a:	cf 92       	push	r12
     46c:	df 92       	push	r13
     46e:	ef 92       	push	r14
     470:	ff 92       	push	r15
     472:	0f 93       	push	r16
     474:	1f 93       	push	r17
     476:	df 93       	push	r29
     478:	cf 93       	push	r28
     47a:	0f 92       	push	r0
     47c:	cd b7       	in	r28, 0x3d	; 61
     47e:	de b7       	in	r29, 0x3e	; 62
     480:	5c 01       	movw	r10, r24
     482:	6a 01       	movw	r12, r20
     484:	7b 01       	movw	r14, r22
     486:	fc 01       	movw	r30, r24
     488:	87 a5       	ldd	r24, Z+47	; 0x2f
     48a:	90 a9       	ldd	r25, Z+48	; 0x30
     48c:	a1 a9       	ldd	r26, Z+49	; 0x31
     48e:	b2 a9       	ldd	r27, Z+50	; 0x32
     490:	48 17       	cp	r20, r24
     492:	59 07       	cpc	r21, r25
     494:	6a 07       	cpc	r22, r26
     496:	7b 07       	cpc	r23, r27
     498:	11 f4       	brne	.+4      	; 0x49e <move_window+0x38>
     49a:	90 e0       	ldi	r25, 0x00	; 0
     49c:	1f c0       	rjmp	.+62     	; 0x4dc <move_window+0x76>
     49e:	c5 01       	movw	r24, r10
     4a0:	0e 94 dd 01 	call	0x3ba	; 0x3ba <sync_window>
     4a4:	98 2f       	mov	r25, r24
     4a6:	88 23       	and	r24, r24
     4a8:	c9 f4       	brne	.+50     	; 0x4dc <move_window+0x76>
     4aa:	b5 01       	movw	r22, r10
     4ac:	6d 5c       	subi	r22, 0xCD	; 205
     4ae:	7f 4f       	sbci	r23, 0xFF	; 255
     4b0:	f5 01       	movw	r30, r10
     4b2:	81 81       	ldd	r24, Z+1	; 0x01
     4b4:	a7 01       	movw	r20, r14
     4b6:	96 01       	movw	r18, r12
     4b8:	01 e0       	ldi	r16, 0x01	; 1
     4ba:	10 e0       	ldi	r17, 0x00	; 0
     4bc:	99 83       	std	Y+1, r25	; 0x01
     4be:	0e 94 f7 00 	call	0x1ee	; 0x1ee <disk_read>
     4c2:	99 81       	ldd	r25, Y+1	; 0x01
     4c4:	88 23       	and	r24, r24
     4c6:	29 f0       	breq	.+10     	; 0x4d2 <move_window+0x6c>
     4c8:	cc 24       	eor	r12, r12
     4ca:	ca 94       	dec	r12
     4cc:	dc 2c       	mov	r13, r12
     4ce:	76 01       	movw	r14, r12
     4d0:	91 e0       	ldi	r25, 0x01	; 1
     4d2:	f5 01       	movw	r30, r10
     4d4:	c7 a6       	std	Z+47, r12	; 0x2f
     4d6:	d0 aa       	std	Z+48, r13	; 0x30
     4d8:	e1 aa       	std	Z+49, r14	; 0x31
     4da:	f2 aa       	std	Z+50, r15	; 0x32
     4dc:	89 2f       	mov	r24, r25
     4de:	0f 90       	pop	r0
     4e0:	cf 91       	pop	r28
     4e2:	df 91       	pop	r29
     4e4:	1f 91       	pop	r17
     4e6:	0f 91       	pop	r16
     4e8:	ff 90       	pop	r15
     4ea:	ef 90       	pop	r14
     4ec:	df 90       	pop	r13
     4ee:	cf 90       	pop	r12
     4f0:	bf 90       	pop	r11
     4f2:	af 90       	pop	r10
     4f4:	08 95       	ret

000004f6 <check_fs>:
     4f6:	0f 93       	push	r16
     4f8:	1f 93       	push	r17
     4fa:	cf 93       	push	r28
     4fc:	df 93       	push	r29
     4fe:	ec 01       	movw	r28, r24
     500:	1b 82       	std	Y+3, r1	; 0x03
     502:	8f ef       	ldi	r24, 0xFF	; 255
     504:	9f ef       	ldi	r25, 0xFF	; 255
     506:	af ef       	ldi	r26, 0xFF	; 255
     508:	bf ef       	ldi	r27, 0xFF	; 255
     50a:	8f a7       	std	Y+47, r24	; 0x2f
     50c:	98 ab       	std	Y+48, r25	; 0x30
     50e:	a9 ab       	std	Y+49, r26	; 0x31
     510:	ba ab       	std	Y+50, r27	; 0x32
     512:	ce 01       	movw	r24, r28
     514:	0e 94 33 02 	call	0x466	; 0x466 <move_window>
     518:	88 23       	and	r24, r24
     51a:	19 f0       	breq	.+6      	; 0x522 <check_fs+0x2c>
     51c:	24 e0       	ldi	r18, 0x04	; 4
     51e:	30 e0       	ldi	r19, 0x00	; 0
     520:	98 c0       	rjmp	.+304    	; 0x652 <check_fs+0x15c>
     522:	ce 5c       	subi	r28, 0xCE	; 206
     524:	dd 4f       	sbci	r29, 0xFD	; 253
     526:	98 81       	ld	r25, Y
     528:	80 e0       	ldi	r24, 0x00	; 0
     52a:	2a 91       	ld	r18, -Y
     52c:	c1 53       	subi	r28, 0x31	; 49
     52e:	d2 40       	sbci	r29, 0x02	; 2
     530:	02 2f       	mov	r16, r18
     532:	10 e0       	ldi	r17, 0x00	; 0
     534:	08 2b       	or	r16, r24
     536:	19 2b       	or	r17, r25
     538:	8b a9       	ldd	r24, Y+51	; 0x33
     53a:	8b 3e       	cpi	r24, 0xEB	; 235
     53c:	29 f0       	breq	.+10     	; 0x548 <check_fs+0x52>
     53e:	89 3e       	cpi	r24, 0xE9	; 233
     540:	19 f0       	breq	.+6      	; 0x548 <check_fs+0x52>
     542:	88 3e       	cpi	r24, 0xE8	; 232
     544:	09 f0       	breq	.+2      	; 0x548 <check_fs+0x52>
     546:	7a c0       	rjmp	.+244    	; 0x63c <check_fs+0x146>
     548:	2a ea       	ldi	r18, 0xAA	; 170
     54a:	05 35       	cpi	r16, 0x55	; 85
     54c:	12 07       	cpc	r17, r18
     54e:	61 f4       	brne	.+24     	; 0x568 <check_fs+0x72>
     550:	ce 01       	movw	r24, r28
     552:	8b 57       	subi	r24, 0x7B	; 123
     554:	9f 4f       	sbci	r25, 0xFF	; 255
     556:	60 e6       	ldi	r22, 0x60	; 96
     558:	70 e0       	ldi	r23, 0x00	; 0
     55a:	48 e0       	ldi	r20, 0x08	; 8
     55c:	50 e0       	ldi	r21, 0x00	; 0
     55e:	0e 94 90 1d 	call	0x3b20	; 0x3b20 <memcmp>
     562:	00 97       	sbiw	r24, 0x00	; 0
     564:	09 f4       	brne	.+2      	; 0x568 <check_fs+0x72>
     566:	73 c0       	rjmp	.+230    	; 0x64e <check_fs+0x158>
     568:	9f ad       	ldd	r25, Y+63	; 0x3f
     56a:	80 e0       	ldi	r24, 0x00	; 0
     56c:	2e ad       	ldd	r18, Y+62	; 0x3e
     56e:	42 2f       	mov	r20, r18
     570:	50 e0       	ldi	r21, 0x00	; 0
     572:	48 2b       	or	r20, r24
     574:	59 2b       	or	r21, r25
     576:	c0 5c       	subi	r28, 0xC0	; 192
     578:	df 4f       	sbci	r29, 0xFF	; 255
     57a:	28 81       	ld	r18, Y
     57c:	c0 54       	subi	r28, 0x40	; 64
     57e:	d0 40       	sbci	r29, 0x00	; 0
     580:	ca 01       	movw	r24, r20
     582:	01 97       	sbiw	r24, 0x01	; 1
     584:	84 23       	and	r24, r20
     586:	95 23       	and	r25, r21
     588:	89 2b       	or	r24, r25
     58a:	09 f0       	breq	.+2      	; 0x58e <check_fs+0x98>
     58c:	57 c0       	rjmp	.+174    	; 0x63c <check_fs+0x146>
     58e:	82 e0       	ldi	r24, 0x02	; 2
     590:	40 30       	cpi	r20, 0x00	; 0
     592:	58 07       	cpc	r21, r24
     594:	08 f4       	brcc	.+2      	; 0x598 <check_fs+0xa2>
     596:	52 c0       	rjmp	.+164    	; 0x63c <check_fs+0x146>
     598:	40 50       	subi	r20, 0x00	; 0
     59a:	52 40       	sbci	r21, 0x02	; 2
     59c:	09 f0       	breq	.+2      	; 0x5a0 <check_fs+0xaa>
     59e:	4e c0       	rjmp	.+156    	; 0x63c <check_fs+0x146>
     5a0:	22 23       	and	r18, r18
     5a2:	09 f4       	brne	.+2      	; 0x5a6 <check_fs+0xb0>
     5a4:	4b c0       	rjmp	.+150    	; 0x63c <check_fs+0x146>
     5a6:	30 e0       	ldi	r19, 0x00	; 0
     5a8:	c9 01       	movw	r24, r18
     5aa:	01 97       	sbiw	r24, 0x01	; 1
     5ac:	82 23       	and	r24, r18
     5ae:	93 23       	and	r25, r19
     5b0:	89 2b       	or	r24, r25
     5b2:	09 f0       	breq	.+2      	; 0x5b6 <check_fs+0xc0>
     5b4:	43 c0       	rjmp	.+134    	; 0x63c <check_fs+0x146>
     5b6:	ce 5b       	subi	r28, 0xBE	; 190
     5b8:	df 4f       	sbci	r29, 0xFF	; 255
     5ba:	98 81       	ld	r25, Y
     5bc:	80 e0       	ldi	r24, 0x00	; 0
     5be:	2a 91       	ld	r18, -Y
     5c0:	c1 54       	subi	r28, 0x41	; 65
     5c2:	d0 40       	sbci	r29, 0x00	; 0
     5c4:	30 e0       	ldi	r19, 0x00	; 0
     5c6:	82 2b       	or	r24, r18
     5c8:	93 2b       	or	r25, r19
     5ca:	89 2b       	or	r24, r25
     5cc:	b9 f1       	breq	.+110    	; 0x63c <check_fs+0x146>
     5ce:	cd 5b       	subi	r28, 0xBD	; 189
     5d0:	df 4f       	sbci	r29, 0xFF	; 255
     5d2:	88 81       	ld	r24, Y
     5d4:	c3 54       	subi	r28, 0x43	; 67
     5d6:	d0 40       	sbci	r29, 0x00	; 0
     5d8:	90 e0       	ldi	r25, 0x00	; 0
     5da:	01 97       	sbiw	r24, 0x01	; 1
     5dc:	02 97       	sbiw	r24, 0x02	; 2
     5de:	70 f5       	brcc	.+92     	; 0x63c <check_fs+0x146>
     5e0:	cb 5b       	subi	r28, 0xBB	; 187
     5e2:	df 4f       	sbci	r29, 0xFF	; 255
     5e4:	98 81       	ld	r25, Y
     5e6:	80 e0       	ldi	r24, 0x00	; 0
     5e8:	2a 91       	ld	r18, -Y
     5ea:	c4 54       	subi	r28, 0x44	; 68
     5ec:	d0 40       	sbci	r29, 0x00	; 0
     5ee:	30 e0       	ldi	r19, 0x00	; 0
     5f0:	82 2b       	or	r24, r18
     5f2:	93 2b       	or	r25, r19
     5f4:	89 2b       	or	r24, r25
     5f6:	11 f1       	breq	.+68     	; 0x63c <check_fs+0x146>
     5f8:	c9 5b       	subi	r28, 0xB9	; 185
     5fa:	df 4f       	sbci	r29, 0xFF	; 255
     5fc:	98 81       	ld	r25, Y
     5fe:	80 e0       	ldi	r24, 0x00	; 0
     600:	2a 91       	ld	r18, -Y
     602:	c6 54       	subi	r28, 0x46	; 70
     604:	d0 40       	sbci	r29, 0x00	; 0
     606:	30 e0       	ldi	r19, 0x00	; 0
     608:	82 2b       	or	r24, r18
     60a:	93 2b       	or	r25, r19
     60c:	80 38       	cpi	r24, 0x80	; 128
     60e:	91 05       	cpc	r25, r1
     610:	50 f4       	brcc	.+20     	; 0x626 <check_fs+0x130>
     612:	ce 01       	movw	r24, r28
     614:	8d 5a       	subi	r24, 0xAD	; 173
     616:	9f 4f       	sbci	r25, 0xFF	; 255
     618:	0e 94 14 01 	call	0x228	; 0x228 <ld_dword>
     61c:	60 50       	subi	r22, 0x00	; 0
     61e:	70 40       	sbci	r23, 0x00	; 0
     620:	81 40       	sbci	r24, 0x01	; 1
     622:	90 40       	sbci	r25, 0x00	; 0
     624:	58 f0       	brcs	.+22     	; 0x63c <check_fs+0x146>
     626:	c6 5b       	subi	r28, 0xB6	; 182
     628:	df 4f       	sbci	r29, 0xFF	; 255
     62a:	38 81       	ld	r19, Y
     62c:	20 e0       	ldi	r18, 0x00	; 0
     62e:	fe 01       	movw	r30, r28
     630:	82 91       	ld	r24, -Z
     632:	90 e0       	ldi	r25, 0x00	; 0
     634:	28 2b       	or	r18, r24
     636:	39 2b       	or	r19, r25
     638:	23 2b       	or	r18, r19
     63a:	49 f4       	brne	.+18     	; 0x64e <check_fs+0x158>
     63c:	05 55       	subi	r16, 0x55	; 85
     63e:	1a 4a       	sbci	r17, 0xAA	; 170
     640:	19 f0       	breq	.+6      	; 0x648 <check_fs+0x152>
     642:	23 e0       	ldi	r18, 0x03	; 3
     644:	30 e0       	ldi	r19, 0x00	; 0
     646:	05 c0       	rjmp	.+10     	; 0x652 <check_fs+0x15c>
     648:	22 e0       	ldi	r18, 0x02	; 2
     64a:	30 e0       	ldi	r19, 0x00	; 0
     64c:	02 c0       	rjmp	.+4      	; 0x652 <check_fs+0x15c>
     64e:	20 e0       	ldi	r18, 0x00	; 0
     650:	30 e0       	ldi	r19, 0x00	; 0
     652:	c9 01       	movw	r24, r18
     654:	df 91       	pop	r29
     656:	cf 91       	pop	r28
     658:	1f 91       	pop	r17
     65a:	0f 91       	pop	r16
     65c:	08 95       	ret

0000065e <mount_volume>:
     65e:	2f 92       	push	r2
     660:	3f 92       	push	r3
     662:	4f 92       	push	r4
     664:	5f 92       	push	r5
     666:	6f 92       	push	r6
     668:	7f 92       	push	r7
     66a:	8f 92       	push	r8
     66c:	9f 92       	push	r9
     66e:	af 92       	push	r10
     670:	bf 92       	push	r11
     672:	cf 92       	push	r12
     674:	df 92       	push	r13
     676:	ef 92       	push	r14
     678:	ff 92       	push	r15
     67a:	0f 93       	push	r16
     67c:	1f 93       	push	r17
     67e:	df 93       	push	r29
     680:	cf 93       	push	r28
     682:	cd b7       	in	r28, 0x3d	; 61
     684:	de b7       	in	r29, 0x3e	; 62
     686:	68 97       	sbiw	r28, 0x18	; 24
     688:	0f b6       	in	r0, 0x3f	; 63
     68a:	f8 94       	cli
     68c:	de bf       	out	0x3e, r29	; 62
     68e:	0f be       	out	0x3f, r0	; 63
     690:	cd bf       	out	0x3d, r28	; 61
     692:	6b 01       	movw	r12, r22
     694:	b4 2e       	mov	r11, r20
     696:	db 01       	movw	r26, r22
     698:	1d 92       	st	X+, r1
     69a:	1c 92       	st	X, r1
     69c:	0e 94 86 01 	call	0x30c	; 0x30c <get_ldnumber>
     6a0:	7c 01       	movw	r14, r24
     6a2:	97 ff       	sbrs	r25, 7
     6a4:	02 c0       	rjmp	.+4      	; 0x6aa <mount_volume+0x4c>
     6a6:	8b e0       	ldi	r24, 0x0B	; 11
     6a8:	c6 c2       	rjmp	.+1420   	; 0xc36 <__stack+0x3d7>
     6aa:	fc 01       	movw	r30, r24
     6ac:	ee 0f       	add	r30, r30
     6ae:	ff 1f       	adc	r31, r31
     6b0:	ee 5a       	subi	r30, 0xAE	; 174
     6b2:	fe 4f       	sbci	r31, 0xFE	; 254
     6b4:	00 81       	ld	r16, Z
     6b6:	11 81       	ldd	r17, Z+1	; 0x01
     6b8:	01 15       	cp	r16, r1
     6ba:	11 05       	cpc	r17, r1
     6bc:	11 f4       	brne	.+4      	; 0x6c2 <mount_volume+0x64>
     6be:	8c e0       	ldi	r24, 0x0C	; 12
     6c0:	ba c2       	rjmp	.+1396   	; 0xc36 <__stack+0x3d7>
     6c2:	f6 01       	movw	r30, r12
     6c4:	11 83       	std	Z+1, r17	; 0x01
     6c6:	00 83       	st	Z, r16
     6c8:	be ef       	ldi	r27, 0xFE	; 254
     6ca:	db 2e       	mov	r13, r27
     6cc:	db 20       	and	r13, r11
     6ce:	d8 01       	movw	r26, r16
     6d0:	8c 91       	ld	r24, X
     6d2:	88 23       	and	r24, r24
     6d4:	61 f0       	breq	.+24     	; 0x6ee <mount_volume+0x90>
     6d6:	11 96       	adiw	r26, 0x01	; 1
     6d8:	8c 91       	ld	r24, X
     6da:	0e 94 0d 01 	call	0x21a	; 0x21a <disk_status>
     6de:	80 fd       	sbrc	r24, 0
     6e0:	06 c0       	rjmp	.+12     	; 0x6ee <mount_volume+0x90>
     6e2:	dd 20       	and	r13, r13
     6e4:	09 f4       	brne	.+2      	; 0x6e8 <mount_volume+0x8a>
     6e6:	a4 c2       	rjmp	.+1352   	; 0xc30 <__stack+0x3d1>
     6e8:	82 fd       	sbrc	r24, 2
     6ea:	a0 c2       	rjmp	.+1344   	; 0xc2c <__stack+0x3cd>
     6ec:	a1 c2       	rjmp	.+1346   	; 0xc30 <__stack+0x3d1>
     6ee:	f8 01       	movw	r30, r16
     6f0:	10 82       	st	Z, r1
     6f2:	e1 82       	std	Z+1, r14	; 0x01
     6f4:	8e 2d       	mov	r24, r14
     6f6:	0e 94 06 01 	call	0x20c	; 0x20c <disk_initialize>
     6fa:	80 ff       	sbrs	r24, 0
     6fc:	02 c0       	rjmp	.+4      	; 0x702 <mount_volume+0xa4>
     6fe:	83 e0       	ldi	r24, 0x03	; 3
     700:	9a c2       	rjmp	.+1332   	; 0xc36 <__stack+0x3d7>
     702:	dd 20       	and	r13, r13
     704:	11 f0       	breq	.+4      	; 0x70a <mount_volume+0xac>
     706:	82 fd       	sbrc	r24, 2
     708:	91 c2       	rjmp	.+1314   	; 0xc2c <__stack+0x3cd>
     70a:	c8 01       	movw	r24, r16
     70c:	40 e0       	ldi	r20, 0x00	; 0
     70e:	50 e0       	ldi	r21, 0x00	; 0
     710:	60 e0       	ldi	r22, 0x00	; 0
     712:	70 e0       	ldi	r23, 0x00	; 0
     714:	0e 94 7b 02 	call	0x4f6	; 0x4f6 <check_fs>
     718:	82 30       	cpi	r24, 0x02	; 2
     71a:	91 05       	cpc	r25, r1
     71c:	09 f0       	breq	.+2      	; 0x720 <mount_volume+0xc2>
     71e:	40 c0       	rjmp	.+128    	; 0x7a0 <mount_volume+0x142>
     720:	6e 01       	movw	r12, r28
     722:	08 94       	sec
     724:	c1 1c       	adc	r12, r1
     726:	d1 1c       	adc	r13, r1
     728:	56 01       	movw	r10, r12
     72a:	a6 ec       	ldi	r26, 0xC6	; 198
     72c:	ea 2e       	mov	r14, r26
     72e:	a1 e0       	ldi	r26, 0x01	; 1
     730:	fa 2e       	mov	r15, r26
     732:	23 e3       	ldi	r18, 0x33	; 51
     734:	30 e0       	ldi	r19, 0x00	; 0
     736:	e2 0e       	add	r14, r18
     738:	f3 1e       	adc	r15, r19
     73a:	c8 01       	movw	r24, r16
     73c:	8e 0d       	add	r24, r14
     73e:	9f 1d       	adc	r25, r15
     740:	0e 94 14 01 	call	0x228	; 0x228 <ld_dword>
     744:	d5 01       	movw	r26, r10
     746:	6d 93       	st	X+, r22
     748:	7d 93       	st	X+, r23
     74a:	8d 93       	st	X+, r24
     74c:	9d 93       	st	X+, r25
     74e:	5d 01       	movw	r10, r26
     750:	ed ed       	ldi	r30, 0xDD	; 221
     752:	ff ef       	ldi	r31, 0xFF	; 255
     754:	ee 0e       	add	r14, r30
     756:	ff 1e       	adc	r15, r31
     758:	f6 e0       	ldi	r31, 0x06	; 6
     75a:	ef 16       	cp	r14, r31
     75c:	f2 e0       	ldi	r31, 0x02	; 2
     75e:	ff 06       	cpc	r15, r31
     760:	41 f7       	brne	.-48     	; 0x732 <mount_volume+0xd4>
     762:	f1 e1       	ldi	r31, 0x11	; 17
     764:	ef 2e       	mov	r14, r31
     766:	f1 2c       	mov	r15, r1
     768:	ec 0e       	add	r14, r28
     76a:	fd 1e       	adc	r15, r29
     76c:	d6 01       	movw	r26, r12
     76e:	4d 91       	ld	r20, X+
     770:	5d 91       	ld	r21, X+
     772:	6d 91       	ld	r22, X+
     774:	7c 91       	ld	r23, X
     776:	41 15       	cp	r20, r1
     778:	51 05       	cpc	r21, r1
     77a:	61 05       	cpc	r22, r1
     77c:	71 05       	cpc	r23, r1
     77e:	19 f4       	brne	.+6      	; 0x786 <mount_volume+0x128>
     780:	83 e0       	ldi	r24, 0x03	; 3
     782:	90 e0       	ldi	r25, 0x00	; 0
     784:	06 c0       	rjmp	.+12     	; 0x792 <mount_volume+0x134>
     786:	c8 01       	movw	r24, r16
     788:	0e 94 7b 02 	call	0x4f6	; 0x4f6 <check_fs>
     78c:	82 30       	cpi	r24, 0x02	; 2
     78e:	91 05       	cpc	r25, r1
     790:	78 f0       	brcs	.+30     	; 0x7b0 <mount_volume+0x152>
     792:	e4 e0       	ldi	r30, 0x04	; 4
     794:	f0 e0       	ldi	r31, 0x00	; 0
     796:	ce 0e       	add	r12, r30
     798:	df 1e       	adc	r13, r31
     79a:	ce 14       	cp	r12, r14
     79c:	df 04       	cpc	r13, r15
     79e:	31 f7       	brne	.-52     	; 0x76c <mount_volume+0x10e>
     7a0:	84 30       	cpi	r24, 0x04	; 4
     7a2:	91 05       	cpc	r25, r1
     7a4:	11 f4       	brne	.+4      	; 0x7aa <mount_volume+0x14c>
     7a6:	81 e0       	ldi	r24, 0x01	; 1
     7a8:	46 c2       	rjmp	.+1164   	; 0xc36 <__stack+0x3d7>
     7aa:	02 97       	sbiw	r24, 0x02	; 2
     7ac:	08 f0       	brcs	.+2      	; 0x7b0 <mount_volume+0x152>
     7ae:	42 c2       	rjmp	.+1156   	; 0xc34 <__stack+0x3d5>
     7b0:	d8 01       	movw	r26, r16
     7b2:	9f 96       	adiw	r26, 0x2f	; 47
     7b4:	8d 91       	ld	r24, X+
     7b6:	9d 91       	ld	r25, X+
     7b8:	0d 90       	ld	r0, X+
     7ba:	bc 91       	ld	r27, X
     7bc:	a0 2d       	mov	r26, r0
     7be:	8d 8b       	std	Y+21, r24	; 0x15
     7c0:	9e 8b       	std	Y+22, r25	; 0x16
     7c2:	af 8b       	std	Y+23, r26	; 0x17
     7c4:	b8 8f       	std	Y+24, r27	; 0x18
     7c6:	f8 01       	movw	r30, r16
     7c8:	97 ad       	ldd	r25, Z+63	; 0x3f
     7ca:	80 e0       	ldi	r24, 0x00	; 0
     7cc:	26 ad       	ldd	r18, Z+62	; 0x3e
     7ce:	30 e0       	ldi	r19, 0x00	; 0
     7d0:	82 2b       	or	r24, r18
     7d2:	93 2b       	or	r25, r19
     7d4:	80 50       	subi	r24, 0x00	; 0
     7d6:	92 40       	sbci	r25, 0x02	; 2
     7d8:	09 f0       	breq	.+2      	; 0x7dc <mount_volume+0x17e>
     7da:	2c c2       	rjmp	.+1112   	; 0xc34 <__stack+0x3d5>
     7dc:	06 5b       	subi	r16, 0xB6	; 182
     7de:	1f 4f       	sbci	r17, 0xFF	; 255
     7e0:	d8 01       	movw	r26, r16
     7e2:	9c 91       	ld	r25, X
     7e4:	80 e0       	ldi	r24, 0x00	; 0
     7e6:	f8 01       	movw	r30, r16
     7e8:	22 91       	ld	r18, -Z
     7ea:	8f 01       	movw	r16, r30
     7ec:	09 54       	subi	r16, 0x49	; 73
     7ee:	10 40       	sbci	r17, 0x00	; 0
     7f0:	30 e0       	ldi	r19, 0x00	; 0
     7f2:	82 2b       	or	r24, r18
     7f4:	93 2b       	or	r25, r19
     7f6:	2c 01       	movw	r4, r24
     7f8:	66 24       	eor	r6, r6
     7fa:	77 24       	eor	r7, r7
     7fc:	41 14       	cp	r4, r1
     7fe:	51 04       	cpc	r5, r1
     800:	61 04       	cpc	r6, r1
     802:	71 04       	cpc	r7, r1
     804:	39 f4       	brne	.+14     	; 0x814 <mount_volume+0x1b6>
     806:	c8 01       	movw	r24, r16
     808:	89 5a       	subi	r24, 0xA9	; 169
     80a:	9f 4f       	sbci	r25, 0xFF	; 255
     80c:	0e 94 14 01 	call	0x228	; 0x228 <ld_dword>
     810:	2b 01       	movw	r4, r22
     812:	3c 01       	movw	r6, r24
     814:	d8 01       	movw	r26, r16
     816:	5b 96       	adiw	r26, 0x1b	; 27
     818:	4d 92       	st	X+, r4
     81a:	5d 92       	st	X+, r5
     81c:	6d 92       	st	X+, r6
     81e:	7c 92       	st	X, r7
     820:	5e 97       	sbiw	r26, 0x1e	; 30
     822:	0d 5b       	subi	r16, 0xBD	; 189
     824:	1f 4f       	sbci	r17, 0xFF	; 255
     826:	f8 01       	movw	r30, r16
     828:	30 80       	ld	r3, Z
     82a:	03 54       	subi	r16, 0x43	; 67
     82c:	10 40       	sbci	r17, 0x00	; 0
     82e:	d8 01       	movw	r26, r16
     830:	12 96       	adiw	r26, 0x02	; 2
     832:	3c 92       	st	X, r3
     834:	83 2d       	mov	r24, r3
     836:	81 50       	subi	r24, 0x01	; 1
     838:	82 30       	cpi	r24, 0x02	; 2
     83a:	08 f0       	brcs	.+2      	; 0x83e <mount_volume+0x1e0>
     83c:	fb c1       	rjmp	.+1014   	; 0xc34 <__stack+0x3d5>
     83e:	00 5c       	subi	r16, 0xC0	; 192
     840:	1f 4f       	sbci	r17, 0xFF	; 255
     842:	f8 01       	movw	r30, r16
     844:	80 81       	ld	r24, Z
     846:	00 54       	subi	r16, 0x40	; 64
     848:	10 40       	sbci	r17, 0x00	; 0
     84a:	28 2f       	mov	r18, r24
     84c:	30 e0       	ldi	r19, 0x00	; 0
     84e:	d8 01       	movw	r26, r16
     850:	1a 96       	adiw	r26, 0x0a	; 10
     852:	3c 93       	st	X, r19
     854:	2e 93       	st	-X, r18
     856:	19 97       	sbiw	r26, 0x09	; 9
     858:	21 15       	cp	r18, r1
     85a:	31 05       	cpc	r19, r1
     85c:	09 f4       	brne	.+2      	; 0x860 <__stack+0x1>
     85e:	ea c1       	rjmp	.+980    	; 0xc34 <__stack+0x3d5>
     860:	c9 01       	movw	r24, r18
     862:	01 97       	sbiw	r24, 0x01	; 1
     864:	82 23       	and	r24, r18
     866:	93 23       	and	r25, r19
     868:	89 2b       	or	r24, r25
     86a:	09 f0       	breq	.+2      	; 0x86e <__stack+0xf>
     86c:	e3 c1       	rjmp	.+966    	; 0xc34 <__stack+0x3d5>
     86e:	0b 5b       	subi	r16, 0xBB	; 187
     870:	1f 4f       	sbci	r17, 0xFF	; 255
     872:	f8 01       	movw	r30, r16
     874:	90 81       	ld	r25, Z
     876:	80 e0       	ldi	r24, 0x00	; 0
     878:	d8 01       	movw	r26, r16
     87a:	2e 91       	ld	r18, -X
     87c:	8d 01       	movw	r16, r26
     87e:	04 54       	subi	r16, 0x44	; 68
     880:	10 40       	sbci	r17, 0x00	; 0
     882:	c2 2e       	mov	r12, r18
     884:	dd 24       	eor	r13, r13
     886:	c8 2a       	or	r12, r24
     888:	d9 2a       	or	r13, r25
     88a:	f8 01       	movw	r30, r16
     88c:	d0 86       	std	Z+8, r13	; 0x08
     88e:	c7 82       	std	Z+7, r12	; 0x07
     890:	c6 01       	movw	r24, r12
     892:	8f 70       	andi	r24, 0x0F	; 15
     894:	90 70       	andi	r25, 0x00	; 0
     896:	89 2b       	or	r24, r25
     898:	09 f0       	breq	.+2      	; 0x89c <__stack+0x3d>
     89a:	cc c1       	rjmp	.+920    	; 0xc34 <__stack+0x3d5>
     89c:	09 5b       	subi	r16, 0xB9	; 185
     89e:	1f 4f       	sbci	r17, 0xFF	; 255
     8a0:	d8 01       	movw	r26, r16
     8a2:	9c 91       	ld	r25, X
     8a4:	80 e0       	ldi	r24, 0x00	; 0
     8a6:	f8 01       	movw	r30, r16
     8a8:	22 91       	ld	r18, -Z
     8aa:	8f 01       	movw	r16, r30
     8ac:	06 54       	subi	r16, 0x46	; 70
     8ae:	10 40       	sbci	r17, 0x00	; 0
     8b0:	30 e0       	ldi	r19, 0x00	; 0
     8b2:	82 2b       	or	r24, r18
     8b4:	93 2b       	or	r25, r19
     8b6:	4c 01       	movw	r8, r24
     8b8:	aa 24       	eor	r10, r10
     8ba:	bb 24       	eor	r11, r11
     8bc:	81 14       	cp	r8, r1
     8be:	91 04       	cpc	r9, r1
     8c0:	a1 04       	cpc	r10, r1
     8c2:	b1 04       	cpc	r11, r1
     8c4:	39 f4       	brne	.+14     	; 0x8d4 <__stack+0x75>
     8c6:	c8 01       	movw	r24, r16
     8c8:	8d 5a       	subi	r24, 0xAD	; 173
     8ca:	9f 4f       	sbci	r25, 0xFF	; 255
     8cc:	0e 94 14 01 	call	0x228	; 0x228 <ld_dword>
     8d0:	4b 01       	movw	r8, r22
     8d2:	5c 01       	movw	r10, r24
     8d4:	0e 5b       	subi	r16, 0xBE	; 190
     8d6:	1f 4f       	sbci	r17, 0xFF	; 255
     8d8:	d8 01       	movw	r26, r16
     8da:	9c 91       	ld	r25, X
     8dc:	80 e0       	ldi	r24, 0x00	; 0
     8de:	f8 01       	movw	r30, r16
     8e0:	22 91       	ld	r18, -Z
     8e2:	8f 01       	movw	r16, r30
     8e4:	01 54       	subi	r16, 0x41	; 65
     8e6:	10 40       	sbci	r17, 0x00	; 0
     8e8:	e2 2e       	mov	r14, r18
     8ea:	ff 24       	eor	r15, r15
     8ec:	e8 2a       	or	r14, r24
     8ee:	f9 2a       	or	r15, r25
     8f0:	e1 14       	cp	r14, r1
     8f2:	f1 04       	cpc	r15, r1
     8f4:	09 f4       	brne	.+2      	; 0x8f8 <__stack+0x99>
     8f6:	9e c1       	rjmp	.+828    	; 0xc34 <__stack+0x3d5>
     8f8:	23 2d       	mov	r18, r3
     8fa:	30 e0       	ldi	r19, 0x00	; 0
     8fc:	40 e0       	ldi	r20, 0x00	; 0
     8fe:	50 e0       	ldi	r21, 0x00	; 0
     900:	c3 01       	movw	r24, r6
     902:	b2 01       	movw	r22, r4
     904:	0e 94 3b 1d 	call	0x3a76	; 0x3a76 <__mulsi3>
     908:	69 8b       	std	Y+17, r22	; 0x11
     90a:	7a 8b       	std	Y+18, r23	; 0x12
     90c:	8b 8b       	std	Y+19, r24	; 0x13
     90e:	9c 8b       	std	Y+20, r25	; 0x14
     910:	27 01       	movw	r4, r14
     912:	66 24       	eor	r6, r6
     914:	77 24       	eor	r7, r7
     916:	e4 e0       	ldi	r30, 0x04	; 4
     918:	d6 94       	lsr	r13
     91a:	c7 94       	ror	r12
     91c:	ea 95       	dec	r30
     91e:	e1 f7       	brne	.-8      	; 0x918 <__stack+0xb9>
     920:	ee 24       	eor	r14, r14
     922:	ff 24       	eor	r15, r15
     924:	c4 0c       	add	r12, r4
     926:	d5 1c       	adc	r13, r5
     928:	e6 1c       	adc	r14, r6
     92a:	f7 1c       	adc	r15, r7
     92c:	c6 0e       	add	r12, r22
     92e:	d7 1e       	adc	r13, r23
     930:	e8 1e       	adc	r14, r24
     932:	f9 1e       	adc	r15, r25
     934:	8c 14       	cp	r8, r12
     936:	9d 04       	cpc	r9, r13
     938:	ae 04       	cpc	r10, r14
     93a:	bf 04       	cpc	r11, r15
     93c:	08 f4       	brcc	.+2      	; 0x940 <__stack+0xe1>
     93e:	7a c1       	rjmp	.+756    	; 0xc34 <__stack+0x3d5>
     940:	8c 18       	sub	r8, r12
     942:	9d 08       	sbc	r9, r13
     944:	ae 08       	sbc	r10, r14
     946:	bf 08       	sbc	r11, r15
     948:	d8 01       	movw	r26, r16
     94a:	19 96       	adiw	r26, 0x09	; 9
     94c:	2d 91       	ld	r18, X+
     94e:	3c 91       	ld	r19, X
     950:	1a 97       	sbiw	r26, 0x0a	; 10
     952:	40 e0       	ldi	r20, 0x00	; 0
     954:	50 e0       	ldi	r21, 0x00	; 0
     956:	c5 01       	movw	r24, r10
     958:	b4 01       	movw	r22, r8
     95a:	0e 94 6e 1d 	call	0x3adc	; 0x3adc <__udivmodsi4>
     95e:	c9 01       	movw	r24, r18
     960:	da 01       	movw	r26, r20
     962:	00 97       	sbiw	r24, 0x00	; 0
     964:	a1 05       	cpc	r26, r1
     966:	b1 05       	cpc	r27, r1
     968:	09 f4       	brne	.+2      	; 0x96c <__stack+0x10d>
     96a:	64 c1       	rjmp	.+712    	; 0xc34 <__stack+0x3d5>
     96c:	86 3f       	cpi	r24, 0xF6	; 246
     96e:	ef ef       	ldi	r30, 0xFF	; 255
     970:	9e 07       	cpc	r25, r30
     972:	ef ef       	ldi	r30, 0xFF	; 255
     974:	ae 07       	cpc	r26, r30
     976:	ef e0       	ldi	r30, 0x0F	; 15
     978:	be 07       	cpc	r27, r30
     97a:	08 f0       	brcs	.+2      	; 0x97e <__stack+0x11f>
     97c:	5b c1       	rjmp	.+694    	; 0xc34 <__stack+0x3d5>
     97e:	86 3f       	cpi	r24, 0xF6	; 246
     980:	ff ef       	ldi	r31, 0xFF	; 255
     982:	9f 07       	cpc	r25, r31
     984:	f0 e0       	ldi	r31, 0x00	; 0
     986:	af 07       	cpc	r26, r31
     988:	f0 e0       	ldi	r31, 0x00	; 0
     98a:	bf 07       	cpc	r27, r31
     98c:	20 f0       	brcs	.+8      	; 0x996 <__stack+0x137>
     98e:	53 e0       	ldi	r21, 0x03	; 3
     990:	25 2e       	mov	r2, r21
     992:	31 2c       	mov	r3, r1
     994:	0f c0       	rjmp	.+30     	; 0x9b4 <__stack+0x155>
     996:	86 3f       	cpi	r24, 0xF6	; 246
     998:	2f e0       	ldi	r18, 0x0F	; 15
     99a:	92 07       	cpc	r25, r18
     99c:	20 e0       	ldi	r18, 0x00	; 0
     99e:	a2 07       	cpc	r26, r18
     9a0:	20 e0       	ldi	r18, 0x00	; 0
     9a2:	b2 07       	cpc	r27, r18
     9a4:	20 f4       	brcc	.+8      	; 0x9ae <__stack+0x14f>
     9a6:	41 e0       	ldi	r20, 0x01	; 1
     9a8:	24 2e       	mov	r2, r20
     9aa:	31 2c       	mov	r3, r1
     9ac:	03 c0       	rjmp	.+6      	; 0x9b4 <__stack+0x155>
     9ae:	32 e0       	ldi	r19, 0x02	; 2
     9b0:	23 2e       	mov	r2, r19
     9b2:	31 2c       	mov	r3, r1
     9b4:	22 e0       	ldi	r18, 0x02	; 2
     9b6:	82 2e       	mov	r8, r18
     9b8:	91 2c       	mov	r9, r1
     9ba:	a1 2c       	mov	r10, r1
     9bc:	b1 2c       	mov	r11, r1
     9be:	88 0e       	add	r8, r24
     9c0:	99 1e       	adc	r9, r25
     9c2:	aa 1e       	adc	r10, r26
     9c4:	bb 1e       	adc	r11, r27
     9c6:	d8 01       	movw	r26, r16
     9c8:	57 96       	adiw	r26, 0x17	; 23
     9ca:	8d 92       	st	X+, r8
     9cc:	9d 92       	st	X+, r9
     9ce:	ad 92       	st	X+, r10
     9d0:	bc 92       	st	X, r11
     9d2:	5a 97       	sbiw	r26, 0x1a	; 26
     9d4:	8d 89       	ldd	r24, Y+21	; 0x15
     9d6:	9e 89       	ldd	r25, Y+22	; 0x16
     9d8:	af 89       	ldd	r26, Y+23	; 0x17
     9da:	b8 8d       	ldd	r27, Y+24	; 0x18
     9dc:	f8 01       	movw	r30, r16
     9de:	87 8f       	std	Z+31, r24	; 0x1f
     9e0:	90 a3       	std	Z+32, r25	; 0x20
     9e2:	a1 a3       	std	Z+33, r26	; 0x21
     9e4:	b2 a3       	std	Z+34, r27	; 0x22
     9e6:	9c 01       	movw	r18, r24
     9e8:	ad 01       	movw	r20, r26
     9ea:	24 0d       	add	r18, r4
     9ec:	35 1d       	adc	r19, r5
     9ee:	46 1d       	adc	r20, r6
     9f0:	57 1d       	adc	r21, r7
     9f2:	d8 01       	movw	r26, r16
     9f4:	93 96       	adiw	r26, 0x23	; 35
     9f6:	2d 93       	st	X+, r18
     9f8:	3d 93       	st	X+, r19
     9fa:	4d 93       	st	X+, r20
     9fc:	5c 93       	st	X, r21
     9fe:	96 97       	sbiw	r26, 0x26	; 38
     a00:	8d 89       	ldd	r24, Y+21	; 0x15
     a02:	9e 89       	ldd	r25, Y+22	; 0x16
     a04:	af 89       	ldd	r26, Y+23	; 0x17
     a06:	b8 8d       	ldd	r27, Y+24	; 0x18
     a08:	c8 0e       	add	r12, r24
     a0a:	d9 1e       	adc	r13, r25
     a0c:	ea 1e       	adc	r14, r26
     a0e:	fb 1e       	adc	r15, r27
     a10:	d8 01       	movw	r26, r16
     a12:	9b 96       	adiw	r26, 0x2b	; 43
     a14:	cd 92       	st	X+, r12
     a16:	dd 92       	st	X+, r13
     a18:	ed 92       	st	X+, r14
     a1a:	fc 92       	st	X, r15
     a1c:	9e 97       	sbiw	r26, 0x2e	; 46
     a1e:	b3 e0       	ldi	r27, 0x03	; 3
     a20:	2b 16       	cp	r2, r27
     a22:	31 04       	cpc	r3, r1
     a24:	61 f5       	brne	.+88     	; 0xa7e <__stack+0x21f>
     a26:	02 5a       	subi	r16, 0xA2	; 162
     a28:	1f 4f       	sbci	r17, 0xFF	; 255
     a2a:	f8 01       	movw	r30, r16
     a2c:	90 81       	ld	r25, Z
     a2e:	80 e0       	ldi	r24, 0x00	; 0
     a30:	d8 01       	movw	r26, r16
     a32:	2e 91       	ld	r18, -X
     a34:	8d 01       	movw	r16, r26
     a36:	0d 55       	subi	r16, 0x5D	; 93
     a38:	10 40       	sbci	r17, 0x00	; 0
     a3a:	30 e0       	ldi	r19, 0x00	; 0
     a3c:	82 2b       	or	r24, r18
     a3e:	93 2b       	or	r25, r19
     a40:	89 2b       	or	r24, r25
     a42:	09 f0       	breq	.+2      	; 0xa46 <__stack+0x1e7>
     a44:	f7 c0       	rjmp	.+494    	; 0xc34 <__stack+0x3d5>
     a46:	f8 01       	movw	r30, r16
     a48:	87 81       	ldd	r24, Z+7	; 0x07
     a4a:	90 85       	ldd	r25, Z+8	; 0x08
     a4c:	89 2b       	or	r24, r25
     a4e:	09 f0       	breq	.+2      	; 0xa52 <__stack+0x1f3>
     a50:	f1 c0       	rjmp	.+482    	; 0xc34 <__stack+0x3d5>
     a52:	c8 01       	movw	r24, r16
     a54:	81 5a       	subi	r24, 0xA1	; 161
     a56:	9f 4f       	sbci	r25, 0xFF	; 255
     a58:	0e 94 14 01 	call	0x228	; 0x228 <ld_dword>
     a5c:	d8 01       	movw	r26, r16
     a5e:	97 96       	adiw	r26, 0x27	; 39
     a60:	6d 93       	st	X+, r22
     a62:	7d 93       	st	X+, r23
     a64:	8d 93       	st	X+, r24
     a66:	9c 93       	st	X, r25
     a68:	9a 97       	sbiw	r26, 0x2a	; 42
     a6a:	a5 01       	movw	r20, r10
     a6c:	94 01       	movw	r18, r8
     a6e:	f2 e0       	ldi	r31, 0x02	; 2
     a70:	22 0f       	add	r18, r18
     a72:	33 1f       	adc	r19, r19
     a74:	44 1f       	adc	r20, r20
     a76:	55 1f       	adc	r21, r21
     a78:	fa 95       	dec	r31
     a7a:	d1 f7       	brne	.-12     	; 0xa70 <__stack+0x211>
     a7c:	38 c0       	rjmp	.+112    	; 0xaee <__stack+0x28f>
     a7e:	f8 01       	movw	r30, r16
     a80:	87 81       	ldd	r24, Z+7	; 0x07
     a82:	90 85       	ldd	r25, Z+8	; 0x08
     a84:	89 2b       	or	r24, r25
     a86:	09 f4       	brne	.+2      	; 0xa8a <__stack+0x22b>
     a88:	d5 c0       	rjmp	.+426    	; 0xc34 <__stack+0x3d5>
     a8a:	89 89       	ldd	r24, Y+17	; 0x11
     a8c:	9a 89       	ldd	r25, Y+18	; 0x12
     a8e:	ab 89       	ldd	r26, Y+19	; 0x13
     a90:	bc 89       	ldd	r27, Y+20	; 0x14
     a92:	28 0f       	add	r18, r24
     a94:	39 1f       	adc	r19, r25
     a96:	4a 1f       	adc	r20, r26
     a98:	5b 1f       	adc	r21, r27
     a9a:	d8 01       	movw	r26, r16
     a9c:	97 96       	adiw	r26, 0x27	; 39
     a9e:	2d 93       	st	X+, r18
     aa0:	3d 93       	st	X+, r19
     aa2:	4d 93       	st	X+, r20
     aa4:	5c 93       	st	X, r21
     aa6:	9a 97       	sbiw	r26, 0x2a	; 42
     aa8:	d5 01       	movw	r26, r10
     aaa:	c4 01       	movw	r24, r8
     aac:	88 0f       	add	r24, r24
     aae:	99 1f       	adc	r25, r25
     ab0:	aa 1f       	adc	r26, r26
     ab2:	bb 1f       	adc	r27, r27
     ab4:	e2 e0       	ldi	r30, 0x02	; 2
     ab6:	2e 16       	cp	r2, r30
     ab8:	31 04       	cpc	r3, r1
     aba:	19 f4       	brne	.+6      	; 0xac2 <__stack+0x263>
     abc:	9c 01       	movw	r18, r24
     abe:	ad 01       	movw	r20, r26
     ac0:	16 c0       	rjmp	.+44     	; 0xaee <__stack+0x28f>
     ac2:	9c 01       	movw	r18, r24
     ac4:	ad 01       	movw	r20, r26
     ac6:	28 0d       	add	r18, r8
     ac8:	39 1d       	adc	r19, r9
     aca:	4a 1d       	adc	r20, r10
     acc:	5b 1d       	adc	r21, r11
     ace:	56 95       	lsr	r21
     ad0:	47 95       	ror	r20
     ad2:	37 95       	ror	r19
     ad4:	27 95       	ror	r18
     ad6:	81 e0       	ldi	r24, 0x01	; 1
     ad8:	90 e0       	ldi	r25, 0x00	; 0
     ada:	a0 e0       	ldi	r26, 0x00	; 0
     adc:	b0 e0       	ldi	r27, 0x00	; 0
     ade:	88 22       	and	r8, r24
     ae0:	99 22       	and	r9, r25
     ae2:	aa 22       	and	r10, r26
     ae4:	bb 22       	and	r11, r27
     ae6:	28 0d       	add	r18, r8
     ae8:	39 1d       	adc	r19, r9
     aea:	4a 1d       	adc	r20, r10
     aec:	5b 1d       	adc	r21, r11
     aee:	21 50       	subi	r18, 0x01	; 1
     af0:	3e 4f       	sbci	r19, 0xFE	; 254
     af2:	4f 4f       	sbci	r20, 0xFF	; 255
     af4:	5f 4f       	sbci	r21, 0xFF	; 255
     af6:	69 e0       	ldi	r22, 0x09	; 9
     af8:	56 95       	lsr	r21
     afa:	47 95       	ror	r20
     afc:	37 95       	ror	r19
     afe:	27 95       	ror	r18
     b00:	6a 95       	dec	r22
     b02:	d1 f7       	brne	.-12     	; 0xaf8 <__stack+0x299>
     b04:	f8 01       	movw	r30, r16
     b06:	83 8d       	ldd	r24, Z+27	; 0x1b
     b08:	94 8d       	ldd	r25, Z+28	; 0x1c
     b0a:	a5 8d       	ldd	r26, Z+29	; 0x1d
     b0c:	b6 8d       	ldd	r27, Z+30	; 0x1e
     b0e:	82 17       	cp	r24, r18
     b10:	93 07       	cpc	r25, r19
     b12:	a4 07       	cpc	r26, r20
     b14:	b5 07       	cpc	r27, r21
     b16:	08 f4       	brcc	.+2      	; 0xb1a <__stack+0x2bb>
     b18:	8d c0       	rjmp	.+282    	; 0xc34 <__stack+0x3d5>
     b1a:	8f ef       	ldi	r24, 0xFF	; 255
     b1c:	9f ef       	ldi	r25, 0xFF	; 255
     b1e:	af ef       	ldi	r26, 0xFF	; 255
     b20:	bf ef       	ldi	r27, 0xFF	; 255
     b22:	87 87       	std	Z+15, r24	; 0x0f
     b24:	90 8b       	std	Z+16, r25	; 0x10
     b26:	a1 8b       	std	Z+17, r26	; 0x11
     b28:	b2 8b       	std	Z+18, r27	; 0x12
     b2a:	83 87       	std	Z+11, r24	; 0x0b
     b2c:	94 87       	std	Z+12, r25	; 0x0c
     b2e:	a5 87       	std	Z+13, r26	; 0x0d
     b30:	b6 87       	std	Z+14, r27	; 0x0e
     b32:	80 e8       	ldi	r24, 0x80	; 128
     b34:	84 83       	std	Z+4, r24	; 0x04
     b36:	f3 e0       	ldi	r31, 0x03	; 3
     b38:	2f 16       	cp	r2, r31
     b3a:	31 04       	cpc	r3, r1
     b3c:	09 f0       	breq	.+2      	; 0xb40 <__stack+0x2e1>
     b3e:	61 c0       	rjmp	.+194    	; 0xc02 <__stack+0x3a3>
     b40:	0c 59       	subi	r16, 0x9C	; 156
     b42:	1f 4f       	sbci	r17, 0xFF	; 255
     b44:	d8 01       	movw	r26, r16
     b46:	9c 91       	ld	r25, X
     b48:	80 e0       	ldi	r24, 0x00	; 0
     b4a:	f8 01       	movw	r30, r16
     b4c:	22 91       	ld	r18, -Z
     b4e:	8f 01       	movw	r16, r30
     b50:	03 56       	subi	r16, 0x63	; 99
     b52:	10 40       	sbci	r17, 0x00	; 0
     b54:	30 e0       	ldi	r19, 0x00	; 0
     b56:	82 2b       	or	r24, r18
     b58:	93 2b       	or	r25, r19
     b5a:	01 97       	sbiw	r24, 0x01	; 1
     b5c:	09 f0       	breq	.+2      	; 0xb60 <__stack+0x301>
     b5e:	51 c0       	rjmp	.+162    	; 0xc02 <__stack+0x3a3>
     b60:	8d 89       	ldd	r24, Y+21	; 0x15
     b62:	9e 89       	ldd	r25, Y+22	; 0x16
     b64:	af 89       	ldd	r26, Y+23	; 0x17
     b66:	b8 8d       	ldd	r27, Y+24	; 0x18
     b68:	01 96       	adiw	r24, 0x01	; 1
     b6a:	a1 1d       	adc	r26, r1
     b6c:	b1 1d       	adc	r27, r1
     b6e:	8d 8b       	std	Y+21, r24	; 0x15
     b70:	9e 8b       	std	Y+22, r25	; 0x16
     b72:	af 8b       	std	Y+23, r26	; 0x17
     b74:	b8 8f       	std	Y+24, r27	; 0x18
     b76:	c8 01       	movw	r24, r16
     b78:	4d 89       	ldd	r20, Y+21	; 0x15
     b7a:	5e 89       	ldd	r21, Y+22	; 0x16
     b7c:	6f 89       	ldd	r22, Y+23	; 0x17
     b7e:	78 8d       	ldd	r23, Y+24	; 0x18
     b80:	0e 94 33 02 	call	0x466	; 0x466 <move_window>
     b84:	88 23       	and	r24, r24
     b86:	09 f0       	breq	.+2      	; 0xb8a <__stack+0x32b>
     b88:	3c c0       	rjmp	.+120    	; 0xc02 <__stack+0x3a3>
     b8a:	d8 01       	movw	r26, r16
     b8c:	14 96       	adiw	r26, 0x04	; 4
     b8e:	1c 92       	st	X, r1
     b90:	0e 5c       	subi	r16, 0xCE	; 206
     b92:	1d 4f       	sbci	r17, 0xFD	; 253
     b94:	f8 01       	movw	r30, r16
     b96:	90 81       	ld	r25, Z
     b98:	80 e0       	ldi	r24, 0x00	; 0
     b9a:	d8 01       	movw	r26, r16
     b9c:	2e 91       	ld	r18, -X
     b9e:	8d 01       	movw	r16, r26
     ba0:	01 53       	subi	r16, 0x31	; 49
     ba2:	12 40       	sbci	r17, 0x02	; 2
     ba4:	30 e0       	ldi	r19, 0x00	; 0
     ba6:	82 2b       	or	r24, r18
     ba8:	93 2b       	or	r25, r19
     baa:	85 55       	subi	r24, 0x55	; 85
     bac:	9a 4a       	sbci	r25, 0xAA	; 170
     bae:	49 f5       	brne	.+82     	; 0xc02 <__stack+0x3a3>
     bb0:	c8 01       	movw	r24, r16
     bb2:	c3 96       	adiw	r24, 0x33	; 51
     bb4:	0e 94 14 01 	call	0x228	; 0x228 <ld_dword>
     bb8:	62 55       	subi	r22, 0x52	; 82
     bba:	72 45       	sbci	r23, 0x52	; 82
     bbc:	81 46       	sbci	r24, 0x61	; 97
     bbe:	91 44       	sbci	r25, 0x41	; 65
     bc0:	01 f5       	brne	.+64     	; 0xc02 <__stack+0x3a3>
     bc2:	c8 01       	movw	r24, r16
     bc4:	89 5e       	subi	r24, 0xE9	; 233
     bc6:	9d 4f       	sbci	r25, 0xFD	; 253
     bc8:	0e 94 14 01 	call	0x228	; 0x228 <ld_dword>
     bcc:	62 57       	subi	r22, 0x72	; 114
     bce:	72 47       	sbci	r23, 0x72	; 114
     bd0:	81 44       	sbci	r24, 0x41	; 65
     bd2:	91 46       	sbci	r25, 0x61	; 97
     bd4:	b1 f4       	brne	.+44     	; 0xc02 <__stack+0x3a3>
     bd6:	c8 01       	movw	r24, r16
     bd8:	85 5e       	subi	r24, 0xE5	; 229
     bda:	9d 4f       	sbci	r25, 0xFD	; 253
     bdc:	0e 94 14 01 	call	0x228	; 0x228 <ld_dword>
     be0:	d8 01       	movw	r26, r16
     be2:	1f 96       	adiw	r26, 0x0f	; 15
     be4:	6d 93       	st	X+, r22
     be6:	7d 93       	st	X+, r23
     be8:	8d 93       	st	X+, r24
     bea:	9c 93       	st	X, r25
     bec:	52 97       	sbiw	r26, 0x12	; 18
     bee:	c8 01       	movw	r24, r16
     bf0:	81 5e       	subi	r24, 0xE1	; 225
     bf2:	9d 4f       	sbci	r25, 0xFD	; 253
     bf4:	0e 94 14 01 	call	0x228	; 0x228 <ld_dword>
     bf8:	f8 01       	movw	r30, r16
     bfa:	63 87       	std	Z+11, r22	; 0x0b
     bfc:	74 87       	std	Z+12, r23	; 0x0c
     bfe:	85 87       	std	Z+13, r24	; 0x0d
     c00:	96 87       	std	Z+14, r25	; 0x0e
     c02:	d8 01       	movw	r26, r16
     c04:	2c 92       	st	X, r2
     c06:	80 91 56 01 	lds	r24, 0x0156
     c0a:	90 91 57 01 	lds	r25, 0x0157
     c0e:	01 96       	adiw	r24, 0x01	; 1
     c10:	90 93 57 01 	sts	0x0157, r25
     c14:	80 93 56 01 	sts	0x0156, r24
     c18:	16 96       	adiw	r26, 0x06	; 6
     c1a:	9c 93       	st	X, r25
     c1c:	8e 93       	st	-X, r24
     c1e:	15 97       	sbiw	r26, 0x05	; 5
     c20:	f8 01       	movw	r30, r16
     c22:	13 8a       	std	Z+19, r1	; 0x13
     c24:	14 8a       	std	Z+20, r1	; 0x14
     c26:	15 8a       	std	Z+21, r1	; 0x15
     c28:	16 8a       	std	Z+22, r1	; 0x16
     c2a:	02 c0       	rjmp	.+4      	; 0xc30 <__stack+0x3d1>
     c2c:	8a e0       	ldi	r24, 0x0A	; 10
     c2e:	03 c0       	rjmp	.+6      	; 0xc36 <__stack+0x3d7>
     c30:	80 e0       	ldi	r24, 0x00	; 0
     c32:	01 c0       	rjmp	.+2      	; 0xc36 <__stack+0x3d7>
     c34:	8d e0       	ldi	r24, 0x0D	; 13
     c36:	68 96       	adiw	r28, 0x18	; 24
     c38:	0f b6       	in	r0, 0x3f	; 63
     c3a:	f8 94       	cli
     c3c:	de bf       	out	0x3e, r29	; 62
     c3e:	0f be       	out	0x3f, r0	; 63
     c40:	cd bf       	out	0x3d, r28	; 61
     c42:	cf 91       	pop	r28
     c44:	df 91       	pop	r29
     c46:	1f 91       	pop	r17
     c48:	0f 91       	pop	r16
     c4a:	ff 90       	pop	r15
     c4c:	ef 90       	pop	r14
     c4e:	df 90       	pop	r13
     c50:	cf 90       	pop	r12
     c52:	bf 90       	pop	r11
     c54:	af 90       	pop	r10
     c56:	9f 90       	pop	r9
     c58:	8f 90       	pop	r8
     c5a:	7f 90       	pop	r7
     c5c:	6f 90       	pop	r6
     c5e:	5f 90       	pop	r5
     c60:	4f 90       	pop	r4
     c62:	3f 90       	pop	r3
     c64:	2f 90       	pop	r2
     c66:	08 95       	ret

00000c68 <f_mount>:
     c68:	1f 93       	push	r17
     c6a:	df 93       	push	r29
     c6c:	cf 93       	push	r28
     c6e:	00 d0       	rcall	.+0      	; 0xc70 <f_mount+0x8>
     c70:	00 d0       	rcall	.+0      	; 0xc72 <f_mount+0xa>
     c72:	00 d0       	rcall	.+0      	; 0xc74 <f_mount+0xc>
     c74:	cd b7       	in	r28, 0x3d	; 61
     c76:	de b7       	in	r29, 0x3e	; 62
     c78:	9c 83       	std	Y+4, r25	; 0x04
     c7a:	8b 83       	std	Y+3, r24	; 0x03
     c7c:	7e 83       	std	Y+6, r23	; 0x06
     c7e:	6d 83       	std	Y+5, r22	; 0x05
     c80:	14 2f       	mov	r17, r20
     c82:	7a 83       	std	Y+2, r23	; 0x02
     c84:	69 83       	std	Y+1, r22	; 0x01
     c86:	ce 01       	movw	r24, r28
     c88:	01 96       	adiw	r24, 0x01	; 1
     c8a:	0e 94 86 01 	call	0x30c	; 0x30c <get_ldnumber>
     c8e:	dc 01       	movw	r26, r24
     c90:	97 ff       	sbrs	r25, 7
     c92:	02 c0       	rjmp	.+4      	; 0xc98 <f_mount+0x30>
     c94:	8b e0       	ldi	r24, 0x0B	; 11
     c96:	22 c0       	rjmp	.+68     	; 0xcdc <f_mount+0x74>
     c98:	fc 01       	movw	r30, r24
     c9a:	ee 0f       	add	r30, r30
     c9c:	ff 1f       	adc	r31, r31
     c9e:	ee 5a       	subi	r30, 0xAE	; 174
     ca0:	fe 4f       	sbci	r31, 0xFE	; 254
     ca2:	01 90       	ld	r0, Z+
     ca4:	f0 81       	ld	r31, Z
     ca6:	e0 2d       	mov	r30, r0
     ca8:	30 97       	sbiw	r30, 0x00	; 0
     caa:	09 f0       	breq	.+2      	; 0xcae <f_mount+0x46>
     cac:	10 82       	st	Z, r1
     cae:	eb 81       	ldd	r30, Y+3	; 0x03
     cb0:	fc 81       	ldd	r31, Y+4	; 0x04
     cb2:	30 97       	sbiw	r30, 0x00	; 0
     cb4:	09 f0       	breq	.+2      	; 0xcb8 <f_mount+0x50>
     cb6:	10 82       	st	Z, r1
     cb8:	aa 0f       	add	r26, r26
     cba:	bb 1f       	adc	r27, r27
     cbc:	ae 5a       	subi	r26, 0xAE	; 174
     cbe:	be 4f       	sbci	r27, 0xFE	; 254
     cc0:	ed 93       	st	X+, r30
     cc2:	fc 93       	st	X, r31
     cc4:	11 23       	and	r17, r17
     cc6:	11 f4       	brne	.+4      	; 0xccc <f_mount+0x64>
     cc8:	80 e0       	ldi	r24, 0x00	; 0
     cca:	08 c0       	rjmp	.+16     	; 0xcdc <f_mount+0x74>
     ccc:	ce 01       	movw	r24, r28
     cce:	05 96       	adiw	r24, 0x05	; 5
     cd0:	be 01       	movw	r22, r28
     cd2:	6d 5f       	subi	r22, 0xFD	; 253
     cd4:	7f 4f       	sbci	r23, 0xFF	; 255
     cd6:	40 e0       	ldi	r20, 0x00	; 0
     cd8:	0e 94 2f 03 	call	0x65e	; 0x65e <mount_volume>
     cdc:	26 96       	adiw	r28, 0x06	; 6
     cde:	0f b6       	in	r0, 0x3f	; 63
     ce0:	f8 94       	cli
     ce2:	de bf       	out	0x3e, r29	; 62
     ce4:	0f be       	out	0x3f, r0	; 63
     ce6:	cd bf       	out	0x3d, r28	; 61
     ce8:	cf 91       	pop	r28
     cea:	df 91       	pop	r29
     cec:	1f 91       	pop	r17
     cee:	08 95       	ret

00000cf0 <get_fat>:
     cf0:	bf 92       	push	r11
     cf2:	cf 92       	push	r12
     cf4:	df 92       	push	r13
     cf6:	ef 92       	push	r14
     cf8:	ff 92       	push	r15
     cfa:	0f 93       	push	r16
     cfc:	1f 93       	push	r17
     cfe:	cf 93       	push	r28
     d00:	df 93       	push	r29
     d02:	fc 01       	movw	r30, r24
     d04:	7a 01       	movw	r14, r20
     d06:	8b 01       	movw	r16, r22
     d08:	c0 81       	ld	r28, Z
     d0a:	d1 81       	ldd	r29, Z+1	; 0x01
     d0c:	42 30       	cpi	r20, 0x02	; 2
     d0e:	51 05       	cpc	r21, r1
     d10:	61 05       	cpc	r22, r1
     d12:	71 05       	cpc	r23, r1
     d14:	08 f4       	brcc	.+2      	; 0xd18 <get_fat+0x28>
     d16:	b3 c0       	rjmp	.+358    	; 0xe7e <get_fat+0x18e>
     d18:	8f 89       	ldd	r24, Y+23	; 0x17
     d1a:	98 8d       	ldd	r25, Y+24	; 0x18
     d1c:	a9 8d       	ldd	r26, Y+25	; 0x19
     d1e:	ba 8d       	ldd	r27, Y+26	; 0x1a
     d20:	48 17       	cp	r20, r24
     d22:	59 07       	cpc	r21, r25
     d24:	6a 07       	cpc	r22, r26
     d26:	7b 07       	cpc	r23, r27
     d28:	08 f0       	brcs	.+2      	; 0xd2c <get_fat+0x3c>
     d2a:	a9 c0       	rjmp	.+338    	; 0xe7e <get_fat+0x18e>
     d2c:	88 81       	ld	r24, Y
     d2e:	82 30       	cpi	r24, 0x02	; 2
     d30:	09 f4       	brne	.+2      	; 0xd34 <get_fat+0x44>
     d32:	5a c0       	rjmp	.+180    	; 0xde8 <get_fat+0xf8>
     d34:	83 30       	cpi	r24, 0x03	; 3
     d36:	09 f4       	brne	.+2      	; 0xd3a <get_fat+0x4a>
     d38:	7c c0       	rjmp	.+248    	; 0xe32 <get_fat+0x142>
     d3a:	81 30       	cpi	r24, 0x01	; 1
     d3c:	09 f0       	breq	.+2      	; 0xd40 <get_fat+0x50>
     d3e:	9f c0       	rjmp	.+318    	; 0xe7e <get_fat+0x18e>
     d40:	6a 01       	movw	r12, r20
     d42:	d6 94       	lsr	r13
     d44:	c7 94       	ror	r12
     d46:	c4 0e       	add	r12, r20
     d48:	d5 1e       	adc	r13, r21
     d4a:	a6 01       	movw	r20, r12
     d4c:	45 2f       	mov	r20, r21
     d4e:	55 27       	eor	r21, r21
     d50:	46 95       	lsr	r20
     d52:	60 e0       	ldi	r22, 0x00	; 0
     d54:	70 e0       	ldi	r23, 0x00	; 0
     d56:	8b a1       	ldd	r24, Y+35	; 0x23
     d58:	9c a1       	ldd	r25, Y+36	; 0x24
     d5a:	ad a1       	ldd	r26, Y+37	; 0x25
     d5c:	be a1       	ldd	r27, Y+38	; 0x26
     d5e:	48 0f       	add	r20, r24
     d60:	59 1f       	adc	r21, r25
     d62:	6a 1f       	adc	r22, r26
     d64:	7b 1f       	adc	r23, r27
     d66:	ce 01       	movw	r24, r28
     d68:	0e 94 33 02 	call	0x466	; 0x466 <move_window>
     d6c:	88 23       	and	r24, r24
     d6e:	09 f0       	breq	.+2      	; 0xd72 <get_fat+0x82>
     d70:	8b c0       	rjmp	.+278    	; 0xe88 <get_fat+0x198>
     d72:	f6 01       	movw	r30, r12
     d74:	f1 70       	andi	r31, 0x01	; 1
     d76:	ec 0f       	add	r30, r28
     d78:	fd 1f       	adc	r31, r29
     d7a:	b3 a8       	ldd	r11, Z+51	; 0x33
     d7c:	08 94       	sec
     d7e:	c1 1c       	adc	r12, r1
     d80:	d1 1c       	adc	r13, r1
     d82:	a6 01       	movw	r20, r12
     d84:	45 2f       	mov	r20, r21
     d86:	55 27       	eor	r21, r21
     d88:	46 95       	lsr	r20
     d8a:	60 e0       	ldi	r22, 0x00	; 0
     d8c:	70 e0       	ldi	r23, 0x00	; 0
     d8e:	8b a1       	ldd	r24, Y+35	; 0x23
     d90:	9c a1       	ldd	r25, Y+36	; 0x24
     d92:	ad a1       	ldd	r26, Y+37	; 0x25
     d94:	be a1       	ldd	r27, Y+38	; 0x26
     d96:	48 0f       	add	r20, r24
     d98:	59 1f       	adc	r21, r25
     d9a:	6a 1f       	adc	r22, r26
     d9c:	7b 1f       	adc	r23, r27
     d9e:	ce 01       	movw	r24, r28
     da0:	0e 94 33 02 	call	0x466	; 0x466 <move_window>
     da4:	88 23       	and	r24, r24
     da6:	09 f0       	breq	.+2      	; 0xdaa <get_fat+0xba>
     da8:	6f c0       	rjmp	.+222    	; 0xe88 <get_fat+0x198>
     daa:	6b 2d       	mov	r22, r11
     dac:	70 e0       	ldi	r23, 0x00	; 0
     dae:	8f ef       	ldi	r24, 0xFF	; 255
     db0:	91 e0       	ldi	r25, 0x01	; 1
     db2:	c8 22       	and	r12, r24
     db4:	d9 22       	and	r13, r25
     db6:	cc 0d       	add	r28, r12
     db8:	dd 1d       	adc	r29, r13
     dba:	9b a9       	ldd	r25, Y+51	; 0x33
     dbc:	80 e0       	ldi	r24, 0x00	; 0
     dbe:	68 2b       	or	r22, r24
     dc0:	79 2b       	or	r23, r25
     dc2:	c7 01       	movw	r24, r14
     dc4:	81 70       	andi	r24, 0x01	; 1
     dc6:	90 70       	andi	r25, 0x00	; 0
     dc8:	89 2b       	or	r24, r25
     dca:	39 f0       	breq	.+14     	; 0xdda <get_fat+0xea>
     dcc:	e4 e0       	ldi	r30, 0x04	; 4
     dce:	76 95       	lsr	r23
     dd0:	67 95       	ror	r22
     dd2:	ea 95       	dec	r30
     dd4:	e1 f7       	brne	.-8      	; 0xdce <get_fat+0xde>
     dd6:	9b 01       	movw	r18, r22
     dd8:	29 c0       	rjmp	.+82     	; 0xe2c <get_fat+0x13c>
     dda:	9b 01       	movw	r18, r22
     ddc:	40 e0       	ldi	r20, 0x00	; 0
     dde:	50 e0       	ldi	r21, 0x00	; 0
     de0:	3f 70       	andi	r19, 0x0F	; 15
     de2:	40 70       	andi	r20, 0x00	; 0
     de4:	50 70       	andi	r21, 0x00	; 0
     de6:	54 c0       	rjmp	.+168    	; 0xe90 <get_fat+0x1a0>
     de8:	77 27       	eor	r23, r23
     dea:	61 2f       	mov	r22, r17
     dec:	50 2f       	mov	r21, r16
     dee:	4f 2d       	mov	r20, r15
     df0:	8b a1       	ldd	r24, Y+35	; 0x23
     df2:	9c a1       	ldd	r25, Y+36	; 0x24
     df4:	ad a1       	ldd	r26, Y+37	; 0x25
     df6:	be a1       	ldd	r27, Y+38	; 0x26
     df8:	48 0f       	add	r20, r24
     dfa:	59 1f       	adc	r21, r25
     dfc:	6a 1f       	adc	r22, r26
     dfe:	7b 1f       	adc	r23, r27
     e00:	ce 01       	movw	r24, r28
     e02:	0e 94 33 02 	call	0x466	; 0x466 <move_window>
     e06:	88 23       	and	r24, r24
     e08:	09 f0       	breq	.+2      	; 0xe0c <get_fat+0x11c>
     e0a:	3e c0       	rjmp	.+124    	; 0xe88 <get_fat+0x198>
     e0c:	ee 0c       	add	r14, r14
     e0e:	ff 1c       	adc	r15, r15
     e10:	00 1f       	adc	r16, r16
     e12:	11 1f       	adc	r17, r17
     e14:	c7 01       	movw	r24, r14
     e16:	91 70       	andi	r25, 0x01	; 1
     e18:	fe 01       	movw	r30, r28
     e1a:	e8 0f       	add	r30, r24
     e1c:	f9 1f       	adc	r31, r25
     e1e:	34 a9       	ldd	r19, Z+52	; 0x34
     e20:	20 e0       	ldi	r18, 0x00	; 0
     e22:	83 a9       	ldd	r24, Z+51	; 0x33
     e24:	90 e0       	ldi	r25, 0x00	; 0
     e26:	82 2b       	or	r24, r18
     e28:	93 2b       	or	r25, r19
     e2a:	9c 01       	movw	r18, r24
     e2c:	40 e0       	ldi	r20, 0x00	; 0
     e2e:	50 e0       	ldi	r21, 0x00	; 0
     e30:	2f c0       	rjmp	.+94     	; 0xe90 <get_fat+0x1a0>
     e32:	37 e0       	ldi	r19, 0x07	; 7
     e34:	76 95       	lsr	r23
     e36:	67 95       	ror	r22
     e38:	57 95       	ror	r21
     e3a:	47 95       	ror	r20
     e3c:	3a 95       	dec	r19
     e3e:	d1 f7       	brne	.-12     	; 0xe34 <get_fat+0x144>
     e40:	8b a1       	ldd	r24, Y+35	; 0x23
     e42:	9c a1       	ldd	r25, Y+36	; 0x24
     e44:	ad a1       	ldd	r26, Y+37	; 0x25
     e46:	be a1       	ldd	r27, Y+38	; 0x26
     e48:	48 0f       	add	r20, r24
     e4a:	59 1f       	adc	r21, r25
     e4c:	6a 1f       	adc	r22, r26
     e4e:	7b 1f       	adc	r23, r27
     e50:	ce 01       	movw	r24, r28
     e52:	0e 94 33 02 	call	0x466	; 0x466 <move_window>
     e56:	88 23       	and	r24, r24
     e58:	b9 f4       	brne	.+46     	; 0xe88 <get_fat+0x198>
     e5a:	22 e0       	ldi	r18, 0x02	; 2
     e5c:	ee 0c       	add	r14, r14
     e5e:	ff 1c       	adc	r15, r15
     e60:	00 1f       	adc	r16, r16
     e62:	11 1f       	adc	r17, r17
     e64:	2a 95       	dec	r18
     e66:	d1 f7       	brne	.-12     	; 0xe5c <get_fat+0x16c>
     e68:	c7 01       	movw	r24, r14
     e6a:	91 70       	andi	r25, 0x01	; 1
     e6c:	c3 96       	adiw	r24, 0x33	; 51
     e6e:	8c 0f       	add	r24, r28
     e70:	9d 1f       	adc	r25, r29
     e72:	0e 94 14 01 	call	0x228	; 0x228 <ld_dword>
     e76:	9b 01       	movw	r18, r22
     e78:	ac 01       	movw	r20, r24
     e7a:	5f 70       	andi	r21, 0x0F	; 15
     e7c:	09 c0       	rjmp	.+18     	; 0xe90 <get_fat+0x1a0>
     e7e:	21 e0       	ldi	r18, 0x01	; 1
     e80:	30 e0       	ldi	r19, 0x00	; 0
     e82:	40 e0       	ldi	r20, 0x00	; 0
     e84:	50 e0       	ldi	r21, 0x00	; 0
     e86:	04 c0       	rjmp	.+8      	; 0xe90 <get_fat+0x1a0>
     e88:	2f ef       	ldi	r18, 0xFF	; 255
     e8a:	3f ef       	ldi	r19, 0xFF	; 255
     e8c:	4f ef       	ldi	r20, 0xFF	; 255
     e8e:	5f ef       	ldi	r21, 0xFF	; 255
     e90:	b9 01       	movw	r22, r18
     e92:	ca 01       	movw	r24, r20
     e94:	df 91       	pop	r29
     e96:	cf 91       	pop	r28
     e98:	1f 91       	pop	r17
     e9a:	0f 91       	pop	r16
     e9c:	ff 90       	pop	r15
     e9e:	ef 90       	pop	r14
     ea0:	df 90       	pop	r13
     ea2:	cf 90       	pop	r12
     ea4:	bf 90       	pop	r11
     ea6:	08 95       	ret

00000ea8 <dir_sdi>:
     ea8:	2f 92       	push	r2
     eaa:	3f 92       	push	r3
     eac:	4f 92       	push	r4
     eae:	5f 92       	push	r5
     eb0:	6f 92       	push	r6
     eb2:	7f 92       	push	r7
     eb4:	8f 92       	push	r8
     eb6:	9f 92       	push	r9
     eb8:	af 92       	push	r10
     eba:	bf 92       	push	r11
     ebc:	cf 92       	push	r12
     ebe:	df 92       	push	r13
     ec0:	ef 92       	push	r14
     ec2:	ff 92       	push	r15
     ec4:	0f 93       	push	r16
     ec6:	1f 93       	push	r17
     ec8:	cf 93       	push	r28
     eca:	df 93       	push	r29
     ecc:	2c 01       	movw	r4, r24
     ece:	3a 01       	movw	r6, r20
     ed0:	4b 01       	movw	r8, r22
     ed2:	fc 01       	movw	r30, r24
     ed4:	c0 81       	ld	r28, Z
     ed6:	d1 81       	ldd	r29, Z+1	; 0x01
     ed8:	40 30       	cpi	r20, 0x00	; 0
     eda:	f0 e0       	ldi	r31, 0x00	; 0
     edc:	5f 07       	cpc	r21, r31
     ede:	f0 e2       	ldi	r31, 0x20	; 32
     ee0:	6f 07       	cpc	r22, r31
     ee2:	f0 e0       	ldi	r31, 0x00	; 0
     ee4:	7f 07       	cpc	r23, r31
     ee6:	08 f0       	brcs	.+2      	; 0xeea <dir_sdi+0x42>
     ee8:	d8 c0       	rjmp	.+432    	; 0x109a <dir_sdi+0x1f2>
     eea:	db 01       	movw	r26, r22
     eec:	ca 01       	movw	r24, r20
     eee:	8f 71       	andi	r24, 0x1F	; 31
     ef0:	90 70       	andi	r25, 0x00	; 0
     ef2:	a0 70       	andi	r26, 0x00	; 0
     ef4:	b0 70       	andi	r27, 0x00	; 0
     ef6:	00 97       	sbiw	r24, 0x00	; 0
     ef8:	a1 05       	cpc	r26, r1
     efa:	b1 05       	cpc	r27, r1
     efc:	09 f0       	breq	.+2      	; 0xf00 <dir_sdi+0x58>
     efe:	cd c0       	rjmp	.+410    	; 0x109a <dir_sdi+0x1f2>
     f00:	f2 01       	movw	r30, r4
     f02:	46 87       	std	Z+14, r20	; 0x0e
     f04:	57 87       	std	Z+15, r21	; 0x0f
     f06:	60 8b       	std	Z+16, r22	; 0x10
     f08:	71 8b       	std	Z+17, r23	; 0x11
     f0a:	e6 80       	ldd	r14, Z+6	; 0x06
     f0c:	f7 80       	ldd	r15, Z+7	; 0x07
     f0e:	00 85       	ldd	r16, Z+8	; 0x08
     f10:	11 85       	ldd	r17, Z+9	; 0x09
     f12:	e1 14       	cp	r14, r1
     f14:	f1 04       	cpc	r15, r1
     f16:	01 05       	cpc	r16, r1
     f18:	11 05       	cpc	r17, r1
     f1a:	51 f5       	brne	.+84     	; 0xf70 <dir_sdi+0xc8>
     f1c:	88 81       	ld	r24, Y
     f1e:	83 30       	cpi	r24, 0x03	; 3
     f20:	40 f0       	brcs	.+16     	; 0xf32 <dir_sdi+0x8a>
     f22:	8f a1       	ldd	r24, Y+39	; 0x27
     f24:	98 a5       	ldd	r25, Y+40	; 0x28
     f26:	a9 a5       	ldd	r26, Y+41	; 0x29
     f28:	ba a5       	ldd	r27, Y+42	; 0x2a
     f2a:	00 97       	sbiw	r24, 0x00	; 0
     f2c:	a1 05       	cpc	r26, r1
     f2e:	b1 05       	cpc	r27, r1
     f30:	e9 f4       	brne	.+58     	; 0xf6c <dir_sdi+0xc4>
     f32:	a4 01       	movw	r20, r8
     f34:	93 01       	movw	r18, r6
     f36:	65 e0       	ldi	r22, 0x05	; 5
     f38:	56 95       	lsr	r21
     f3a:	47 95       	ror	r20
     f3c:	37 95       	ror	r19
     f3e:	27 95       	ror	r18
     f40:	6a 95       	dec	r22
     f42:	d1 f7       	brne	.-12     	; 0xf38 <dir_sdi+0x90>
     f44:	8f 81       	ldd	r24, Y+7	; 0x07
     f46:	98 85       	ldd	r25, Y+8	; 0x08
     f48:	a0 e0       	ldi	r26, 0x00	; 0
     f4a:	b0 e0       	ldi	r27, 0x00	; 0
     f4c:	28 17       	cp	r18, r24
     f4e:	39 07       	cpc	r19, r25
     f50:	4a 07       	cpc	r20, r26
     f52:	5b 07       	cpc	r21, r27
     f54:	08 f0       	brcs	.+2      	; 0xf58 <dir_sdi+0xb0>
     f56:	a1 c0       	rjmp	.+322    	; 0x109a <dir_sdi+0x1f2>
     f58:	8f a1       	ldd	r24, Y+39	; 0x27
     f5a:	98 a5       	ldd	r25, Y+40	; 0x28
     f5c:	a9 a5       	ldd	r26, Y+41	; 0x29
     f5e:	ba a5       	ldd	r27, Y+42	; 0x2a
     f60:	f2 01       	movw	r30, r4
     f62:	86 8b       	std	Z+22, r24	; 0x16
     f64:	97 8b       	std	Z+23, r25	; 0x17
     f66:	a0 8f       	std	Z+24, r26	; 0x18
     f68:	b1 8f       	std	Z+25, r27	; 0x19
     f6a:	6f c0       	rjmp	.+222    	; 0x104a <dir_sdi+0x1a2>
     f6c:	7c 01       	movw	r14, r24
     f6e:	8d 01       	movw	r16, r26
     f70:	89 85       	ldd	r24, Y+9	; 0x09
     f72:	9a 85       	ldd	r25, Y+10	; 0x0a
     f74:	5c 01       	movw	r10, r24
     f76:	cc 24       	eor	r12, r12
     f78:	dd 24       	eor	r13, r13
     f7a:	99 e0       	ldi	r25, 0x09	; 9
     f7c:	aa 0c       	add	r10, r10
     f7e:	bb 1c       	adc	r11, r11
     f80:	cc 1c       	adc	r12, r12
     f82:	dd 1c       	adc	r13, r13
     f84:	9a 95       	dec	r25
     f86:	d1 f7       	brne	.-12     	; 0xf7c <dir_sdi+0xd4>
     f88:	12 01       	movw	r2, r4
     f8a:	26 c0       	rjmp	.+76     	; 0xfd8 <dir_sdi+0x130>
     f8c:	c1 01       	movw	r24, r2
     f8e:	b8 01       	movw	r22, r16
     f90:	a7 01       	movw	r20, r14
     f92:	0e 94 78 06 	call	0xcf0	; 0xcf0 <get_fat>
     f96:	7b 01       	movw	r14, r22
     f98:	8c 01       	movw	r16, r24
     f9a:	6f 3f       	cpi	r22, 0xFF	; 255
     f9c:	ff ef       	ldi	r31, 0xFF	; 255
     f9e:	7f 07       	cpc	r23, r31
     fa0:	ff ef       	ldi	r31, 0xFF	; 255
     fa2:	8f 07       	cpc	r24, r31
     fa4:	ff ef       	ldi	r31, 0xFF	; 255
     fa6:	9f 07       	cpc	r25, r31
     fa8:	11 f4       	brne	.+4      	; 0xfae <dir_sdi+0x106>
     faa:	81 e0       	ldi	r24, 0x01	; 1
     fac:	77 c0       	rjmp	.+238    	; 0x109c <dir_sdi+0x1f4>
     fae:	82 e0       	ldi	r24, 0x02	; 2
     fb0:	e8 16       	cp	r14, r24
     fb2:	f1 04       	cpc	r15, r1
     fb4:	01 05       	cpc	r16, r1
     fb6:	11 05       	cpc	r17, r1
     fb8:	08 f4       	brcc	.+2      	; 0xfbc <dir_sdi+0x114>
     fba:	6f c0       	rjmp	.+222    	; 0x109a <dir_sdi+0x1f2>
     fbc:	8f 89       	ldd	r24, Y+23	; 0x17
     fbe:	98 8d       	ldd	r25, Y+24	; 0x18
     fc0:	a9 8d       	ldd	r26, Y+25	; 0x19
     fc2:	ba 8d       	ldd	r27, Y+26	; 0x1a
     fc4:	e8 16       	cp	r14, r24
     fc6:	f9 06       	cpc	r15, r25
     fc8:	0a 07       	cpc	r16, r26
     fca:	1b 07       	cpc	r17, r27
     fcc:	08 f0       	brcs	.+2      	; 0xfd0 <dir_sdi+0x128>
     fce:	65 c0       	rjmp	.+202    	; 0x109a <dir_sdi+0x1f2>
     fd0:	6a 18       	sub	r6, r10
     fd2:	7b 08       	sbc	r7, r11
     fd4:	8c 08       	sbc	r8, r12
     fd6:	9d 08       	sbc	r9, r13
     fd8:	6a 14       	cp	r6, r10
     fda:	7b 04       	cpc	r7, r11
     fdc:	8c 04       	cpc	r8, r12
     fde:	9d 04       	cpc	r9, r13
     fe0:	a8 f6       	brcc	.-86     	; 0xf8c <dir_sdi+0xe4>
     fe2:	8e ef       	ldi	r24, 0xFE	; 254
     fe4:	a8 2e       	mov	r10, r24
     fe6:	8f ef       	ldi	r24, 0xFF	; 255
     fe8:	b8 2e       	mov	r11, r24
     fea:	8f ef       	ldi	r24, 0xFF	; 255
     fec:	c8 2e       	mov	r12, r24
     fee:	8f ef       	ldi	r24, 0xFF	; 255
     ff0:	d8 2e       	mov	r13, r24
     ff2:	ae 0c       	add	r10, r14
     ff4:	bf 1c       	adc	r11, r15
     ff6:	c0 1e       	adc	r12, r16
     ff8:	d1 1e       	adc	r13, r17
     ffa:	8f 89       	ldd	r24, Y+23	; 0x17
     ffc:	98 8d       	ldd	r25, Y+24	; 0x18
     ffe:	a9 8d       	ldd	r26, Y+25	; 0x19
    1000:	ba 8d       	ldd	r27, Y+26	; 0x1a
    1002:	02 97       	sbiw	r24, 0x02	; 2
    1004:	a1 09       	sbc	r26, r1
    1006:	b1 09       	sbc	r27, r1
    1008:	a8 16       	cp	r10, r24
    100a:	b9 06       	cpc	r11, r25
    100c:	ca 06       	cpc	r12, r26
    100e:	db 06       	cpc	r13, r27
    1010:	28 f0       	brcs	.+10     	; 0x101c <dir_sdi+0x174>
    1012:	20 e0       	ldi	r18, 0x00	; 0
    1014:	30 e0       	ldi	r19, 0x00	; 0
    1016:	40 e0       	ldi	r20, 0x00	; 0
    1018:	50 e0       	ldi	r21, 0x00	; 0
    101a:	12 c0       	rjmp	.+36     	; 0x1040 <dir_sdi+0x198>
    101c:	29 85       	ldd	r18, Y+9	; 0x09
    101e:	3a 85       	ldd	r19, Y+10	; 0x0a
    1020:	40 e0       	ldi	r20, 0x00	; 0
    1022:	50 e0       	ldi	r21, 0x00	; 0
    1024:	c6 01       	movw	r24, r12
    1026:	b5 01       	movw	r22, r10
    1028:	0e 94 3b 1d 	call	0x3a76	; 0x3a76 <__mulsi3>
    102c:	9b 01       	movw	r18, r22
    102e:	ac 01       	movw	r20, r24
    1030:	8b a5       	ldd	r24, Y+43	; 0x2b
    1032:	9c a5       	ldd	r25, Y+44	; 0x2c
    1034:	ad a5       	ldd	r26, Y+45	; 0x2d
    1036:	be a5       	ldd	r27, Y+46	; 0x2e
    1038:	28 0f       	add	r18, r24
    103a:	39 1f       	adc	r19, r25
    103c:	4a 1f       	adc	r20, r26
    103e:	5b 1f       	adc	r21, r27
    1040:	f2 01       	movw	r30, r4
    1042:	26 8b       	std	Z+22, r18	; 0x16
    1044:	37 8b       	std	Z+23, r19	; 0x17
    1046:	40 8f       	std	Z+24, r20	; 0x18
    1048:	51 8f       	std	Z+25, r21	; 0x19
    104a:	f2 01       	movw	r30, r4
    104c:	e2 8a       	std	Z+18, r14	; 0x12
    104e:	f3 8a       	std	Z+19, r15	; 0x13
    1050:	04 8b       	std	Z+20, r16	; 0x14
    1052:	15 8b       	std	Z+21, r17	; 0x15
    1054:	26 89       	ldd	r18, Z+22	; 0x16
    1056:	37 89       	ldd	r19, Z+23	; 0x17
    1058:	40 8d       	ldd	r20, Z+24	; 0x18
    105a:	51 8d       	ldd	r21, Z+25	; 0x19
    105c:	21 15       	cp	r18, r1
    105e:	31 05       	cpc	r19, r1
    1060:	41 05       	cpc	r20, r1
    1062:	51 05       	cpc	r21, r1
    1064:	d1 f0       	breq	.+52     	; 0x109a <dir_sdi+0x1f2>
    1066:	d4 01       	movw	r26, r8
    1068:	c3 01       	movw	r24, r6
    106a:	19 e0       	ldi	r17, 0x09	; 9
    106c:	b6 95       	lsr	r27
    106e:	a7 95       	ror	r26
    1070:	97 95       	ror	r25
    1072:	87 95       	ror	r24
    1074:	1a 95       	dec	r17
    1076:	d1 f7       	brne	.-12     	; 0x106c <dir_sdi+0x1c4>
    1078:	82 0f       	add	r24, r18
    107a:	93 1f       	adc	r25, r19
    107c:	a4 1f       	adc	r26, r20
    107e:	b5 1f       	adc	r27, r21
    1080:	86 8b       	std	Z+22, r24	; 0x16
    1082:	97 8b       	std	Z+23, r25	; 0x17
    1084:	a0 8f       	std	Z+24, r26	; 0x18
    1086:	b1 8f       	std	Z+25, r27	; 0x19
    1088:	c3 01       	movw	r24, r6
    108a:	91 70       	andi	r25, 0x01	; 1
    108c:	c3 96       	adiw	r24, 0x33	; 51
    108e:	c8 0f       	add	r28, r24
    1090:	d9 1f       	adc	r29, r25
    1092:	d3 8f       	std	Z+27, r29	; 0x1b
    1094:	c2 8f       	std	Z+26, r28	; 0x1a
    1096:	80 e0       	ldi	r24, 0x00	; 0
    1098:	01 c0       	rjmp	.+2      	; 0x109c <dir_sdi+0x1f4>
    109a:	82 e0       	ldi	r24, 0x02	; 2
    109c:	df 91       	pop	r29
    109e:	cf 91       	pop	r28
    10a0:	1f 91       	pop	r17
    10a2:	0f 91       	pop	r16
    10a4:	ff 90       	pop	r15
    10a6:	ef 90       	pop	r14
    10a8:	df 90       	pop	r13
    10aa:	cf 90       	pop	r12
    10ac:	bf 90       	pop	r11
    10ae:	af 90       	pop	r10
    10b0:	9f 90       	pop	r9
    10b2:	8f 90       	pop	r8
    10b4:	7f 90       	pop	r7
    10b6:	6f 90       	pop	r6
    10b8:	5f 90       	pop	r5
    10ba:	4f 90       	pop	r4
    10bc:	3f 90       	pop	r3
    10be:	2f 90       	pop	r2
    10c0:	08 95       	ret

000010c2 <put_fat>:
    10c2:	7f 92       	push	r7
    10c4:	8f 92       	push	r8
    10c6:	9f 92       	push	r9
    10c8:	af 92       	push	r10
    10ca:	bf 92       	push	r11
    10cc:	cf 92       	push	r12
    10ce:	df 92       	push	r13
    10d0:	ef 92       	push	r14
    10d2:	ff 92       	push	r15
    10d4:	0f 93       	push	r16
    10d6:	1f 93       	push	r17
    10d8:	cf 93       	push	r28
    10da:	df 93       	push	r29
    10dc:	ec 01       	movw	r28, r24
    10de:	6a 01       	movw	r12, r20
    10e0:	7b 01       	movw	r14, r22
    10e2:	48 01       	movw	r8, r16
    10e4:	59 01       	movw	r10, r18
    10e6:	42 30       	cpi	r20, 0x02	; 2
    10e8:	51 05       	cpc	r21, r1
    10ea:	61 05       	cpc	r22, r1
    10ec:	71 05       	cpc	r23, r1
    10ee:	08 f4       	brcc	.+2      	; 0x10f2 <put_fat+0x30>
    10f0:	df c0       	rjmp	.+446    	; 0x12b0 <put_fat+0x1ee>
    10f2:	8f 89       	ldd	r24, Y+23	; 0x17
    10f4:	98 8d       	ldd	r25, Y+24	; 0x18
    10f6:	a9 8d       	ldd	r26, Y+25	; 0x19
    10f8:	ba 8d       	ldd	r27, Y+26	; 0x1a
    10fa:	48 17       	cp	r20, r24
    10fc:	59 07       	cpc	r21, r25
    10fe:	6a 07       	cpc	r22, r26
    1100:	7b 07       	cpc	r23, r27
    1102:	08 f0       	brcs	.+2      	; 0x1106 <put_fat+0x44>
    1104:	d5 c0       	rjmp	.+426    	; 0x12b0 <put_fat+0x1ee>
    1106:	88 81       	ld	r24, Y
    1108:	82 30       	cpi	r24, 0x02	; 2
    110a:	09 f4       	brne	.+2      	; 0x110e <put_fat+0x4c>
    110c:	72 c0       	rjmp	.+228    	; 0x11f2 <put_fat+0x130>
    110e:	83 30       	cpi	r24, 0x03	; 3
    1110:	09 f4       	brne	.+2      	; 0x1114 <put_fat+0x52>
    1112:	91 c0       	rjmp	.+290    	; 0x1236 <put_fat+0x174>
    1114:	81 30       	cpi	r24, 0x01	; 1
    1116:	09 f0       	breq	.+2      	; 0x111a <put_fat+0x58>
    1118:	cb c0       	rjmp	.+406    	; 0x12b0 <put_fat+0x1ee>
    111a:	8a 01       	movw	r16, r20
    111c:	16 95       	lsr	r17
    111e:	07 95       	ror	r16
    1120:	04 0f       	add	r16, r20
    1122:	15 1f       	adc	r17, r21
    1124:	a8 01       	movw	r20, r16
    1126:	45 2f       	mov	r20, r21
    1128:	55 27       	eor	r21, r21
    112a:	46 95       	lsr	r20
    112c:	60 e0       	ldi	r22, 0x00	; 0
    112e:	70 e0       	ldi	r23, 0x00	; 0
    1130:	8b a1       	ldd	r24, Y+35	; 0x23
    1132:	9c a1       	ldd	r25, Y+36	; 0x24
    1134:	ad a1       	ldd	r26, Y+37	; 0x25
    1136:	be a1       	ldd	r27, Y+38	; 0x26
    1138:	48 0f       	add	r20, r24
    113a:	59 1f       	adc	r21, r25
    113c:	6a 1f       	adc	r22, r26
    113e:	7b 1f       	adc	r23, r27
    1140:	ce 01       	movw	r24, r28
    1142:	0e 94 33 02 	call	0x466	; 0x466 <move_window>
    1146:	78 2e       	mov	r7, r24
    1148:	88 23       	and	r24, r24
    114a:	09 f0       	breq	.+2      	; 0x114e <put_fat+0x8c>
    114c:	b3 c0       	rjmp	.+358    	; 0x12b4 <put_fat+0x1f2>
    114e:	d8 01       	movw	r26, r16
    1150:	b1 70       	andi	r27, 0x01	; 1
    1152:	0f 5f       	subi	r16, 0xFF	; 255
    1154:	1f 4f       	sbci	r17, 0xFF	; 255
    1156:	91 e0       	ldi	r25, 0x01	; 1
    1158:	c9 22       	and	r12, r25
    115a:	dd 24       	eor	r13, r13
    115c:	c1 14       	cp	r12, r1
    115e:	d1 04       	cpc	r13, r1
    1160:	51 f0       	breq	.+20     	; 0x1176 <put_fat+0xb4>
    1162:	fe 01       	movw	r30, r28
    1164:	ea 0f       	add	r30, r26
    1166:	fb 1f       	adc	r31, r27
    1168:	83 a9       	ldd	r24, Z+51	; 0x33
    116a:	8f 70       	andi	r24, 0x0F	; 15
    116c:	98 2d       	mov	r25, r8
    116e:	92 95       	swap	r25
    1170:	90 7f       	andi	r25, 0xF0	; 240
    1172:	98 2b       	or	r25, r24
    1174:	01 c0       	rjmp	.+2      	; 0x1178 <put_fat+0xb6>
    1176:	98 2d       	mov	r25, r8
    1178:	ac 0f       	add	r26, r28
    117a:	bd 1f       	adc	r27, r29
    117c:	d3 96       	adiw	r26, 0x33	; 51
    117e:	9c 93       	st	X, r25
    1180:	81 e0       	ldi	r24, 0x01	; 1
    1182:	8b 83       	std	Y+3, r24	; 0x03
    1184:	a8 01       	movw	r20, r16
    1186:	45 2f       	mov	r20, r21
    1188:	55 27       	eor	r21, r21
    118a:	46 95       	lsr	r20
    118c:	60 e0       	ldi	r22, 0x00	; 0
    118e:	70 e0       	ldi	r23, 0x00	; 0
    1190:	8b a1       	ldd	r24, Y+35	; 0x23
    1192:	9c a1       	ldd	r25, Y+36	; 0x24
    1194:	ad a1       	ldd	r26, Y+37	; 0x25
    1196:	be a1       	ldd	r27, Y+38	; 0x26
    1198:	48 0f       	add	r20, r24
    119a:	59 1f       	adc	r21, r25
    119c:	6a 1f       	adc	r22, r26
    119e:	7b 1f       	adc	r23, r27
    11a0:	ce 01       	movw	r24, r28
    11a2:	0e 94 33 02 	call	0x466	; 0x466 <move_window>
    11a6:	78 2e       	mov	r7, r24
    11a8:	88 23       	and	r24, r24
    11aa:	09 f0       	breq	.+2      	; 0x11ae <put_fat+0xec>
    11ac:	83 c0       	rjmp	.+262    	; 0x12b4 <put_fat+0x1f2>
    11ae:	8f ef       	ldi	r24, 0xFF	; 255
    11b0:	e8 2e       	mov	r14, r24
    11b2:	81 e0       	ldi	r24, 0x01	; 1
    11b4:	f8 2e       	mov	r15, r24
    11b6:	e0 22       	and	r14, r16
    11b8:	f1 22       	and	r15, r17
    11ba:	cd 28       	or	r12, r13
    11bc:	49 f0       	breq	.+18     	; 0x11d0 <put_fat+0x10e>
    11be:	04 e0       	ldi	r16, 0x04	; 4
    11c0:	b6 94       	lsr	r11
    11c2:	a7 94       	ror	r10
    11c4:	97 94       	ror	r9
    11c6:	87 94       	ror	r8
    11c8:	0a 95       	dec	r16
    11ca:	d1 f7       	brne	.-12     	; 0x11c0 <put_fat+0xfe>
    11cc:	e8 2d       	mov	r30, r8
    11ce:	0b c0       	rjmp	.+22     	; 0x11e6 <put_fat+0x124>
    11d0:	fe 01       	movw	r30, r28
    11d2:	ee 0d       	add	r30, r14
    11d4:	ff 1d       	adc	r31, r15
    11d6:	e3 a9       	ldd	r30, Z+51	; 0x33
    11d8:	e0 7f       	andi	r30, 0xF0	; 240
    11da:	bb 27       	eor	r27, r27
    11dc:	ab 2d       	mov	r26, r11
    11de:	9a 2d       	mov	r25, r10
    11e0:	89 2d       	mov	r24, r9
    11e2:	8f 70       	andi	r24, 0x0F	; 15
    11e4:	e8 2b       	or	r30, r24
    11e6:	ec 0e       	add	r14, r28
    11e8:	fd 1e       	adc	r15, r29
    11ea:	d7 01       	movw	r26, r14
    11ec:	d3 96       	adiw	r26, 0x33	; 51
    11ee:	ec 93       	st	X, r30
    11f0:	5c c0       	rjmp	.+184    	; 0x12aa <put_fat+0x1e8>
    11f2:	45 2f       	mov	r20, r21
    11f4:	56 2f       	mov	r21, r22
    11f6:	67 2f       	mov	r22, r23
    11f8:	77 27       	eor	r23, r23
    11fa:	8b a1       	ldd	r24, Y+35	; 0x23
    11fc:	9c a1       	ldd	r25, Y+36	; 0x24
    11fe:	ad a1       	ldd	r26, Y+37	; 0x25
    1200:	be a1       	ldd	r27, Y+38	; 0x26
    1202:	48 0f       	add	r20, r24
    1204:	59 1f       	adc	r21, r25
    1206:	6a 1f       	adc	r22, r26
    1208:	7b 1f       	adc	r23, r27
    120a:	ce 01       	movw	r24, r28
    120c:	0e 94 33 02 	call	0x466	; 0x466 <move_window>
    1210:	78 2e       	mov	r7, r24
    1212:	88 23       	and	r24, r24
    1214:	09 f0       	breq	.+2      	; 0x1218 <put_fat+0x156>
    1216:	4e c0       	rjmp	.+156    	; 0x12b4 <put_fat+0x1f2>
    1218:	cc 0c       	add	r12, r12
    121a:	dd 1c       	adc	r13, r13
    121c:	ee 1c       	adc	r14, r14
    121e:	ff 1c       	adc	r15, r15
    1220:	f6 01       	movw	r30, r12
    1222:	f1 70       	andi	r31, 0x01	; 1
    1224:	de 01       	movw	r26, r28
    1226:	ae 0f       	add	r26, r30
    1228:	bf 1f       	adc	r27, r31
    122a:	d3 96       	adiw	r26, 0x33	; 51
    122c:	8c 92       	st	X, r8
    122e:	d3 97       	sbiw	r26, 0x33	; 51
    1230:	fd 01       	movw	r30, r26
    1232:	94 aa       	std	Z+52, r9	; 0x34
    1234:	3a c0       	rjmp	.+116    	; 0x12aa <put_fat+0x1e8>
    1236:	f7 e0       	ldi	r31, 0x07	; 7
    1238:	76 95       	lsr	r23
    123a:	67 95       	ror	r22
    123c:	57 95       	ror	r21
    123e:	47 95       	ror	r20
    1240:	fa 95       	dec	r31
    1242:	d1 f7       	brne	.-12     	; 0x1238 <put_fat+0x176>
    1244:	8b a1       	ldd	r24, Y+35	; 0x23
    1246:	9c a1       	ldd	r25, Y+36	; 0x24
    1248:	ad a1       	ldd	r26, Y+37	; 0x25
    124a:	be a1       	ldd	r27, Y+38	; 0x26
    124c:	48 0f       	add	r20, r24
    124e:	59 1f       	adc	r21, r25
    1250:	6a 1f       	adc	r22, r26
    1252:	7b 1f       	adc	r23, r27
    1254:	ce 01       	movw	r24, r28
    1256:	0e 94 33 02 	call	0x466	; 0x466 <move_window>
    125a:	78 2e       	mov	r7, r24
    125c:	88 23       	and	r24, r24
    125e:	51 f5       	brne	.+84     	; 0x12b4 <put_fat+0x1f2>
    1260:	8f ef       	ldi	r24, 0xFF	; 255
    1262:	9f ef       	ldi	r25, 0xFF	; 255
    1264:	af ef       	ldi	r26, 0xFF	; 255
    1266:	bf e0       	ldi	r27, 0x0F	; 15
    1268:	88 22       	and	r8, r24
    126a:	99 22       	and	r9, r25
    126c:	aa 22       	and	r10, r26
    126e:	bb 22       	and	r11, r27
    1270:	e2 e0       	ldi	r30, 0x02	; 2
    1272:	cc 0c       	add	r12, r12
    1274:	dd 1c       	adc	r13, r13
    1276:	ee 1c       	adc	r14, r14
    1278:	ff 1c       	adc	r15, r15
    127a:	ea 95       	dec	r30
    127c:	d1 f7       	brne	.-12     	; 0x1272 <put_fat+0x1b0>
    127e:	86 01       	movw	r16, r12
    1280:	11 70       	andi	r17, 0x01	; 1
    1282:	0d 5c       	subi	r16, 0xCD	; 205
    1284:	1f 4f       	sbci	r17, 0xFF	; 255
    1286:	0c 0f       	add	r16, r28
    1288:	1d 1f       	adc	r17, r29
    128a:	c8 01       	movw	r24, r16
    128c:	0e 94 14 01 	call	0x228	; 0x228 <ld_dword>
    1290:	60 70       	andi	r22, 0x00	; 0
    1292:	70 70       	andi	r23, 0x00	; 0
    1294:	80 70       	andi	r24, 0x00	; 0
    1296:	90 7f       	andi	r25, 0xF0	; 240
    1298:	86 2a       	or	r8, r22
    129a:	97 2a       	or	r9, r23
    129c:	a8 2a       	or	r10, r24
    129e:	b9 2a       	or	r11, r25
    12a0:	c8 01       	movw	r24, r16
    12a2:	b5 01       	movw	r22, r10
    12a4:	a4 01       	movw	r20, r8
    12a6:	0e 94 40 01 	call	0x280	; 0x280 <st_dword>
    12aa:	81 e0       	ldi	r24, 0x01	; 1
    12ac:	8b 83       	std	Y+3, r24	; 0x03
    12ae:	02 c0       	rjmp	.+4      	; 0x12b4 <put_fat+0x1f2>
    12b0:	72 e0       	ldi	r23, 0x02	; 2
    12b2:	77 2e       	mov	r7, r23
    12b4:	87 2d       	mov	r24, r7
    12b6:	df 91       	pop	r29
    12b8:	cf 91       	pop	r28
    12ba:	1f 91       	pop	r17
    12bc:	0f 91       	pop	r16
    12be:	ff 90       	pop	r15
    12c0:	ef 90       	pop	r14
    12c2:	df 90       	pop	r13
    12c4:	cf 90       	pop	r12
    12c6:	bf 90       	pop	r11
    12c8:	af 90       	pop	r10
    12ca:	9f 90       	pop	r9
    12cc:	8f 90       	pop	r8
    12ce:	7f 90       	pop	r7
    12d0:	08 95       	ret

000012d2 <create_chain>:
    12d2:	4f 92       	push	r4
    12d4:	5f 92       	push	r5
    12d6:	6f 92       	push	r6
    12d8:	7f 92       	push	r7
    12da:	8f 92       	push	r8
    12dc:	9f 92       	push	r9
    12de:	af 92       	push	r10
    12e0:	bf 92       	push	r11
    12e2:	cf 92       	push	r12
    12e4:	df 92       	push	r13
    12e6:	ef 92       	push	r14
    12e8:	ff 92       	push	r15
    12ea:	0f 93       	push	r16
    12ec:	1f 93       	push	r17
    12ee:	cf 93       	push	r28
    12f0:	df 93       	push	r29
    12f2:	8c 01       	movw	r16, r24
    12f4:	2a 01       	movw	r4, r20
    12f6:	3b 01       	movw	r6, r22
    12f8:	fc 01       	movw	r30, r24
    12fa:	c0 81       	ld	r28, Z
    12fc:	d1 81       	ldd	r29, Z+1	; 0x01
    12fe:	41 15       	cp	r20, r1
    1300:	51 05       	cpc	r21, r1
    1302:	61 05       	cpc	r22, r1
    1304:	71 05       	cpc	r23, r1
    1306:	99 f4       	brne	.+38     	; 0x132e <create_chain+0x5c>
    1308:	8b 84       	ldd	r8, Y+11	; 0x0b
    130a:	9c 84       	ldd	r9, Y+12	; 0x0c
    130c:	ad 84       	ldd	r10, Y+13	; 0x0d
    130e:	be 84       	ldd	r11, Y+14	; 0x0e
    1310:	81 14       	cp	r8, r1
    1312:	91 04       	cpc	r9, r1
    1314:	a1 04       	cpc	r10, r1
    1316:	b1 04       	cpc	r11, r1
    1318:	51 f1       	breq	.+84     	; 0x136e <create_chain+0x9c>
    131a:	8f 89       	ldd	r24, Y+23	; 0x17
    131c:	98 8d       	ldd	r25, Y+24	; 0x18
    131e:	a9 8d       	ldd	r26, Y+25	; 0x19
    1320:	ba 8d       	ldd	r27, Y+26	; 0x1a
    1322:	88 16       	cp	r8, r24
    1324:	99 06       	cpc	r9, r25
    1326:	aa 06       	cpc	r10, r26
    1328:	bb 06       	cpc	r11, r27
    132a:	08 f5       	brcc	.+66     	; 0x136e <create_chain+0x9c>
    132c:	25 c0       	rjmp	.+74     	; 0x1378 <create_chain+0xa6>
    132e:	0e 94 78 06 	call	0xcf0	; 0xcf0 <get_fat>
    1332:	9b 01       	movw	r18, r22
    1334:	ac 01       	movw	r20, r24
    1336:	62 30       	cpi	r22, 0x02	; 2
    1338:	71 05       	cpc	r23, r1
    133a:	81 05       	cpc	r24, r1
    133c:	91 05       	cpc	r25, r1
    133e:	08 f4       	brcc	.+2      	; 0x1342 <create_chain+0x70>
    1340:	ee c0       	rjmp	.+476    	; 0x151e <create_chain+0x24c>
    1342:	6f 3f       	cpi	r22, 0xFF	; 255
    1344:	ff ef       	ldi	r31, 0xFF	; 255
    1346:	7f 07       	cpc	r23, r31
    1348:	ff ef       	ldi	r31, 0xFF	; 255
    134a:	8f 07       	cpc	r24, r31
    134c:	ff ef       	ldi	r31, 0xFF	; 255
    134e:	9f 07       	cpc	r25, r31
    1350:	09 f4       	brne	.+2      	; 0x1354 <create_chain+0x82>
    1352:	f3 c0       	rjmp	.+486    	; 0x153a <create_chain+0x268>
    1354:	8f 89       	ldd	r24, Y+23	; 0x17
    1356:	98 8d       	ldd	r25, Y+24	; 0x18
    1358:	a9 8d       	ldd	r26, Y+25	; 0x19
    135a:	ba 8d       	ldd	r27, Y+26	; 0x1a
    135c:	28 17       	cp	r18, r24
    135e:	39 07       	cpc	r19, r25
    1360:	4a 07       	cpc	r20, r26
    1362:	5b 07       	cpc	r21, r27
    1364:	08 f4       	brcc	.+2      	; 0x1368 <create_chain+0x96>
    1366:	e9 c0       	rjmp	.+466    	; 0x153a <create_chain+0x268>
    1368:	53 01       	movw	r10, r6
    136a:	42 01       	movw	r8, r4
    136c:	05 c0       	rjmp	.+10     	; 0x1378 <create_chain+0xa6>
    136e:	61 e0       	ldi	r22, 0x01	; 1
    1370:	86 2e       	mov	r8, r22
    1372:	91 2c       	mov	r9, r1
    1374:	a1 2c       	mov	r10, r1
    1376:	b1 2c       	mov	r11, r1
    1378:	8f 85       	ldd	r24, Y+15	; 0x0f
    137a:	98 89       	ldd	r25, Y+16	; 0x10
    137c:	a9 89       	ldd	r26, Y+17	; 0x11
    137e:	ba 89       	ldd	r27, Y+18	; 0x12
    1380:	00 97       	sbiw	r24, 0x00	; 0
    1382:	a1 05       	cpc	r26, r1
    1384:	b1 05       	cpc	r27, r1
    1386:	09 f4       	brne	.+2      	; 0x138a <create_chain+0xb8>
    1388:	d4 c0       	rjmp	.+424    	; 0x1532 <create_chain+0x260>
    138a:	84 14       	cp	r8, r4
    138c:	95 04       	cpc	r9, r5
    138e:	a6 04       	cpc	r10, r6
    1390:	b7 04       	cpc	r11, r7
    1392:	09 f0       	breq	.+2      	; 0x1396 <create_chain+0xc4>
    1394:	4a c0       	rjmp	.+148    	; 0x142a <create_chain+0x158>
    1396:	75 01       	movw	r14, r10
    1398:	64 01       	movw	r12, r8
    139a:	08 94       	sec
    139c:	c1 1c       	adc	r12, r1
    139e:	d1 1c       	adc	r13, r1
    13a0:	e1 1c       	adc	r14, r1
    13a2:	f1 1c       	adc	r15, r1
    13a4:	8f 89       	ldd	r24, Y+23	; 0x17
    13a6:	98 8d       	ldd	r25, Y+24	; 0x18
    13a8:	a9 8d       	ldd	r26, Y+25	; 0x19
    13aa:	ba 8d       	ldd	r27, Y+26	; 0x1a
    13ac:	c8 16       	cp	r12, r24
    13ae:	d9 06       	cpc	r13, r25
    13b0:	ea 06       	cpc	r14, r26
    13b2:	fb 06       	cpc	r15, r27
    13b4:	28 f0       	brcs	.+10     	; 0x13c0 <create_chain+0xee>
    13b6:	52 e0       	ldi	r21, 0x02	; 2
    13b8:	c5 2e       	mov	r12, r21
    13ba:	d1 2c       	mov	r13, r1
    13bc:	e1 2c       	mov	r14, r1
    13be:	f1 2c       	mov	r15, r1
    13c0:	c8 01       	movw	r24, r16
    13c2:	b7 01       	movw	r22, r14
    13c4:	a6 01       	movw	r20, r12
    13c6:	0e 94 78 06 	call	0xcf0	; 0xcf0 <get_fat>
    13ca:	9b 01       	movw	r18, r22
    13cc:	ac 01       	movw	r20, r24
    13ce:	61 30       	cpi	r22, 0x01	; 1
    13d0:	71 05       	cpc	r23, r1
    13d2:	81 05       	cpc	r24, r1
    13d4:	91 05       	cpc	r25, r1
    13d6:	09 f4       	brne	.+2      	; 0x13da <create_chain+0x108>
    13d8:	b0 c0       	rjmp	.+352    	; 0x153a <create_chain+0x268>
    13da:	2f 3f       	cpi	r18, 0xFF	; 255
    13dc:	8f ef       	ldi	r24, 0xFF	; 255
    13de:	38 07       	cpc	r19, r24
    13e0:	8f ef       	ldi	r24, 0xFF	; 255
    13e2:	48 07       	cpc	r20, r24
    13e4:	8f ef       	ldi	r24, 0xFF	; 255
    13e6:	58 07       	cpc	r21, r24
    13e8:	09 f4       	brne	.+2      	; 0x13ec <create_chain+0x11a>
    13ea:	a7 c0       	rjmp	.+334    	; 0x153a <create_chain+0x268>
    13ec:	21 15       	cp	r18, r1
    13ee:	31 05       	cpc	r19, r1
    13f0:	41 05       	cpc	r20, r1
    13f2:	51 05       	cpc	r21, r1
    13f4:	a9 f0       	breq	.+42     	; 0x1420 <create_chain+0x14e>
    13f6:	2b 85       	ldd	r18, Y+11	; 0x0b
    13f8:	3c 85       	ldd	r19, Y+12	; 0x0c
    13fa:	4d 85       	ldd	r20, Y+13	; 0x0d
    13fc:	5e 85       	ldd	r21, Y+14	; 0x0e
    13fe:	22 30       	cpi	r18, 0x02	; 2
    1400:	31 05       	cpc	r19, r1
    1402:	41 05       	cpc	r20, r1
    1404:	51 05       	cpc	r21, r1
    1406:	88 f0       	brcs	.+34     	; 0x142a <create_chain+0x158>
    1408:	8f 89       	ldd	r24, Y+23	; 0x17
    140a:	98 8d       	ldd	r25, Y+24	; 0x18
    140c:	a9 8d       	ldd	r26, Y+25	; 0x19
    140e:	ba 8d       	ldd	r27, Y+26	; 0x1a
    1410:	28 17       	cp	r18, r24
    1412:	39 07       	cpc	r19, r25
    1414:	4a 07       	cpc	r20, r26
    1416:	5b 07       	cpc	r21, r27
    1418:	40 f4       	brcc	.+16     	; 0x142a <create_chain+0x158>
    141a:	49 01       	movw	r8, r18
    141c:	5a 01       	movw	r10, r20
    141e:	05 c0       	rjmp	.+10     	; 0x142a <create_chain+0x158>
    1420:	c1 14       	cp	r12, r1
    1422:	d1 04       	cpc	r13, r1
    1424:	e1 04       	cpc	r14, r1
    1426:	f1 04       	cpc	r15, r1
    1428:	e9 f5       	brne	.+122    	; 0x14a4 <create_chain+0x1d2>
    142a:	75 01       	movw	r14, r10
    142c:	64 01       	movw	r12, r8
    142e:	08 94       	sec
    1430:	c1 1c       	adc	r12, r1
    1432:	d1 1c       	adc	r13, r1
    1434:	e1 1c       	adc	r14, r1
    1436:	f1 1c       	adc	r15, r1
    1438:	8f 89       	ldd	r24, Y+23	; 0x17
    143a:	98 8d       	ldd	r25, Y+24	; 0x18
    143c:	a9 8d       	ldd	r26, Y+25	; 0x19
    143e:	ba 8d       	ldd	r27, Y+26	; 0x1a
    1440:	c8 16       	cp	r12, r24
    1442:	d9 06       	cpc	r13, r25
    1444:	ea 06       	cpc	r14, r26
    1446:	fb 06       	cpc	r15, r27
    1448:	60 f0       	brcs	.+24     	; 0x1462 <create_chain+0x190>
    144a:	e2 e0       	ldi	r30, 0x02	; 2
    144c:	8e 16       	cp	r8, r30
    144e:	91 04       	cpc	r9, r1
    1450:	a1 04       	cpc	r10, r1
    1452:	b1 04       	cpc	r11, r1
    1454:	08 f4       	brcc	.+2      	; 0x1458 <create_chain+0x186>
    1456:	6d c0       	rjmp	.+218    	; 0x1532 <create_chain+0x260>
    1458:	42 e0       	ldi	r20, 0x02	; 2
    145a:	c4 2e       	mov	r12, r20
    145c:	d1 2c       	mov	r13, r1
    145e:	e1 2c       	mov	r14, r1
    1460:	f1 2c       	mov	r15, r1
    1462:	c8 01       	movw	r24, r16
    1464:	b7 01       	movw	r22, r14
    1466:	a6 01       	movw	r20, r12
    1468:	0e 94 78 06 	call	0xcf0	; 0xcf0 <get_fat>
    146c:	9b 01       	movw	r18, r22
    146e:	ac 01       	movw	r20, r24
    1470:	61 15       	cp	r22, r1
    1472:	71 05       	cpc	r23, r1
    1474:	81 05       	cpc	r24, r1
    1476:	91 05       	cpc	r25, r1
    1478:	a9 f0       	breq	.+42     	; 0x14a4 <create_chain+0x1d2>
    147a:	61 30       	cpi	r22, 0x01	; 1
    147c:	71 05       	cpc	r23, r1
    147e:	81 05       	cpc	r24, r1
    1480:	91 05       	cpc	r25, r1
    1482:	09 f4       	brne	.+2      	; 0x1486 <create_chain+0x1b4>
    1484:	5a c0       	rjmp	.+180    	; 0x153a <create_chain+0x268>
    1486:	6f 3f       	cpi	r22, 0xFF	; 255
    1488:	ff ef       	ldi	r31, 0xFF	; 255
    148a:	7f 07       	cpc	r23, r31
    148c:	ff ef       	ldi	r31, 0xFF	; 255
    148e:	8f 07       	cpc	r24, r31
    1490:	ff ef       	ldi	r31, 0xFF	; 255
    1492:	9f 07       	cpc	r25, r31
    1494:	09 f4       	brne	.+2      	; 0x1498 <create_chain+0x1c6>
    1496:	51 c0       	rjmp	.+162    	; 0x153a <create_chain+0x268>
    1498:	c8 14       	cp	r12, r8
    149a:	d9 04       	cpc	r13, r9
    149c:	ea 04       	cpc	r14, r10
    149e:	fb 04       	cpc	r15, r11
    14a0:	31 f6       	brne	.-116    	; 0x142e <create_chain+0x15c>
    14a2:	47 c0       	rjmp	.+142    	; 0x1532 <create_chain+0x260>
    14a4:	ce 01       	movw	r24, r28
    14a6:	b7 01       	movw	r22, r14
    14a8:	a6 01       	movw	r20, r12
    14aa:	0f ef       	ldi	r16, 0xFF	; 255
    14ac:	1f ef       	ldi	r17, 0xFF	; 255
    14ae:	2f ef       	ldi	r18, 0xFF	; 255
    14b0:	3f ef       	ldi	r19, 0xFF	; 255
    14b2:	0e 94 61 08 	call	0x10c2	; 0x10c2 <put_fat>
    14b6:	88 23       	and	r24, r24
    14b8:	81 f5       	brne	.+96     	; 0x151a <create_chain+0x248>
    14ba:	41 14       	cp	r4, r1
    14bc:	51 04       	cpc	r5, r1
    14be:	61 04       	cpc	r6, r1
    14c0:	71 04       	cpc	r7, r1
    14c2:	49 f0       	breq	.+18     	; 0x14d6 <create_chain+0x204>
    14c4:	ce 01       	movw	r24, r28
    14c6:	b3 01       	movw	r22, r6
    14c8:	a2 01       	movw	r20, r4
    14ca:	97 01       	movw	r18, r14
    14cc:	86 01       	movw	r16, r12
    14ce:	0e 94 61 08 	call	0x10c2	; 0x10c2 <put_fat>
    14d2:	88 23       	and	r24, r24
    14d4:	11 f5       	brne	.+68     	; 0x151a <create_chain+0x248>
    14d6:	cb 86       	std	Y+11, r12	; 0x0b
    14d8:	dc 86       	std	Y+12, r13	; 0x0c
    14da:	ed 86       	std	Y+13, r14	; 0x0d
    14dc:	fe 86       	std	Y+14, r15	; 0x0e
    14de:	2f 85       	ldd	r18, Y+15	; 0x0f
    14e0:	38 89       	ldd	r19, Y+16	; 0x10
    14e2:	49 89       	ldd	r20, Y+17	; 0x11
    14e4:	5a 89       	ldd	r21, Y+18	; 0x12
    14e6:	8f 89       	ldd	r24, Y+23	; 0x17
    14e8:	98 8d       	ldd	r25, Y+24	; 0x18
    14ea:	a9 8d       	ldd	r26, Y+25	; 0x19
    14ec:	ba 8d       	ldd	r27, Y+26	; 0x1a
    14ee:	02 97       	sbiw	r24, 0x02	; 2
    14f0:	a1 09       	sbc	r26, r1
    14f2:	b1 09       	sbc	r27, r1
    14f4:	82 17       	cp	r24, r18
    14f6:	93 07       	cpc	r25, r19
    14f8:	a4 07       	cpc	r26, r20
    14fa:	b5 07       	cpc	r27, r21
    14fc:	40 f0       	brcs	.+16     	; 0x150e <create_chain+0x23c>
    14fe:	21 50       	subi	r18, 0x01	; 1
    1500:	30 40       	sbci	r19, 0x00	; 0
    1502:	40 40       	sbci	r20, 0x00	; 0
    1504:	50 40       	sbci	r21, 0x00	; 0
    1506:	2f 87       	std	Y+15, r18	; 0x0f
    1508:	38 8b       	std	Y+16, r19	; 0x10
    150a:	49 8b       	std	Y+17, r20	; 0x11
    150c:	5a 8b       	std	Y+18, r21	; 0x12
    150e:	8c 81       	ldd	r24, Y+4	; 0x04
    1510:	81 60       	ori	r24, 0x01	; 1
    1512:	8c 83       	std	Y+4, r24	; 0x04
    1514:	a7 01       	movw	r20, r14
    1516:	96 01       	movw	r18, r12
    1518:	10 c0       	rjmp	.+32     	; 0x153a <create_chain+0x268>
    151a:	81 30       	cpi	r24, 0x01	; 1
    151c:	29 f0       	breq	.+10     	; 0x1528 <create_chain+0x256>
    151e:	21 e0       	ldi	r18, 0x01	; 1
    1520:	30 e0       	ldi	r19, 0x00	; 0
    1522:	40 e0       	ldi	r20, 0x00	; 0
    1524:	50 e0       	ldi	r21, 0x00	; 0
    1526:	09 c0       	rjmp	.+18     	; 0x153a <create_chain+0x268>
    1528:	2f ef       	ldi	r18, 0xFF	; 255
    152a:	3f ef       	ldi	r19, 0xFF	; 255
    152c:	4f ef       	ldi	r20, 0xFF	; 255
    152e:	5f ef       	ldi	r21, 0xFF	; 255
    1530:	04 c0       	rjmp	.+8      	; 0x153a <create_chain+0x268>
    1532:	20 e0       	ldi	r18, 0x00	; 0
    1534:	30 e0       	ldi	r19, 0x00	; 0
    1536:	40 e0       	ldi	r20, 0x00	; 0
    1538:	50 e0       	ldi	r21, 0x00	; 0
    153a:	b9 01       	movw	r22, r18
    153c:	ca 01       	movw	r24, r20
    153e:	df 91       	pop	r29
    1540:	cf 91       	pop	r28
    1542:	1f 91       	pop	r17
    1544:	0f 91       	pop	r16
    1546:	ff 90       	pop	r15
    1548:	ef 90       	pop	r14
    154a:	df 90       	pop	r13
    154c:	cf 90       	pop	r12
    154e:	bf 90       	pop	r11
    1550:	af 90       	pop	r10
    1552:	9f 90       	pop	r9
    1554:	8f 90       	pop	r8
    1556:	7f 90       	pop	r7
    1558:	6f 90       	pop	r6
    155a:	5f 90       	pop	r5
    155c:	4f 90       	pop	r4
    155e:	08 95       	ret

00001560 <dir_next>:
    1560:	2f 92       	push	r2
    1562:	3f 92       	push	r3
    1564:	4f 92       	push	r4
    1566:	5f 92       	push	r5
    1568:	6f 92       	push	r6
    156a:	7f 92       	push	r7
    156c:	8f 92       	push	r8
    156e:	9f 92       	push	r9
    1570:	af 92       	push	r10
    1572:	bf 92       	push	r11
    1574:	cf 92       	push	r12
    1576:	df 92       	push	r13
    1578:	ef 92       	push	r14
    157a:	ff 92       	push	r15
    157c:	0f 93       	push	r16
    157e:	1f 93       	push	r17
    1580:	df 93       	push	r29
    1582:	cf 93       	push	r28
    1584:	00 d0       	rcall	.+0      	; 0x1586 <dir_next+0x26>
    1586:	00 d0       	rcall	.+0      	; 0x1588 <dir_next+0x28>
    1588:	00 d0       	rcall	.+0      	; 0x158a <dir_next+0x2a>
    158a:	cd b7       	in	r28, 0x3d	; 61
    158c:	de b7       	in	r29, 0x3e	; 62
    158e:	2c 01       	movw	r4, r24
    1590:	5b 01       	movw	r10, r22
    1592:	dc 01       	movw	r26, r24
    1594:	6d 90       	ld	r6, X+
    1596:	7c 90       	ld	r7, X
    1598:	11 97       	sbiw	r26, 0x01	; 1
    159a:	1e 96       	adiw	r26, 0x0e	; 14
    159c:	8d 91       	ld	r24, X+
    159e:	9d 91       	ld	r25, X+
    15a0:	0d 90       	ld	r0, X+
    15a2:	bc 91       	ld	r27, X
    15a4:	a0 2d       	mov	r26, r0
    15a6:	80 96       	adiw	r24, 0x20	; 32
    15a8:	a1 1d       	adc	r26, r1
    15aa:	b1 1d       	adc	r27, r1
    15ac:	89 83       	std	Y+1, r24	; 0x01
    15ae:	9a 83       	std	Y+2, r25	; 0x02
    15b0:	ab 83       	std	Y+3, r26	; 0x03
    15b2:	bc 83       	std	Y+4, r27	; 0x04
    15b4:	80 50       	subi	r24, 0x00	; 0
    15b6:	90 40       	sbci	r25, 0x00	; 0
    15b8:	a0 42       	sbci	r26, 0x20	; 32
    15ba:	b0 40       	sbci	r27, 0x00	; 0
    15bc:	38 f0       	brcs	.+14     	; 0x15cc <dir_next+0x6c>
    15be:	d2 01       	movw	r26, r4
    15c0:	56 96       	adiw	r26, 0x16	; 22
    15c2:	1d 92       	st	X+, r1
    15c4:	1d 92       	st	X+, r1
    15c6:	1d 92       	st	X+, r1
    15c8:	1c 92       	st	X, r1
    15ca:	59 97       	sbiw	r26, 0x19	; 25
    15cc:	f2 01       	movw	r30, r4
    15ce:	26 89       	ldd	r18, Z+22	; 0x16
    15d0:	37 89       	ldd	r19, Z+23	; 0x17
    15d2:	40 8d       	ldd	r20, Z+24	; 0x18
    15d4:	51 8d       	ldd	r21, Z+25	; 0x19
    15d6:	21 15       	cp	r18, r1
    15d8:	31 05       	cpc	r19, r1
    15da:	41 05       	cpc	r20, r1
    15dc:	51 05       	cpc	r21, r1
    15de:	09 f4       	brne	.+2      	; 0x15e2 <dir_next+0x82>
    15e0:	7c c0       	rjmp	.+248    	; 0x16da <dir_next+0x17a>
    15e2:	89 81       	ldd	r24, Y+1	; 0x01
    15e4:	9a 81       	ldd	r25, Y+2	; 0x02
    15e6:	ab 81       	ldd	r26, Y+3	; 0x03
    15e8:	bc 81       	ldd	r27, Y+4	; 0x04
    15ea:	91 70       	andi	r25, 0x01	; 1
    15ec:	a0 70       	andi	r26, 0x00	; 0
    15ee:	b0 70       	andi	r27, 0x00	; 0
    15f0:	00 97       	sbiw	r24, 0x00	; 0
    15f2:	a1 05       	cpc	r26, r1
    15f4:	b1 05       	cpc	r27, r1
    15f6:	09 f0       	breq	.+2      	; 0x15fa <dir_next+0x9a>
    15f8:	4c c1       	rjmp	.+664    	; 0x1892 <dir_next+0x332>
    15fa:	2f 5f       	subi	r18, 0xFF	; 255
    15fc:	3f 4f       	sbci	r19, 0xFF	; 255
    15fe:	4f 4f       	sbci	r20, 0xFF	; 255
    1600:	5f 4f       	sbci	r21, 0xFF	; 255
    1602:	d2 01       	movw	r26, r4
    1604:	56 96       	adiw	r26, 0x16	; 22
    1606:	2d 93       	st	X+, r18
    1608:	3d 93       	st	X+, r19
    160a:	4d 93       	st	X+, r20
    160c:	5c 93       	st	X, r21
    160e:	59 97       	sbiw	r26, 0x19	; 25
    1610:	52 96       	adiw	r26, 0x12	; 18
    1612:	ed 90       	ld	r14, X+
    1614:	fd 90       	ld	r15, X+
    1616:	0d 91       	ld	r16, X+
    1618:	1c 91       	ld	r17, X
    161a:	55 97       	sbiw	r26, 0x15	; 21
    161c:	e1 14       	cp	r14, r1
    161e:	f1 04       	cpc	r15, r1
    1620:	01 05       	cpc	r16, r1
    1622:	11 05       	cpc	r17, r1
    1624:	b1 f4       	brne	.+44     	; 0x1652 <dir_next+0xf2>
    1626:	29 81       	ldd	r18, Y+1	; 0x01
    1628:	3a 81       	ldd	r19, Y+2	; 0x02
    162a:	4b 81       	ldd	r20, Y+3	; 0x03
    162c:	5c 81       	ldd	r21, Y+4	; 0x04
    162e:	a5 e0       	ldi	r26, 0x05	; 5
    1630:	56 95       	lsr	r21
    1632:	47 95       	ror	r20
    1634:	37 95       	ror	r19
    1636:	27 95       	ror	r18
    1638:	aa 95       	dec	r26
    163a:	d1 f7       	brne	.-12     	; 0x1630 <dir_next+0xd0>
    163c:	f3 01       	movw	r30, r6
    163e:	87 81       	ldd	r24, Z+7	; 0x07
    1640:	90 85       	ldd	r25, Z+8	; 0x08
    1642:	a0 e0       	ldi	r26, 0x00	; 0
    1644:	b0 e0       	ldi	r27, 0x00	; 0
    1646:	28 17       	cp	r18, r24
    1648:	39 07       	cpc	r19, r25
    164a:	4a 07       	cpc	r20, r26
    164c:	5b 07       	cpc	r21, r27
    164e:	f0 f5       	brcc	.+124    	; 0x16cc <dir_next+0x16c>
    1650:	20 c1       	rjmp	.+576    	; 0x1892 <dir_next+0x332>
    1652:	f3 01       	movw	r30, r6
    1654:	81 85       	ldd	r24, Z+9	; 0x09
    1656:	92 85       	ldd	r25, Z+10	; 0x0a
    1658:	01 97       	sbiw	r24, 0x01	; 1
    165a:	a0 e0       	ldi	r26, 0x00	; 0
    165c:	b0 e0       	ldi	r27, 0x00	; 0
    165e:	29 81       	ldd	r18, Y+1	; 0x01
    1660:	3a 81       	ldd	r19, Y+2	; 0x02
    1662:	4b 81       	ldd	r20, Y+3	; 0x03
    1664:	5c 81       	ldd	r21, Y+4	; 0x04
    1666:	f9 e0       	ldi	r31, 0x09	; 9
    1668:	56 95       	lsr	r21
    166a:	47 95       	ror	r20
    166c:	37 95       	ror	r19
    166e:	27 95       	ror	r18
    1670:	fa 95       	dec	r31
    1672:	d1 f7       	brne	.-12     	; 0x1668 <dir_next+0x108>
    1674:	82 23       	and	r24, r18
    1676:	93 23       	and	r25, r19
    1678:	a4 23       	and	r26, r20
    167a:	b5 23       	and	r27, r21
    167c:	00 97       	sbiw	r24, 0x00	; 0
    167e:	a1 05       	cpc	r26, r1
    1680:	b1 05       	cpc	r27, r1
    1682:	09 f0       	breq	.+2      	; 0x1686 <dir_next+0x126>
    1684:	06 c1       	rjmp	.+524    	; 0x1892 <dir_next+0x332>
    1686:	c2 01       	movw	r24, r4
    1688:	b8 01       	movw	r22, r16
    168a:	a7 01       	movw	r20, r14
    168c:	0e 94 78 06 	call	0xcf0	; 0xcf0 <get_fat>
    1690:	6b 01       	movw	r12, r22
    1692:	7c 01       	movw	r14, r24
    1694:	62 30       	cpi	r22, 0x02	; 2
    1696:	71 05       	cpc	r23, r1
    1698:	81 05       	cpc	r24, r1
    169a:	91 05       	cpc	r25, r1
    169c:	08 f4       	brcc	.+2      	; 0x16a0 <dir_next+0x140>
    169e:	0c c1       	rjmp	.+536    	; 0x18b8 <dir_next+0x358>
    16a0:	6f 3f       	cpi	r22, 0xFF	; 255
    16a2:	2f ef       	ldi	r18, 0xFF	; 255
    16a4:	72 07       	cpc	r23, r18
    16a6:	2f ef       	ldi	r18, 0xFF	; 255
    16a8:	82 07       	cpc	r24, r18
    16aa:	2f ef       	ldi	r18, 0xFF	; 255
    16ac:	92 07       	cpc	r25, r18
    16ae:	09 f4       	brne	.+2      	; 0x16b2 <dir_next+0x152>
    16b0:	05 c1       	rjmp	.+522    	; 0x18bc <dir_next+0x35c>
    16b2:	f3 01       	movw	r30, r6
    16b4:	87 89       	ldd	r24, Z+23	; 0x17
    16b6:	90 8d       	ldd	r25, Z+24	; 0x18
    16b8:	a1 8d       	ldd	r26, Z+25	; 0x19
    16ba:	b2 8d       	ldd	r27, Z+26	; 0x1a
    16bc:	c8 16       	cp	r12, r24
    16be:	d9 06       	cpc	r13, r25
    16c0:	ea 06       	cpc	r14, r26
    16c2:	fb 06       	cpc	r15, r27
    16c4:	08 f4       	brcc	.+2      	; 0x16c8 <dir_next+0x168>
    16c6:	a5 c0       	rjmp	.+330    	; 0x1812 <dir_next+0x2b2>
    16c8:	ab 28       	or	r10, r11
    16ca:	49 f4       	brne	.+18     	; 0x16de <dir_next+0x17e>
    16cc:	d2 01       	movw	r26, r4
    16ce:	56 96       	adiw	r26, 0x16	; 22
    16d0:	1d 92       	st	X+, r1
    16d2:	1d 92       	st	X+, r1
    16d4:	1d 92       	st	X+, r1
    16d6:	1c 92       	st	X, r1
    16d8:	59 97       	sbiw	r26, 0x19	; 25
    16da:	84 e0       	ldi	r24, 0x04	; 4
    16dc:	f0 c0       	rjmp	.+480    	; 0x18be <dir_next+0x35e>
    16de:	f2 01       	movw	r30, r4
    16e0:	42 89       	ldd	r20, Z+18	; 0x12
    16e2:	53 89       	ldd	r21, Z+19	; 0x13
    16e4:	64 89       	ldd	r22, Z+20	; 0x14
    16e6:	75 89       	ldd	r23, Z+21	; 0x15
    16e8:	c2 01       	movw	r24, r4
    16ea:	0e 94 69 09 	call	0x12d2	; 0x12d2 <create_chain>
    16ee:	6b 01       	movw	r12, r22
    16f0:	7c 01       	movw	r14, r24
    16f2:	61 15       	cp	r22, r1
    16f4:	71 05       	cpc	r23, r1
    16f6:	81 05       	cpc	r24, r1
    16f8:	91 05       	cpc	r25, r1
    16fa:	11 f4       	brne	.+4      	; 0x1700 <dir_next+0x1a0>
    16fc:	87 e0       	ldi	r24, 0x07	; 7
    16fe:	df c0       	rjmp	.+446    	; 0x18be <dir_next+0x35e>
    1700:	61 30       	cpi	r22, 0x01	; 1
    1702:	71 05       	cpc	r23, r1
    1704:	81 05       	cpc	r24, r1
    1706:	91 05       	cpc	r25, r1
    1708:	09 f4       	brne	.+2      	; 0x170c <dir_next+0x1ac>
    170a:	d6 c0       	rjmp	.+428    	; 0x18b8 <dir_next+0x358>
    170c:	6f 3f       	cpi	r22, 0xFF	; 255
    170e:	2f ef       	ldi	r18, 0xFF	; 255
    1710:	72 07       	cpc	r23, r18
    1712:	2f ef       	ldi	r18, 0xFF	; 255
    1714:	82 07       	cpc	r24, r18
    1716:	2f ef       	ldi	r18, 0xFF	; 255
    1718:	92 07       	cpc	r25, r18
    171a:	09 f4       	brne	.+2      	; 0x171e <dir_next+0x1be>
    171c:	cf c0       	rjmp	.+414    	; 0x18bc <dir_next+0x35c>
    171e:	c3 01       	movw	r24, r6
    1720:	0e 94 dd 01 	call	0x3ba	; 0x3ba <sync_window>
    1724:	88 23       	and	r24, r24
    1726:	09 f0       	breq	.+2      	; 0x172a <dir_next+0x1ca>
    1728:	c9 c0       	rjmp	.+402    	; 0x18bc <dir_next+0x35c>
    172a:	ee ef       	ldi	r30, 0xFE	; 254
    172c:	8e 2e       	mov	r8, r30
    172e:	ef ef       	ldi	r30, 0xFF	; 255
    1730:	9e 2e       	mov	r9, r30
    1732:	ef ef       	ldi	r30, 0xFF	; 255
    1734:	ae 2e       	mov	r10, r30
    1736:	ef ef       	ldi	r30, 0xFF	; 255
    1738:	be 2e       	mov	r11, r30
    173a:	8c 0c       	add	r8, r12
    173c:	9d 1c       	adc	r9, r13
    173e:	ae 1c       	adc	r10, r14
    1740:	bf 1c       	adc	r11, r15
    1742:	f3 01       	movw	r30, r6
    1744:	87 89       	ldd	r24, Z+23	; 0x17
    1746:	90 8d       	ldd	r25, Z+24	; 0x18
    1748:	a1 8d       	ldd	r26, Z+25	; 0x19
    174a:	b2 8d       	ldd	r27, Z+26	; 0x1a
    174c:	02 97       	sbiw	r24, 0x02	; 2
    174e:	a1 09       	sbc	r26, r1
    1750:	b1 09       	sbc	r27, r1
    1752:	88 16       	cp	r8, r24
    1754:	99 06       	cpc	r9, r25
    1756:	aa 06       	cpc	r10, r26
    1758:	bb 06       	cpc	r11, r27
    175a:	20 f0       	brcs	.+8      	; 0x1764 <dir_next+0x204>
    175c:	88 24       	eor	r8, r8
    175e:	99 24       	eor	r9, r9
    1760:	54 01       	movw	r10, r8
    1762:	16 c0       	rjmp	.+44     	; 0x1790 <dir_next+0x230>
    1764:	d3 01       	movw	r26, r6
    1766:	19 96       	adiw	r26, 0x09	; 9
    1768:	2d 91       	ld	r18, X+
    176a:	3c 91       	ld	r19, X
    176c:	1a 97       	sbiw	r26, 0x0a	; 10
    176e:	40 e0       	ldi	r20, 0x00	; 0
    1770:	50 e0       	ldi	r21, 0x00	; 0
    1772:	c5 01       	movw	r24, r10
    1774:	b4 01       	movw	r22, r8
    1776:	0e 94 3b 1d 	call	0x3a76	; 0x3a76 <__mulsi3>
    177a:	4b 01       	movw	r8, r22
    177c:	5c 01       	movw	r10, r24
    177e:	f3 01       	movw	r30, r6
    1780:	83 a5       	ldd	r24, Z+43	; 0x2b
    1782:	94 a5       	ldd	r25, Z+44	; 0x2c
    1784:	a5 a5       	ldd	r26, Z+45	; 0x2d
    1786:	b6 a5       	ldd	r27, Z+46	; 0x2e
    1788:	88 0e       	add	r8, r24
    178a:	99 1e       	adc	r9, r25
    178c:	aa 1e       	adc	r10, r26
    178e:	bb 1e       	adc	r11, r27
    1790:	d3 01       	movw	r26, r6
    1792:	9f 96       	adiw	r26, 0x2f	; 47
    1794:	8d 92       	st	X+, r8
    1796:	9d 92       	st	X+, r9
    1798:	ad 92       	st	X+, r10
    179a:	bc 92       	st	X, r11
    179c:	d2 97       	sbiw	r26, 0x32	; 50
    179e:	73 e3       	ldi	r23, 0x33	; 51
    17a0:	27 2e       	mov	r2, r23
    17a2:	31 2c       	mov	r3, r1
    17a4:	26 0c       	add	r2, r6
    17a6:	37 1c       	adc	r3, r7
    17a8:	80 e0       	ldi	r24, 0x00	; 0
    17aa:	92 e0       	ldi	r25, 0x02	; 2
    17ac:	f1 01       	movw	r30, r2
    17ae:	9c 01       	movw	r18, r24
    17b0:	11 92       	st	Z+, r1
    17b2:	21 50       	subi	r18, 0x01	; 1
    17b4:	30 40       	sbci	r19, 0x00	; 0
    17b6:	e1 f7       	brne	.-8      	; 0x17b0 <dir_next+0x250>
    17b8:	1e 82       	std	Y+6, r1	; 0x06
    17ba:	1d 82       	std	Y+5, r1	; 0x05
    17bc:	05 c0       	rjmp	.+10     	; 0x17c8 <dir_next+0x268>
    17be:	8d 81       	ldd	r24, Y+5	; 0x05
    17c0:	9e 81       	ldd	r25, Y+6	; 0x06
    17c2:	01 96       	adiw	r24, 0x01	; 1
    17c4:	9e 83       	std	Y+6, r25	; 0x06
    17c6:	8d 83       	std	Y+5, r24	; 0x05
    17c8:	d3 01       	movw	r26, r6
    17ca:	19 96       	adiw	r26, 0x09	; 9
    17cc:	8d 91       	ld	r24, X+
    17ce:	9c 91       	ld	r25, X
    17d0:	1a 97       	sbiw	r26, 0x0a	; 10
    17d2:	ed 81       	ldd	r30, Y+5	; 0x05
    17d4:	fe 81       	ldd	r31, Y+6	; 0x06
    17d6:	e8 17       	cp	r30, r24
    17d8:	f9 07       	cpc	r31, r25
    17da:	80 f4       	brcc	.+32     	; 0x17fc <dir_next+0x29c>
    17dc:	9f 01       	movw	r18, r30
    17de:	40 e0       	ldi	r20, 0x00	; 0
    17e0:	50 e0       	ldi	r21, 0x00	; 0
    17e2:	28 0d       	add	r18, r8
    17e4:	39 1d       	adc	r19, r9
    17e6:	4a 1d       	adc	r20, r10
    17e8:	5b 1d       	adc	r21, r11
    17ea:	11 96       	adiw	r26, 0x01	; 1
    17ec:	8c 91       	ld	r24, X
    17ee:	b1 01       	movw	r22, r2
    17f0:	01 e0       	ldi	r16, 0x01	; 1
    17f2:	10 e0       	ldi	r17, 0x00	; 0
    17f4:	0e 94 e8 00 	call	0x1d0	; 0x1d0 <disk_write>
    17f8:	88 23       	and	r24, r24
    17fa:	09 f3       	breq	.-62     	; 0x17be <dir_next+0x25e>
    17fc:	d3 01       	movw	r26, r6
    17fe:	19 96       	adiw	r26, 0x09	; 9
    1800:	8d 91       	ld	r24, X+
    1802:	9c 91       	ld	r25, X
    1804:	1a 97       	sbiw	r26, 0x0a	; 10
    1806:	ed 81       	ldd	r30, Y+5	; 0x05
    1808:	fe 81       	ldd	r31, Y+6	; 0x06
    180a:	e8 17       	cp	r30, r24
    180c:	f9 07       	cpc	r31, r25
    180e:	09 f0       	breq	.+2      	; 0x1812 <dir_next+0x2b2>
    1810:	55 c0       	rjmp	.+170    	; 0x18bc <dir_next+0x35c>
    1812:	d2 01       	movw	r26, r4
    1814:	52 96       	adiw	r26, 0x12	; 18
    1816:	cd 92       	st	X+, r12
    1818:	dd 92       	st	X+, r13
    181a:	ed 92       	st	X+, r14
    181c:	fc 92       	st	X, r15
    181e:	55 97       	sbiw	r26, 0x15	; 21
    1820:	8e ef       	ldi	r24, 0xFE	; 254
    1822:	9f ef       	ldi	r25, 0xFF	; 255
    1824:	af ef       	ldi	r26, 0xFF	; 255
    1826:	bf ef       	ldi	r27, 0xFF	; 255
    1828:	8c 0d       	add	r24, r12
    182a:	9d 1d       	adc	r25, r13
    182c:	ae 1d       	adc	r26, r14
    182e:	bf 1d       	adc	r27, r15
    1830:	7c 01       	movw	r14, r24
    1832:	8d 01       	movw	r16, r26
    1834:	f3 01       	movw	r30, r6
    1836:	87 89       	ldd	r24, Z+23	; 0x17
    1838:	90 8d       	ldd	r25, Z+24	; 0x18
    183a:	a1 8d       	ldd	r26, Z+25	; 0x19
    183c:	b2 8d       	ldd	r27, Z+26	; 0x1a
    183e:	02 97       	sbiw	r24, 0x02	; 2
    1840:	a1 09       	sbc	r26, r1
    1842:	b1 09       	sbc	r27, r1
    1844:	e8 16       	cp	r14, r24
    1846:	f9 06       	cpc	r15, r25
    1848:	0a 07       	cpc	r16, r26
    184a:	1b 07       	cpc	r17, r27
    184c:	28 f0       	brcs	.+10     	; 0x1858 <dir_next+0x2f8>
    184e:	20 e0       	ldi	r18, 0x00	; 0
    1850:	30 e0       	ldi	r19, 0x00	; 0
    1852:	40 e0       	ldi	r20, 0x00	; 0
    1854:	50 e0       	ldi	r21, 0x00	; 0
    1856:	16 c0       	rjmp	.+44     	; 0x1884 <dir_next+0x324>
    1858:	d3 01       	movw	r26, r6
    185a:	19 96       	adiw	r26, 0x09	; 9
    185c:	2d 91       	ld	r18, X+
    185e:	3c 91       	ld	r19, X
    1860:	1a 97       	sbiw	r26, 0x0a	; 10
    1862:	40 e0       	ldi	r20, 0x00	; 0
    1864:	50 e0       	ldi	r21, 0x00	; 0
    1866:	c8 01       	movw	r24, r16
    1868:	b7 01       	movw	r22, r14
    186a:	0e 94 3b 1d 	call	0x3a76	; 0x3a76 <__mulsi3>
    186e:	9b 01       	movw	r18, r22
    1870:	ac 01       	movw	r20, r24
    1872:	f3 01       	movw	r30, r6
    1874:	83 a5       	ldd	r24, Z+43	; 0x2b
    1876:	94 a5       	ldd	r25, Z+44	; 0x2c
    1878:	a5 a5       	ldd	r26, Z+45	; 0x2d
    187a:	b6 a5       	ldd	r27, Z+46	; 0x2e
    187c:	28 0f       	add	r18, r24
    187e:	39 1f       	adc	r19, r25
    1880:	4a 1f       	adc	r20, r26
    1882:	5b 1f       	adc	r21, r27
    1884:	d2 01       	movw	r26, r4
    1886:	56 96       	adiw	r26, 0x16	; 22
    1888:	2d 93       	st	X+, r18
    188a:	3d 93       	st	X+, r19
    188c:	4d 93       	st	X+, r20
    188e:	5c 93       	st	X, r21
    1890:	59 97       	sbiw	r26, 0x19	; 25
    1892:	89 81       	ldd	r24, Y+1	; 0x01
    1894:	9a 81       	ldd	r25, Y+2	; 0x02
    1896:	ab 81       	ldd	r26, Y+3	; 0x03
    1898:	bc 81       	ldd	r27, Y+4	; 0x04
    189a:	f2 01       	movw	r30, r4
    189c:	86 87       	std	Z+14, r24	; 0x0e
    189e:	97 87       	std	Z+15, r25	; 0x0f
    18a0:	a0 8b       	std	Z+16, r26	; 0x10
    18a2:	b1 8b       	std	Z+17, r27	; 0x11
    18a4:	89 81       	ldd	r24, Y+1	; 0x01
    18a6:	9a 81       	ldd	r25, Y+2	; 0x02
    18a8:	91 70       	andi	r25, 0x01	; 1
    18aa:	c3 96       	adiw	r24, 0x33	; 51
    18ac:	68 0e       	add	r6, r24
    18ae:	79 1e       	adc	r7, r25
    18b0:	73 8e       	std	Z+27, r7	; 0x1b
    18b2:	62 8e       	std	Z+26, r6	; 0x1a
    18b4:	80 e0       	ldi	r24, 0x00	; 0
    18b6:	03 c0       	rjmp	.+6      	; 0x18be <dir_next+0x35e>
    18b8:	82 e0       	ldi	r24, 0x02	; 2
    18ba:	01 c0       	rjmp	.+2      	; 0x18be <dir_next+0x35e>
    18bc:	81 e0       	ldi	r24, 0x01	; 1
    18be:	26 96       	adiw	r28, 0x06	; 6
    18c0:	0f b6       	in	r0, 0x3f	; 63
    18c2:	f8 94       	cli
    18c4:	de bf       	out	0x3e, r29	; 62
    18c6:	0f be       	out	0x3f, r0	; 63
    18c8:	cd bf       	out	0x3d, r28	; 61
    18ca:	cf 91       	pop	r28
    18cc:	df 91       	pop	r29
    18ce:	1f 91       	pop	r17
    18d0:	0f 91       	pop	r16
    18d2:	ff 90       	pop	r15
    18d4:	ef 90       	pop	r14
    18d6:	df 90       	pop	r13
    18d8:	cf 90       	pop	r12
    18da:	bf 90       	pop	r11
    18dc:	af 90       	pop	r10
    18de:	9f 90       	pop	r9
    18e0:	8f 90       	pop	r8
    18e2:	7f 90       	pop	r7
    18e4:	6f 90       	pop	r6
    18e6:	5f 90       	pop	r5
    18e8:	4f 90       	pop	r4
    18ea:	3f 90       	pop	r3
    18ec:	2f 90       	pop	r2
    18ee:	08 95       	ret

000018f0 <follow_path>:
    18f0:	4f 92       	push	r4
    18f2:	5f 92       	push	r5
    18f4:	6f 92       	push	r6
    18f6:	7f 92       	push	r7
    18f8:	8f 92       	push	r8
    18fa:	9f 92       	push	r9
    18fc:	af 92       	push	r10
    18fe:	bf 92       	push	r11
    1900:	cf 92       	push	r12
    1902:	df 92       	push	r13
    1904:	ef 92       	push	r14
    1906:	ff 92       	push	r15
    1908:	0f 93       	push	r16
    190a:	1f 93       	push	r17
    190c:	cf 93       	push	r28
    190e:	df 93       	push	r29
    1910:	ec 01       	movw	r28, r24
    1912:	5b 01       	movw	r10, r22
    1914:	68 80       	ld	r6, Y
    1916:	79 80       	ldd	r7, Y+1	; 0x01
    1918:	fb 01       	movw	r30, r22
    191a:	80 81       	ld	r24, Z
    191c:	8f 32       	cpi	r24, 0x2F	; 47
    191e:	79 f0       	breq	.+30     	; 0x193e <follow_path+0x4e>
    1920:	8c 35       	cpi	r24, 0x5C	; 92
    1922:	69 f0       	breq	.+26     	; 0x193e <follow_path+0x4e>
    1924:	f3 01       	movw	r30, r6
    1926:	83 89       	ldd	r24, Z+19	; 0x13
    1928:	94 89       	ldd	r25, Z+20	; 0x14
    192a:	a5 89       	ldd	r26, Z+21	; 0x15
    192c:	b6 89       	ldd	r27, Z+22	; 0x16
    192e:	8e 83       	std	Y+6, r24	; 0x06
    1930:	9f 83       	std	Y+7, r25	; 0x07
    1932:	a8 87       	std	Y+8, r26	; 0x08
    1934:	b9 87       	std	Y+9, r27	; 0x09
    1936:	0d c0       	rjmp	.+26     	; 0x1952 <follow_path+0x62>
    1938:	08 94       	sec
    193a:	a1 1c       	adc	r10, r1
    193c:	b1 1c       	adc	r11, r1
    193e:	f5 01       	movw	r30, r10
    1940:	80 81       	ld	r24, Z
    1942:	8f 32       	cpi	r24, 0x2F	; 47
    1944:	c9 f3       	breq	.-14     	; 0x1938 <follow_path+0x48>
    1946:	8c 35       	cpi	r24, 0x5C	; 92
    1948:	b9 f3       	breq	.-18     	; 0x1938 <follow_path+0x48>
    194a:	1e 82       	std	Y+6, r1	; 0x06
    194c:	1f 82       	std	Y+7, r1	; 0x07
    194e:	18 86       	std	Y+8, r1	; 0x08
    1950:	19 86       	std	Y+9, r1	; 0x09
    1952:	f5 01       	movw	r30, r10
    1954:	80 81       	ld	r24, Z
    1956:	80 32       	cpi	r24, 0x20	; 32
    1958:	38 f0       	brcs	.+14     	; 0x1968 <follow_path+0x78>
    195a:	9c e1       	ldi	r25, 0x1C	; 28
    195c:	49 2e       	mov	r4, r25
    195e:	51 2c       	mov	r5, r1
    1960:	4c 0e       	add	r4, r28
    1962:	5d 1e       	adc	r5, r29
    1964:	05 e0       	ldi	r16, 0x05	; 5
    1966:	0b c0       	rjmp	.+22     	; 0x197e <follow_path+0x8e>
    1968:	80 e8       	ldi	r24, 0x80	; 128
    196a:	8f a3       	std	Y+39, r24	; 0x27
    196c:	ce 01       	movw	r24, r28
    196e:	40 e0       	ldi	r20, 0x00	; 0
    1970:	50 e0       	ldi	r21, 0x00	; 0
    1972:	60 e0       	ldi	r22, 0x00	; 0
    1974:	70 e0       	ldi	r23, 0x00	; 0
    1976:	0e 94 54 07 	call	0xea8	; 0xea8 <dir_sdi>
    197a:	18 2f       	mov	r17, r24
    197c:	ea c0       	rjmp	.+468    	; 0x1b52 <follow_path+0x262>
    197e:	c2 01       	movw	r24, r4
    1980:	60 e2       	ldi	r22, 0x20	; 32
    1982:	70 e0       	ldi	r23, 0x00	; 0
    1984:	4b e0       	ldi	r20, 0x0B	; 11
    1986:	50 e0       	ldi	r21, 0x00	; 0
    1988:	0e 94 a6 1d 	call	0x3b4c	; 0x3b4c <memset>
    198c:	f5 01       	movw	r30, r10
    198e:	80 81       	ld	r24, Z
    1990:	8e 32       	cpi	r24, 0x2E	; 46
    1992:	41 f0       	breq	.+16     	; 0x19a4 <follow_path+0xb4>
    1994:	cc 24       	eor	r12, r12
    1996:	dd 24       	eor	r13, r13
    1998:	ee 24       	eor	r14, r14
    199a:	ff 24       	eor	r15, r15
    199c:	88 e0       	ldi	r24, 0x08	; 8
    199e:	88 2e       	mov	r8, r24
    19a0:	91 2c       	mov	r9, r1
    19a2:	29 c0       	rjmp	.+82     	; 0x19f6 <follow_path+0x106>
    19a4:	de 01       	movw	r26, r28
    19a6:	80 e0       	ldi	r24, 0x00	; 0
    19a8:	90 e0       	ldi	r25, 0x00	; 0
    19aa:	f5 01       	movw	r30, r10
    19ac:	e8 0f       	add	r30, r24
    19ae:	f9 1f       	adc	r31, r25
    19b0:	e0 81       	ld	r30, Z
    19b2:	01 96       	adiw	r24, 0x01	; 1
    19b4:	ee 32       	cpi	r30, 0x2E	; 46
    19b6:	49 f4       	brne	.+18     	; 0x19ca <follow_path+0xda>
    19b8:	11 96       	adiw	r26, 0x01	; 1
    19ba:	83 30       	cpi	r24, 0x03	; 3
    19bc:	91 05       	cpc	r25, r1
    19be:	09 f4       	brne	.+2      	; 0x19c2 <follow_path+0xd2>
    19c0:	c5 c0       	rjmp	.+394    	; 0x1b4c <follow_path+0x25c>
    19c2:	5b 96       	adiw	r26, 0x1b	; 27
    19c4:	ec 93       	st	X, r30
    19c6:	5b 97       	sbiw	r26, 0x1b	; 27
    19c8:	f0 cf       	rjmp	.-32     	; 0x19aa <follow_path+0xba>
    19ca:	ef 32       	cpi	r30, 0x2F	; 47
    19cc:	29 f0       	breq	.+10     	; 0x19d8 <follow_path+0xe8>
    19ce:	ec 35       	cpi	r30, 0x5C	; 92
    19d0:	39 f0       	breq	.+14     	; 0x19e0 <follow_path+0xf0>
    19d2:	e1 32       	cpi	r30, 0x21	; 33
    19d4:	08 f0       	brcs	.+2      	; 0x19d8 <follow_path+0xe8>
    19d6:	ba c0       	rjmp	.+372    	; 0x1b4c <follow_path+0x25c>
    19d8:	e1 32       	cpi	r30, 0x21	; 33
    19da:	10 f4       	brcc	.+4      	; 0x19e0 <follow_path+0xf0>
    19dc:	24 e2       	ldi	r18, 0x24	; 36
    19de:	01 c0       	rjmp	.+2      	; 0x19e2 <follow_path+0xf2>
    19e0:	20 e2       	ldi	r18, 0x20	; 32
    19e2:	a8 0e       	add	r10, r24
    19e4:	b9 1e       	adc	r11, r25
    19e6:	2f a3       	std	Y+39, r18	; 0x27
    19e8:	c6 c0       	rjmp	.+396    	; 0x1b76 <follow_path+0x286>
    19ea:	18 e0       	ldi	r17, 0x08	; 8
    19ec:	c1 2e       	mov	r12, r17
    19ee:	d1 2c       	mov	r13, r1
    19f0:	bb e0       	ldi	r27, 0x0B	; 11
    19f2:	8b 2e       	mov	r8, r27
    19f4:	91 2c       	mov	r9, r1
    19f6:	f5 01       	movw	r30, r10
    19f8:	ee 0d       	add	r30, r14
    19fa:	ff 1d       	adc	r31, r15
    19fc:	10 81       	ld	r17, Z
    19fe:	08 94       	sec
    1a00:	e1 1c       	adc	r14, r1
    1a02:	f1 1c       	adc	r15, r1
    1a04:	11 32       	cpi	r17, 0x21	; 33
    1a06:	08 f4       	brcc	.+2      	; 0x1a0a <follow_path+0x11a>
    1a08:	3f c0       	rjmp	.+126    	; 0x1a88 <follow_path+0x198>
    1a0a:	1f 32       	cpi	r17, 0x2F	; 47
    1a0c:	21 f4       	brne	.+8      	; 0x1a16 <follow_path+0x126>
    1a0e:	f5 01       	movw	r30, r10
    1a10:	ee 0d       	add	r30, r14
    1a12:	ff 1d       	adc	r31, r15
    1a14:	07 c0       	rjmp	.+14     	; 0x1a24 <follow_path+0x134>
    1a16:	1c 35       	cpi	r17, 0x5C	; 92
    1a18:	59 f4       	brne	.+22     	; 0x1a30 <follow_path+0x140>
    1a1a:	f9 cf       	rjmp	.-14     	; 0x1a0e <follow_path+0x11e>
    1a1c:	08 94       	sec
    1a1e:	e1 1c       	adc	r14, r1
    1a20:	f1 1c       	adc	r15, r1
    1a22:	31 96       	adiw	r30, 0x01	; 1
    1a24:	80 81       	ld	r24, Z
    1a26:	8f 32       	cpi	r24, 0x2F	; 47
    1a28:	c9 f3       	breq	.-14     	; 0x1a1c <follow_path+0x12c>
    1a2a:	8c 35       	cpi	r24, 0x5C	; 92
    1a2c:	b9 f3       	breq	.-18     	; 0x1a1c <follow_path+0x12c>
    1a2e:	2c c0       	rjmp	.+88     	; 0x1a88 <follow_path+0x198>
    1a30:	1e 32       	cpi	r17, 0x2E	; 46
    1a32:	19 f0       	breq	.+6      	; 0x1a3a <follow_path+0x14a>
    1a34:	c8 14       	cp	r12, r8
    1a36:	d9 04       	cpc	r13, r9
    1a38:	40 f0       	brcs	.+16     	; 0x1a4a <follow_path+0x15a>
    1a3a:	fb e0       	ldi	r31, 0x0B	; 11
    1a3c:	8f 16       	cp	r8, r31
    1a3e:	91 04       	cpc	r9, r1
    1a40:	09 f4       	brne	.+2      	; 0x1a44 <follow_path+0x154>
    1a42:	84 c0       	rjmp	.+264    	; 0x1b4c <follow_path+0x25c>
    1a44:	1e 32       	cpi	r17, 0x2E	; 46
    1a46:	89 f2       	breq	.-94     	; 0x19ea <follow_path+0xfa>
    1a48:	81 c0       	rjmp	.+258    	; 0x1b4c <follow_path+0x25c>
    1a4a:	17 ff       	sbrs	r17, 7
    1a4c:	07 c0       	rjmp	.+14     	; 0x1a5c <follow_path+0x16c>
    1a4e:	e1 2f       	mov	r30, r17
    1a50:	f0 e0       	ldi	r31, 0x00	; 0
    1a52:	ef 77       	andi	r30, 0x7F	; 127
    1a54:	f0 70       	andi	r31, 0x00	; 0
    1a56:	ef 52       	subi	r30, 0x2F	; 47
    1a58:	ff 4f       	sbci	r31, 0xFF	; 255
    1a5a:	10 81       	ld	r17, Z
    1a5c:	89 e6       	ldi	r24, 0x69	; 105
    1a5e:	90 e0       	ldi	r25, 0x00	; 0
    1a60:	61 2f       	mov	r22, r17
    1a62:	70 e0       	ldi	r23, 0x00	; 0
    1a64:	0e 94 ad 1d 	call	0x3b5a	; 0x3b5a <strchr>
    1a68:	00 97       	sbiw	r24, 0x00	; 0
    1a6a:	09 f0       	breq	.+2      	; 0x1a6e <follow_path+0x17e>
    1a6c:	6f c0       	rjmp	.+222    	; 0x1b4c <follow_path+0x25c>
    1a6e:	81 2f       	mov	r24, r17
    1a70:	81 56       	subi	r24, 0x61	; 97
    1a72:	8a 31       	cpi	r24, 0x1A	; 26
    1a74:	08 f4       	brcc	.+2      	; 0x1a78 <follow_path+0x188>
    1a76:	10 52       	subi	r17, 0x20	; 32
    1a78:	fe 01       	movw	r30, r28
    1a7a:	ec 0d       	add	r30, r12
    1a7c:	fd 1d       	adc	r31, r13
    1a7e:	14 8f       	std	Z+28, r17	; 0x1c
    1a80:	08 94       	sec
    1a82:	c1 1c       	adc	r12, r1
    1a84:	d1 1c       	adc	r13, r1
    1a86:	b7 cf       	rjmp	.-146    	; 0x19f6 <follow_path+0x106>
    1a88:	cd 28       	or	r12, r13
    1a8a:	09 f4       	brne	.+2      	; 0x1a8e <follow_path+0x19e>
    1a8c:	5f c0       	rjmp	.+190    	; 0x1b4c <follow_path+0x25c>
    1a8e:	8c 8d       	ldd	r24, Y+28	; 0x1c
    1a90:	85 3e       	cpi	r24, 0xE5	; 229
    1a92:	09 f4       	brne	.+2      	; 0x1a96 <follow_path+0x1a6>
    1a94:	0c 8f       	std	Y+28, r16	; 0x1c
    1a96:	ae 0c       	add	r10, r14
    1a98:	bf 1c       	adc	r11, r15
    1a9a:	11 32       	cpi	r17, 0x21	; 33
    1a9c:	30 f0       	brcs	.+12     	; 0x1aaa <follow_path+0x1ba>
    1a9e:	f5 01       	movw	r30, r10
    1aa0:	80 81       	ld	r24, Z
    1aa2:	81 32       	cpi	r24, 0x21	; 33
    1aa4:	10 f0       	brcs	.+4      	; 0x1aaa <follow_path+0x1ba>
    1aa6:	80 e0       	ldi	r24, 0x00	; 0
    1aa8:	01 c0       	rjmp	.+2      	; 0x1aac <follow_path+0x1bc>
    1aaa:	84 e0       	ldi	r24, 0x04	; 4
    1aac:	8f a3       	std	Y+39, r24	; 0x27
    1aae:	63 c0       	rjmp	.+198    	; 0x1b76 <follow_path+0x286>
    1ab0:	4e 89       	ldd	r20, Y+22	; 0x16
    1ab2:	5f 89       	ldd	r21, Y+23	; 0x17
    1ab4:	68 8d       	ldd	r22, Y+24	; 0x18
    1ab6:	79 8d       	ldd	r23, Y+25	; 0x19
    1ab8:	c7 01       	movw	r24, r14
    1aba:	0e 94 33 02 	call	0x466	; 0x466 <move_window>
    1abe:	18 2f       	mov	r17, r24
    1ac0:	88 23       	and	r24, r24
    1ac2:	d9 f4       	brne	.+54     	; 0x1afa <follow_path+0x20a>
    1ac4:	ea 8d       	ldd	r30, Y+26	; 0x1a
    1ac6:	fb 8d       	ldd	r31, Y+27	; 0x1b
    1ac8:	80 81       	ld	r24, Z
    1aca:	88 23       	and	r24, r24
    1acc:	11 f4       	brne	.+4      	; 0x1ad2 <follow_path+0x1e2>
    1ace:	14 e0       	ldi	r17, 0x04	; 4
    1ad0:	14 c0       	rjmp	.+40     	; 0x1afa <follow_path+0x20a>
    1ad2:	83 85       	ldd	r24, Z+11	; 0x0b
    1ad4:	8f 73       	andi	r24, 0x3F	; 63
    1ad6:	8c 83       	std	Y+4, r24	; 0x04
    1ad8:	83 85       	ldd	r24, Z+11	; 0x0b
    1ada:	83 fd       	sbrc	r24, 3
    1adc:	08 c0       	rjmp	.+16     	; 0x1aee <follow_path+0x1fe>
    1ade:	cf 01       	movw	r24, r30
    1ae0:	b2 01       	movw	r22, r4
    1ae2:	4b e0       	ldi	r20, 0x0B	; 11
    1ae4:	50 e0       	ldi	r21, 0x00	; 0
    1ae6:	0e 94 90 1d 	call	0x3b20	; 0x3b20 <memcmp>
    1aea:	00 97       	sbiw	r24, 0x00	; 0
    1aec:	31 f0       	breq	.+12     	; 0x1afa <follow_path+0x20a>
    1aee:	ce 01       	movw	r24, r28
    1af0:	60 e0       	ldi	r22, 0x00	; 0
    1af2:	70 e0       	ldi	r23, 0x00	; 0
    1af4:	0e 94 b0 0a 	call	0x1560	; 0x1560 <dir_next>
    1af8:	47 c0       	rjmp	.+142    	; 0x1b88 <follow_path+0x298>
    1afa:	8f a1       	ldd	r24, Y+39	; 0x27
    1afc:	11 23       	and	r17, r17
    1afe:	91 f0       	breq	.+36     	; 0x1b24 <follow_path+0x234>
    1b00:	14 30       	cpi	r17, 0x04	; 4
    1b02:	39 f5       	brne	.+78     	; 0x1b52 <follow_path+0x262>
    1b04:	90 e0       	ldi	r25, 0x00	; 0
    1b06:	9c 01       	movw	r18, r24
    1b08:	24 70       	andi	r18, 0x04	; 4
    1b0a:	30 70       	andi	r19, 0x00	; 0
    1b0c:	85 ff       	sbrs	r24, 5
    1b0e:	07 c0       	rjmp	.+14     	; 0x1b1e <follow_path+0x22e>
    1b10:	23 2b       	or	r18, r19
    1b12:	09 f4       	brne	.+2      	; 0x1b16 <follow_path+0x226>
    1b14:	34 cf       	rjmp	.-408    	; 0x197e <follow_path+0x8e>
    1b16:	80 e8       	ldi	r24, 0x80	; 128
    1b18:	8f a3       	std	Y+39, r24	; 0x27
    1b1a:	10 e0       	ldi	r17, 0x00	; 0
    1b1c:	1a c0       	rjmp	.+52     	; 0x1b52 <follow_path+0x262>
    1b1e:	23 2b       	or	r18, r19
    1b20:	b9 f0       	breq	.+46     	; 0x1b50 <follow_path+0x260>
    1b22:	17 c0       	rjmp	.+46     	; 0x1b52 <follow_path+0x262>
    1b24:	82 fd       	sbrc	r24, 2
    1b26:	15 c0       	rjmp	.+42     	; 0x1b52 <follow_path+0x262>
    1b28:	8c 81       	ldd	r24, Y+4	; 0x04
    1b2a:	84 ff       	sbrs	r24, 4
    1b2c:	11 c0       	rjmp	.+34     	; 0x1b50 <follow_path+0x260>
    1b2e:	6e 85       	ldd	r22, Y+14	; 0x0e
    1b30:	7f 85       	ldd	r23, Y+15	; 0x0f
    1b32:	71 70       	andi	r23, 0x01	; 1
    1b34:	6d 5c       	subi	r22, 0xCD	; 205
    1b36:	7f 4f       	sbci	r23, 0xFF	; 255
    1b38:	66 0d       	add	r22, r6
    1b3a:	77 1d       	adc	r23, r7
    1b3c:	c3 01       	movw	r24, r6
    1b3e:	0e 94 57 01 	call	0x2ae	; 0x2ae <ld_clust>
    1b42:	6e 83       	std	Y+6, r22	; 0x06
    1b44:	7f 83       	std	Y+7, r23	; 0x07
    1b46:	88 87       	std	Y+8, r24	; 0x08
    1b48:	99 87       	std	Y+9, r25	; 0x09
    1b4a:	19 cf       	rjmp	.-462    	; 0x197e <follow_path+0x8e>
    1b4c:	16 e0       	ldi	r17, 0x06	; 6
    1b4e:	01 c0       	rjmp	.+2      	; 0x1b52 <follow_path+0x262>
    1b50:	15 e0       	ldi	r17, 0x05	; 5
    1b52:	81 2f       	mov	r24, r17
    1b54:	df 91       	pop	r29
    1b56:	cf 91       	pop	r28
    1b58:	1f 91       	pop	r17
    1b5a:	0f 91       	pop	r16
    1b5c:	ff 90       	pop	r15
    1b5e:	ef 90       	pop	r14
    1b60:	df 90       	pop	r13
    1b62:	cf 90       	pop	r12
    1b64:	bf 90       	pop	r11
    1b66:	af 90       	pop	r10
    1b68:	9f 90       	pop	r9
    1b6a:	8f 90       	pop	r8
    1b6c:	7f 90       	pop	r7
    1b6e:	6f 90       	pop	r6
    1b70:	5f 90       	pop	r5
    1b72:	4f 90       	pop	r4
    1b74:	08 95       	ret
    1b76:	e8 80       	ld	r14, Y
    1b78:	f9 80       	ldd	r15, Y+1	; 0x01
    1b7a:	ce 01       	movw	r24, r28
    1b7c:	40 e0       	ldi	r20, 0x00	; 0
    1b7e:	50 e0       	ldi	r21, 0x00	; 0
    1b80:	60 e0       	ldi	r22, 0x00	; 0
    1b82:	70 e0       	ldi	r23, 0x00	; 0
    1b84:	0e 94 54 07 	call	0xea8	; 0xea8 <dir_sdi>
    1b88:	18 2f       	mov	r17, r24
    1b8a:	88 23       	and	r24, r24
    1b8c:	09 f4       	brne	.+2      	; 0x1b90 <follow_path+0x2a0>
    1b8e:	90 cf       	rjmp	.-224    	; 0x1ab0 <follow_path+0x1c0>
    1b90:	b4 cf       	rjmp	.-152    	; 0x1afa <follow_path+0x20a>

00001b92 <f_stat>:
    1b92:	df 92       	push	r13
    1b94:	ef 92       	push	r14
    1b96:	ff 92       	push	r15
    1b98:	0f 93       	push	r16
    1b9a:	1f 93       	push	r17
    1b9c:	df 93       	push	r29
    1b9e:	cf 93       	push	r28
    1ba0:	cd b7       	in	r28, 0x3d	; 61
    1ba2:	de b7       	in	r29, 0x3e	; 62
    1ba4:	aa 97       	sbiw	r28, 0x2a	; 42
    1ba6:	0f b6       	in	r0, 0x3f	; 63
    1ba8:	f8 94       	cli
    1baa:	de bf       	out	0x3e, r29	; 62
    1bac:	0f be       	out	0x3f, r0	; 63
    1bae:	cd bf       	out	0x3d, r28	; 61
    1bb0:	9a a7       	std	Y+42, r25	; 0x2a
    1bb2:	89 a7       	std	Y+41, r24	; 0x29
    1bb4:	7b 01       	movw	r14, r22
    1bb6:	ce 01       	movw	r24, r28
    1bb8:	89 96       	adiw	r24, 0x29	; 41
    1bba:	8e 01       	movw	r16, r28
    1bbc:	0f 5f       	subi	r16, 0xFF	; 255
    1bbe:	1f 4f       	sbci	r17, 0xFF	; 255
    1bc0:	b8 01       	movw	r22, r16
    1bc2:	40 e0       	ldi	r20, 0x00	; 0
    1bc4:	0e 94 2f 03 	call	0x65e	; 0x65e <mount_volume>
    1bc8:	d8 2e       	mov	r13, r24
    1bca:	88 23       	and	r24, r24
    1bcc:	09 f0       	breq	.+2      	; 0x1bd0 <f_stat+0x3e>
    1bce:	66 c0       	rjmp	.+204    	; 0x1c9c <f_stat+0x10a>
    1bd0:	69 a5       	ldd	r22, Y+41	; 0x29
    1bd2:	7a a5       	ldd	r23, Y+42	; 0x2a
    1bd4:	c8 01       	movw	r24, r16
    1bd6:	0e 94 78 0c 	call	0x18f0	; 0x18f0 <follow_path>
    1bda:	d8 2e       	mov	r13, r24
    1bdc:	88 23       	and	r24, r24
    1bde:	09 f0       	breq	.+2      	; 0x1be2 <f_stat+0x50>
    1be0:	5d c0       	rjmp	.+186    	; 0x1c9c <f_stat+0x10a>
    1be2:	88 a5       	ldd	r24, Y+40	; 0x28
    1be4:	87 ff       	sbrs	r24, 7
    1be6:	03 c0       	rjmp	.+6      	; 0x1bee <f_stat+0x5c>
    1be8:	26 e0       	ldi	r18, 0x06	; 6
    1bea:	d2 2e       	mov	r13, r18
    1bec:	57 c0       	rjmp	.+174    	; 0x1c9c <f_stat+0x10a>
    1bee:	e1 14       	cp	r14, r1
    1bf0:	f1 04       	cpc	r15, r1
    1bf2:	09 f4       	brne	.+2      	; 0x1bf6 <f_stat+0x64>
    1bf4:	53 c0       	rjmp	.+166    	; 0x1c9c <f_stat+0x10a>
    1bf6:	f7 01       	movw	r30, r14
    1bf8:	11 86       	std	Z+9, r1	; 0x09
    1bfa:	8f 89       	ldd	r24, Y+23	; 0x17
    1bfc:	98 8d       	ldd	r25, Y+24	; 0x18
    1bfe:	a9 8d       	ldd	r26, Y+25	; 0x19
    1c00:	ba 8d       	ldd	r27, Y+26	; 0x1a
    1c02:	00 97       	sbiw	r24, 0x00	; 0
    1c04:	a1 05       	cpc	r26, r1
    1c06:	b1 05       	cpc	r27, r1
    1c08:	09 f4       	brne	.+2      	; 0x1c0c <f_stat+0x7a>
    1c0a:	48 c0       	rjmp	.+144    	; 0x1c9c <f_stat+0x10a>
    1c0c:	80 e0       	ldi	r24, 0x00	; 0
    1c0e:	90 e0       	ldi	r25, 0x00	; 0
    1c10:	a0 e0       	ldi	r26, 0x00	; 0
    1c12:	b0 e0       	ldi	r27, 0x00	; 0
    1c14:	3e e2       	ldi	r19, 0x2E	; 46
    1c16:	eb 8d       	ldd	r30, Y+27	; 0x1b
    1c18:	fc 8d       	ldd	r31, Y+28	; 0x1c
    1c1a:	e8 0f       	add	r30, r24
    1c1c:	f9 1f       	adc	r31, r25
    1c1e:	20 81       	ld	r18, Z
    1c20:	01 96       	adiw	r24, 0x01	; 1
    1c22:	20 32       	cpi	r18, 0x20	; 32
    1c24:	81 f0       	breq	.+32     	; 0x1c46 <f_stat+0xb4>
    1c26:	25 30       	cpi	r18, 0x05	; 5
    1c28:	09 f4       	brne	.+2      	; 0x1c2c <f_stat+0x9a>
    1c2a:	25 ee       	ldi	r18, 0xE5	; 229
    1c2c:	89 30       	cpi	r24, 0x09	; 9
    1c2e:	91 05       	cpc	r25, r1
    1c30:	29 f4       	brne	.+10     	; 0x1c3c <f_stat+0xaa>
    1c32:	f7 01       	movw	r30, r14
    1c34:	ea 0f       	add	r30, r26
    1c36:	fb 1f       	adc	r31, r27
    1c38:	31 87       	std	Z+9, r19	; 0x09
    1c3a:	11 96       	adiw	r26, 0x01	; 1
    1c3c:	f7 01       	movw	r30, r14
    1c3e:	ea 0f       	add	r30, r26
    1c40:	fb 1f       	adc	r31, r27
    1c42:	21 87       	std	Z+9, r18	; 0x09
    1c44:	11 96       	adiw	r26, 0x01	; 1
    1c46:	8b 30       	cpi	r24, 0x0B	; 11
    1c48:	91 05       	cpc	r25, r1
    1c4a:	29 f7       	brne	.-54     	; 0x1c16 <f_stat+0x84>
    1c4c:	ae 0d       	add	r26, r14
    1c4e:	bf 1d       	adc	r27, r15
    1c50:	19 96       	adiw	r26, 0x09	; 9
    1c52:	1c 92       	st	X, r1
    1c54:	0b 8d       	ldd	r16, Y+27	; 0x1b
    1c56:	1c 8d       	ldd	r17, Y+28	; 0x1c
    1c58:	f8 01       	movw	r30, r16
    1c5a:	83 85       	ldd	r24, Z+11	; 0x0b
    1c5c:	8f 73       	andi	r24, 0x3F	; 63
    1c5e:	f7 01       	movw	r30, r14
    1c60:	80 87       	std	Z+8, r24	; 0x08
    1c62:	c8 01       	movw	r24, r16
    1c64:	4c 96       	adiw	r24, 0x1c	; 28
    1c66:	0e 94 14 01 	call	0x228	; 0x228 <ld_dword>
    1c6a:	f7 01       	movw	r30, r14
    1c6c:	60 83       	st	Z, r22
    1c6e:	71 83       	std	Z+1, r23	; 0x01
    1c70:	82 83       	std	Z+2, r24	; 0x02
    1c72:	93 83       	std	Z+3, r25	; 0x03
    1c74:	f8 01       	movw	r30, r16
    1c76:	97 89       	ldd	r25, Z+23	; 0x17
    1c78:	80 e0       	ldi	r24, 0x00	; 0
    1c7a:	26 89       	ldd	r18, Z+22	; 0x16
    1c7c:	30 e0       	ldi	r19, 0x00	; 0
    1c7e:	82 2b       	or	r24, r18
    1c80:	93 2b       	or	r25, r19
    1c82:	f7 01       	movw	r30, r14
    1c84:	97 83       	std	Z+7, r25	; 0x07
    1c86:	86 83       	std	Z+6, r24	; 0x06
    1c88:	f8 01       	movw	r30, r16
    1c8a:	91 8d       	ldd	r25, Z+25	; 0x19
    1c8c:	80 e0       	ldi	r24, 0x00	; 0
    1c8e:	20 8d       	ldd	r18, Z+24	; 0x18
    1c90:	30 e0       	ldi	r19, 0x00	; 0
    1c92:	82 2b       	or	r24, r18
    1c94:	93 2b       	or	r25, r19
    1c96:	f7 01       	movw	r30, r14
    1c98:	95 83       	std	Z+5, r25	; 0x05
    1c9a:	84 83       	std	Z+4, r24	; 0x04
    1c9c:	8d 2d       	mov	r24, r13
    1c9e:	aa 96       	adiw	r28, 0x2a	; 42
    1ca0:	0f b6       	in	r0, 0x3f	; 63
    1ca2:	f8 94       	cli
    1ca4:	de bf       	out	0x3e, r29	; 62
    1ca6:	0f be       	out	0x3f, r0	; 63
    1ca8:	cd bf       	out	0x3d, r28	; 61
    1caa:	cf 91       	pop	r28
    1cac:	df 91       	pop	r29
    1cae:	1f 91       	pop	r17
    1cb0:	0f 91       	pop	r16
    1cb2:	ff 90       	pop	r15
    1cb4:	ef 90       	pop	r14
    1cb6:	df 90       	pop	r13
    1cb8:	08 95       	ret

00001cba <f_sync>:
    1cba:	6f 92       	push	r6
    1cbc:	7f 92       	push	r7
    1cbe:	8f 92       	push	r8
    1cc0:	9f 92       	push	r9
    1cc2:	bf 92       	push	r11
    1cc4:	cf 92       	push	r12
    1cc6:	df 92       	push	r13
    1cc8:	ef 92       	push	r14
    1cca:	ff 92       	push	r15
    1ccc:	0f 93       	push	r16
    1cce:	1f 93       	push	r17
    1cd0:	df 93       	push	r29
    1cd2:	cf 93       	push	r28
    1cd4:	00 d0       	rcall	.+0      	; 0x1cd6 <f_sync+0x1c>
    1cd6:	cd b7       	in	r28, 0x3d	; 61
    1cd8:	de b7       	in	r29, 0x3e	; 62
    1cda:	6c 01       	movw	r12, r24
    1cdc:	be 01       	movw	r22, r28
    1cde:	6f 5f       	subi	r22, 0xFF	; 255
    1ce0:	7f 4f       	sbci	r23, 0xFF	; 255
    1ce2:	0e 94 b2 01 	call	0x364	; 0x364 <validate>
    1ce6:	b8 2e       	mov	r11, r24
    1ce8:	88 23       	and	r24, r24
    1cea:	09 f0       	breq	.+2      	; 0x1cee <f_sync+0x34>
    1cec:	ca c0       	rjmp	.+404    	; 0x1e82 <f_sync+0x1c8>
    1cee:	d6 01       	movw	r26, r12
    1cf0:	1e 96       	adiw	r26, 0x0e	; 14
    1cf2:	8c 91       	ld	r24, X
    1cf4:	86 ff       	sbrs	r24, 6
    1cf6:	c5 c0       	rjmp	.+394    	; 0x1e82 <f_sync+0x1c8>
    1cf8:	0e 94 d7 15 	call	0x2bae	; 0x2bae <get_fattime>
    1cfc:	3b 01       	movw	r6, r22
    1cfe:	4c 01       	movw	r8, r24
    1d00:	f6 01       	movw	r30, r12
    1d02:	44 8d       	ldd	r20, Z+28	; 0x1c
    1d04:	55 8d       	ldd	r21, Z+29	; 0x1d
    1d06:	66 8d       	ldd	r22, Z+30	; 0x1e
    1d08:	77 8d       	ldd	r23, Z+31	; 0x1f
    1d0a:	89 81       	ldd	r24, Y+1	; 0x01
    1d0c:	9a 81       	ldd	r25, Y+2	; 0x02
    1d0e:	0e 94 33 02 	call	0x466	; 0x466 <move_window>
    1d12:	b8 2e       	mov	r11, r24
    1d14:	88 23       	and	r24, r24
    1d16:	09 f0       	breq	.+2      	; 0x1d1a <f_sync+0x60>
    1d18:	b4 c0       	rjmp	.+360    	; 0x1e82 <f_sync+0x1c8>
    1d1a:	d6 01       	movw	r26, r12
    1d1c:	90 96       	adiw	r26, 0x20	; 32
    1d1e:	0d 91       	ld	r16, X+
    1d20:	1c 91       	ld	r17, X
    1d22:	91 97       	sbiw	r26, 0x21	; 33
    1d24:	f8 01       	movw	r30, r16
    1d26:	83 85       	ldd	r24, Z+11	; 0x0b
    1d28:	80 62       	ori	r24, 0x20	; 32
    1d2a:	83 87       	std	Z+11, r24	; 0x0b
    1d2c:	ed 91       	ld	r30, X+
    1d2e:	fc 91       	ld	r31, X
    1d30:	11 97       	sbiw	r26, 0x01	; 1
    1d32:	16 96       	adiw	r26, 0x06	; 6
    1d34:	2d 91       	ld	r18, X+
    1d36:	3d 91       	ld	r19, X+
    1d38:	4d 91       	ld	r20, X+
    1d3a:	5c 91       	ld	r21, X
    1d3c:	19 97       	sbiw	r26, 0x09	; 9
    1d3e:	d8 01       	movw	r26, r16
    1d40:	5a 96       	adiw	r26, 0x1a	; 26
    1d42:	2c 93       	st	X, r18
    1d44:	5a 97       	sbiw	r26, 0x1a	; 26
    1d46:	5b 96       	adiw	r26, 0x1b	; 27
    1d48:	3c 93       	st	X, r19
    1d4a:	80 81       	ld	r24, Z
    1d4c:	83 30       	cpi	r24, 0x03	; 3
    1d4e:	31 f4       	brne	.+12     	; 0x1d5c <f_sync+0xa2>
    1d50:	ca 01       	movw	r24, r20
    1d52:	aa 27       	eor	r26, r26
    1d54:	bb 27       	eor	r27, r27
    1d56:	f8 01       	movw	r30, r16
    1d58:	84 8b       	std	Z+20, r24	; 0x14
    1d5a:	95 8b       	std	Z+21, r25	; 0x15
    1d5c:	d6 01       	movw	r26, r12
    1d5e:	1a 96       	adiw	r26, 0x0a	; 10
    1d60:	4d 91       	ld	r20, X+
    1d62:	5d 91       	ld	r21, X+
    1d64:	6d 91       	ld	r22, X+
    1d66:	7c 91       	ld	r23, X
    1d68:	1d 97       	sbiw	r26, 0x0d	; 13
    1d6a:	c8 01       	movw	r24, r16
    1d6c:	4c 96       	adiw	r24, 0x1c	; 28
    1d6e:	0e 94 40 01 	call	0x280	; 0x280 <st_dword>
    1d72:	c8 01       	movw	r24, r16
    1d74:	46 96       	adiw	r24, 0x16	; 22
    1d76:	b4 01       	movw	r22, r8
    1d78:	a3 01       	movw	r20, r6
    1d7a:	0e 94 40 01 	call	0x280	; 0x280 <st_dword>
    1d7e:	f8 01       	movw	r30, r16
    1d80:	12 8a       	std	Z+18, r1	; 0x12
    1d82:	13 8a       	std	Z+19, r1	; 0x13
    1d84:	e9 80       	ldd	r14, Y+1	; 0x01
    1d86:	fa 80       	ldd	r15, Y+2	; 0x02
    1d88:	81 e0       	ldi	r24, 0x01	; 1
    1d8a:	d7 01       	movw	r26, r14
    1d8c:	13 96       	adiw	r26, 0x03	; 3
    1d8e:	8c 93       	st	X, r24
    1d90:	c7 01       	movw	r24, r14
    1d92:	0e 94 dd 01 	call	0x3ba	; 0x3ba <sync_window>
    1d96:	b8 2e       	mov	r11, r24
    1d98:	88 23       	and	r24, r24
    1d9a:	09 f0       	breq	.+2      	; 0x1d9e <f_sync+0xe4>
    1d9c:	6b c0       	rjmp	.+214    	; 0x1e74 <f_sync+0x1ba>
    1d9e:	f7 01       	movw	r30, r14
    1da0:	80 81       	ld	r24, Z
    1da2:	83 30       	cpi	r24, 0x03	; 3
    1da4:	09 f0       	breq	.+2      	; 0x1da8 <f_sync+0xee>
    1da6:	5b c0       	rjmp	.+182    	; 0x1e5e <f_sync+0x1a4>
    1da8:	84 81       	ldd	r24, Z+4	; 0x04
    1daa:	81 30       	cpi	r24, 0x01	; 1
    1dac:	09 f0       	breq	.+2      	; 0x1db0 <f_sync+0xf6>
    1dae:	57 c0       	rjmp	.+174    	; 0x1e5e <f_sync+0x1a4>
    1db0:	87 01       	movw	r16, r14
    1db2:	0d 5c       	subi	r16, 0xCD	; 205
    1db4:	1f 4f       	sbci	r17, 0xFF	; 255
    1db6:	80 e0       	ldi	r24, 0x00	; 0
    1db8:	92 e0       	ldi	r25, 0x02	; 2
    1dba:	d8 01       	movw	r26, r16
    1dbc:	fc 01       	movw	r30, r24
    1dbe:	1d 92       	st	X+, r1
    1dc0:	31 97       	sbiw	r30, 0x01	; 1
    1dc2:	e9 f7       	brne	.-6      	; 0x1dbe <f_sync+0x104>
    1dc4:	21 e3       	ldi	r18, 0x31	; 49
    1dc6:	32 e0       	ldi	r19, 0x02	; 2
    1dc8:	e2 0e       	add	r14, r18
    1dca:	f3 1e       	adc	r15, r19
    1dcc:	85 e5       	ldi	r24, 0x55	; 85
    1dce:	d7 01       	movw	r26, r14
    1dd0:	8d 93       	st	X+, r24
    1dd2:	7d 01       	movw	r14, r26
    1dd4:	8a ea       	ldi	r24, 0xAA	; 170
    1dd6:	8c 93       	st	X, r24
    1dd8:	ee ec       	ldi	r30, 0xCE	; 206
    1dda:	fd ef       	ldi	r31, 0xFD	; 253
    1ddc:	ee 0e       	add	r14, r30
    1dde:	ff 1e       	adc	r15, r31
    1de0:	c8 01       	movw	r24, r16
    1de2:	42 e5       	ldi	r20, 0x52	; 82
    1de4:	52 e5       	ldi	r21, 0x52	; 82
    1de6:	61 e6       	ldi	r22, 0x61	; 97
    1de8:	71 e4       	ldi	r23, 0x41	; 65
    1dea:	0e 94 40 01 	call	0x280	; 0x280 <st_dword>
    1dee:	c7 01       	movw	r24, r14
    1df0:	89 5e       	subi	r24, 0xE9	; 233
    1df2:	9d 4f       	sbci	r25, 0xFD	; 253
    1df4:	42 e7       	ldi	r20, 0x72	; 114
    1df6:	52 e7       	ldi	r21, 0x72	; 114
    1df8:	61 e4       	ldi	r22, 0x41	; 65
    1dfa:	71 e6       	ldi	r23, 0x61	; 97
    1dfc:	0e 94 40 01 	call	0x280	; 0x280 <st_dword>
    1e00:	d7 01       	movw	r26, r14
    1e02:	1f 96       	adiw	r26, 0x0f	; 15
    1e04:	4d 91       	ld	r20, X+
    1e06:	5d 91       	ld	r21, X+
    1e08:	6d 91       	ld	r22, X+
    1e0a:	7c 91       	ld	r23, X
    1e0c:	52 97       	sbiw	r26, 0x12	; 18
    1e0e:	c7 01       	movw	r24, r14
    1e10:	85 5e       	subi	r24, 0xE5	; 229
    1e12:	9d 4f       	sbci	r25, 0xFD	; 253
    1e14:	0e 94 40 01 	call	0x280	; 0x280 <st_dword>
    1e18:	f7 01       	movw	r30, r14
    1e1a:	43 85       	ldd	r20, Z+11	; 0x0b
    1e1c:	54 85       	ldd	r21, Z+12	; 0x0c
    1e1e:	65 85       	ldd	r22, Z+13	; 0x0d
    1e20:	76 85       	ldd	r23, Z+14	; 0x0e
    1e22:	c7 01       	movw	r24, r14
    1e24:	81 5e       	subi	r24, 0xE1	; 225
    1e26:	9d 4f       	sbci	r25, 0xFD	; 253
    1e28:	0e 94 40 01 	call	0x280	; 0x280 <st_dword>
    1e2c:	d7 01       	movw	r26, r14
    1e2e:	5f 96       	adiw	r26, 0x1f	; 31
    1e30:	2d 91       	ld	r18, X+
    1e32:	3d 91       	ld	r19, X+
    1e34:	4d 91       	ld	r20, X+
    1e36:	5c 91       	ld	r21, X
    1e38:	92 97       	sbiw	r26, 0x22	; 34
    1e3a:	2f 5f       	subi	r18, 0xFF	; 255
    1e3c:	3f 4f       	sbci	r19, 0xFF	; 255
    1e3e:	4f 4f       	sbci	r20, 0xFF	; 255
    1e40:	5f 4f       	sbci	r21, 0xFF	; 255
    1e42:	f7 01       	movw	r30, r14
    1e44:	27 a7       	std	Z+47, r18	; 0x2f
    1e46:	30 ab       	std	Z+48, r19	; 0x30
    1e48:	41 ab       	std	Z+49, r20	; 0x31
    1e4a:	52 ab       	std	Z+50, r21	; 0x32
    1e4c:	81 81       	ldd	r24, Z+1	; 0x01
    1e4e:	b8 01       	movw	r22, r16
    1e50:	01 e0       	ldi	r16, 0x01	; 1
    1e52:	10 e0       	ldi	r17, 0x00	; 0
    1e54:	0e 94 e8 00 	call	0x1d0	; 0x1d0 <disk_write>
    1e58:	d7 01       	movw	r26, r14
    1e5a:	14 96       	adiw	r26, 0x04	; 4
    1e5c:	1c 92       	st	X, r1
    1e5e:	f7 01       	movw	r30, r14
    1e60:	81 81       	ldd	r24, Z+1	; 0x01
    1e62:	60 e0       	ldi	r22, 0x00	; 0
    1e64:	40 e0       	ldi	r20, 0x00	; 0
    1e66:	50 e0       	ldi	r21, 0x00	; 0
    1e68:	0e 94 df 00 	call	0x1be	; 0x1be <disk_ioctl>
    1e6c:	88 23       	and	r24, r24
    1e6e:	11 f0       	breq	.+4      	; 0x1e74 <f_sync+0x1ba>
    1e70:	bb 24       	eor	r11, r11
    1e72:	b3 94       	inc	r11
    1e74:	d6 01       	movw	r26, r12
    1e76:	1e 96       	adiw	r26, 0x0e	; 14
    1e78:	8c 91       	ld	r24, X
    1e7a:	1e 97       	sbiw	r26, 0x0e	; 14
    1e7c:	8f 7b       	andi	r24, 0xBF	; 191
    1e7e:	1e 96       	adiw	r26, 0x0e	; 14
    1e80:	8c 93       	st	X, r24
    1e82:	8b 2d       	mov	r24, r11
    1e84:	0f 90       	pop	r0
    1e86:	0f 90       	pop	r0
    1e88:	cf 91       	pop	r28
    1e8a:	df 91       	pop	r29
    1e8c:	1f 91       	pop	r17
    1e8e:	0f 91       	pop	r16
    1e90:	ff 90       	pop	r15
    1e92:	ef 90       	pop	r14
    1e94:	df 90       	pop	r13
    1e96:	cf 90       	pop	r12
    1e98:	bf 90       	pop	r11
    1e9a:	9f 90       	pop	r9
    1e9c:	8f 90       	pop	r8
    1e9e:	7f 90       	pop	r7
    1ea0:	6f 90       	pop	r6
    1ea2:	08 95       	ret

00001ea4 <f_close>:
    1ea4:	0f 93       	push	r16
    1ea6:	1f 93       	push	r17
    1ea8:	df 93       	push	r29
    1eaa:	cf 93       	push	r28
    1eac:	00 d0       	rcall	.+0      	; 0x1eae <f_close+0xa>
    1eae:	cd b7       	in	r28, 0x3d	; 61
    1eb0:	de b7       	in	r29, 0x3e	; 62
    1eb2:	8c 01       	movw	r16, r24
    1eb4:	0e 94 5d 0e 	call	0x1cba	; 0x1cba <f_sync>
    1eb8:	88 23       	and	r24, r24
    1eba:	59 f4       	brne	.+22     	; 0x1ed2 <f_close+0x2e>
    1ebc:	c8 01       	movw	r24, r16
    1ebe:	be 01       	movw	r22, r28
    1ec0:	6f 5f       	subi	r22, 0xFF	; 255
    1ec2:	7f 4f       	sbci	r23, 0xFF	; 255
    1ec4:	0e 94 b2 01 	call	0x364	; 0x364 <validate>
    1ec8:	88 23       	and	r24, r24
    1eca:	19 f4       	brne	.+6      	; 0x1ed2 <f_close+0x2e>
    1ecc:	f8 01       	movw	r30, r16
    1ece:	11 82       	std	Z+1, r1	; 0x01
    1ed0:	10 82       	st	Z, r1
    1ed2:	0f 90       	pop	r0
    1ed4:	0f 90       	pop	r0
    1ed6:	cf 91       	pop	r28
    1ed8:	df 91       	pop	r29
    1eda:	1f 91       	pop	r17
    1edc:	0f 91       	pop	r16
    1ede:	08 95       	ret

00001ee0 <f_write>:
    1ee0:	2f 92       	push	r2
    1ee2:	3f 92       	push	r3
    1ee4:	4f 92       	push	r4
    1ee6:	5f 92       	push	r5
    1ee8:	6f 92       	push	r6
    1eea:	7f 92       	push	r7
    1eec:	8f 92       	push	r8
    1eee:	9f 92       	push	r9
    1ef0:	af 92       	push	r10
    1ef2:	bf 92       	push	r11
    1ef4:	cf 92       	push	r12
    1ef6:	df 92       	push	r13
    1ef8:	ef 92       	push	r14
    1efa:	ff 92       	push	r15
    1efc:	0f 93       	push	r16
    1efe:	1f 93       	push	r17
    1f00:	df 93       	push	r29
    1f02:	cf 93       	push	r28
    1f04:	cd b7       	in	r28, 0x3d	; 61
    1f06:	de b7       	in	r29, 0x3e	; 62
    1f08:	29 97       	sbiw	r28, 0x09	; 9
    1f0a:	0f b6       	in	r0, 0x3f	; 63
    1f0c:	f8 94       	cli
    1f0e:	de bf       	out	0x3e, r29	; 62
    1f10:	0f be       	out	0x3f, r0	; 63
    1f12:	cd bf       	out	0x3d, r28	; 61
    1f14:	5c 01       	movw	r10, r24
    1f16:	16 2f       	mov	r17, r22
    1f18:	07 2f       	mov	r16, r23
    1f1a:	1a 01       	movw	r2, r20
    1f1c:	3f 83       	std	Y+7, r19	; 0x07
    1f1e:	2e 83       	std	Y+6, r18	; 0x06
    1f20:	d9 01       	movw	r26, r18
    1f22:	1d 92       	st	X+, r1
    1f24:	1c 92       	st	X, r1
    1f26:	88 87       	std	Y+8, r24	; 0x08
    1f28:	b9 86       	std	Y+9, r11	; 0x09
    1f2a:	be 01       	movw	r22, r28
    1f2c:	6f 5f       	subi	r22, 0xFF	; 255
    1f2e:	7f 4f       	sbci	r23, 0xFF	; 255
    1f30:	0e 94 b2 01 	call	0x364	; 0x364 <validate>
    1f34:	8d 83       	std	Y+5, r24	; 0x05
    1f36:	88 23       	and	r24, r24
    1f38:	09 f0       	breq	.+2      	; 0x1f3c <f_write+0x5c>
    1f3a:	cf c1       	rjmp	.+926    	; 0x22da <f_write+0x3fa>
    1f3c:	f5 01       	movw	r30, r10
    1f3e:	f7 85       	ldd	r31, Z+15	; 0x0f
    1f40:	fd 83       	std	Y+5, r31	; 0x05
    1f42:	ff 23       	and	r31, r31
    1f44:	09 f0       	breq	.+2      	; 0x1f48 <f_write+0x68>
    1f46:	c9 c1       	rjmp	.+914    	; 0x22da <f_write+0x3fa>
    1f48:	d5 01       	movw	r26, r10
    1f4a:	1e 96       	adiw	r26, 0x0e	; 14
    1f4c:	8c 91       	ld	r24, X
    1f4e:	81 fd       	sbrc	r24, 1
    1f50:	03 c0       	rjmp	.+6      	; 0x1f58 <f_write+0x78>
    1f52:	b7 e0       	ldi	r27, 0x07	; 7
    1f54:	bd 83       	std	Y+5, r27	; 0x05
    1f56:	c1 c1       	rjmp	.+898    	; 0x22da <f_write+0x3fa>
    1f58:	f5 01       	movw	r30, r10
    1f5a:	20 89       	ldd	r18, Z+16	; 0x10
    1f5c:	31 89       	ldd	r19, Z+17	; 0x11
    1f5e:	42 89       	ldd	r20, Z+18	; 0x12
    1f60:	53 89       	ldd	r21, Z+19	; 0x13
    1f62:	c1 01       	movw	r24, r2
    1f64:	a0 e0       	ldi	r26, 0x00	; 0
    1f66:	b0 e0       	ldi	r27, 0x00	; 0
    1f68:	82 0f       	add	r24, r18
    1f6a:	93 1f       	adc	r25, r19
    1f6c:	a4 1f       	adc	r26, r20
    1f6e:	b5 1f       	adc	r27, r21
    1f70:	82 17       	cp	r24, r18
    1f72:	93 07       	cpc	r25, r19
    1f74:	a4 07       	cpc	r26, r20
    1f76:	b5 07       	cpc	r27, r21
    1f78:	18 f4       	brcc	.+6      	; 0x1f80 <f_write+0xa0>
    1f7a:	19 01       	movw	r2, r18
    1f7c:	20 94       	com	r2
    1f7e:	30 94       	com	r3
    1f80:	81 2f       	mov	r24, r17
    1f82:	90 2f       	mov	r25, r16
    1f84:	9c 01       	movw	r18, r24
    1f86:	3c 83       	std	Y+4, r19	; 0x04
    1f88:	2b 83       	std	Y+3, r18	; 0x03
    1f8a:	9c c1       	rjmp	.+824    	; 0x22c4 <f_write+0x3e4>
    1f8c:	d5 01       	movw	r26, r10
    1f8e:	50 96       	adiw	r26, 0x10	; 16
    1f90:	2d 91       	ld	r18, X+
    1f92:	3d 91       	ld	r19, X+
    1f94:	4d 91       	ld	r20, X+
    1f96:	5c 91       	ld	r21, X
    1f98:	53 97       	sbiw	r26, 0x13	; 19
    1f9a:	da 01       	movw	r26, r20
    1f9c:	c9 01       	movw	r24, r18
    1f9e:	91 70       	andi	r25, 0x01	; 1
    1fa0:	a0 70       	andi	r26, 0x00	; 0
    1fa2:	b0 70       	andi	r27, 0x00	; 0
    1fa4:	00 97       	sbiw	r24, 0x00	; 0
    1fa6:	a1 05       	cpc	r26, r1
    1fa8:	b1 05       	cpc	r27, r1
    1faa:	09 f0       	breq	.+2      	; 0x1fae <f_write+0xce>
    1fac:	24 c1       	rjmp	.+584    	; 0x21f6 <f_write+0x316>
    1fae:	da 01       	movw	r26, r20
    1fb0:	c9 01       	movw	r24, r18
    1fb2:	19 e0       	ldi	r17, 0x09	; 9
    1fb4:	b6 95       	lsr	r27
    1fb6:	a7 95       	ror	r26
    1fb8:	97 95       	ror	r25
    1fba:	87 95       	ror	r24
    1fbc:	1a 95       	dec	r17
    1fbe:	d1 f7       	brne	.-12     	; 0x1fb4 <f_write+0xd4>
    1fc0:	e9 81       	ldd	r30, Y+1	; 0x01
    1fc2:	fa 81       	ldd	r31, Y+2	; 0x02
    1fc4:	61 84       	ldd	r6, Z+9	; 0x09
    1fc6:	72 84       	ldd	r7, Z+10	; 0x0a
    1fc8:	08 94       	sec
    1fca:	61 08       	sbc	r6, r1
    1fcc:	71 08       	sbc	r7, r1
    1fce:	68 22       	and	r6, r24
    1fd0:	79 22       	and	r7, r25
    1fd2:	61 14       	cp	r6, r1
    1fd4:	71 04       	cpc	r7, r1
    1fd6:	09 f0       	breq	.+2      	; 0x1fda <f_write+0xfa>
    1fd8:	52 c0       	rjmp	.+164    	; 0x207e <f_write+0x19e>
    1fda:	21 15       	cp	r18, r1
    1fdc:	31 05       	cpc	r19, r1
    1fde:	41 05       	cpc	r20, r1
    1fe0:	51 05       	cpc	r21, r1
    1fe2:	89 f4       	brne	.+34     	; 0x2006 <f_write+0x126>
    1fe4:	f5 01       	movw	r30, r10
    1fe6:	26 81       	ldd	r18, Z+6	; 0x06
    1fe8:	37 81       	ldd	r19, Z+7	; 0x07
    1fea:	40 85       	ldd	r20, Z+8	; 0x08
    1fec:	51 85       	ldd	r21, Z+9	; 0x09
    1fee:	21 15       	cp	r18, r1
    1ff0:	31 05       	cpc	r19, r1
    1ff2:	41 05       	cpc	r20, r1
    1ff4:	51 05       	cpc	r21, r1
    1ff6:	d1 f4       	brne	.+52     	; 0x202c <f_write+0x14c>
    1ff8:	88 85       	ldd	r24, Y+8	; 0x08
    1ffa:	99 85       	ldd	r25, Y+9	; 0x09
    1ffc:	40 e0       	ldi	r20, 0x00	; 0
    1ffe:	50 e0       	ldi	r21, 0x00	; 0
    2000:	60 e0       	ldi	r22, 0x00	; 0
    2002:	70 e0       	ldi	r23, 0x00	; 0
    2004:	09 c0       	rjmp	.+18     	; 0x2018 <f_write+0x138>
    2006:	d5 01       	movw	r26, r10
    2008:	54 96       	adiw	r26, 0x14	; 20
    200a:	4d 91       	ld	r20, X+
    200c:	5d 91       	ld	r21, X+
    200e:	6d 91       	ld	r22, X+
    2010:	7c 91       	ld	r23, X
    2012:	57 97       	sbiw	r26, 0x17	; 23
    2014:	88 85       	ldd	r24, Y+8	; 0x08
    2016:	99 85       	ldd	r25, Y+9	; 0x09
    2018:	0e 94 69 09 	call	0x12d2	; 0x12d2 <create_chain>
    201c:	9b 01       	movw	r18, r22
    201e:	ac 01       	movw	r20, r24
    2020:	61 15       	cp	r22, r1
    2022:	71 05       	cpc	r23, r1
    2024:	81 05       	cpc	r24, r1
    2026:	91 05       	cpc	r25, r1
    2028:	09 f4       	brne	.+2      	; 0x202c <f_write+0x14c>
    202a:	50 c1       	rjmp	.+672    	; 0x22cc <f_write+0x3ec>
    202c:	21 30       	cpi	r18, 0x01	; 1
    202e:	31 05       	cpc	r19, r1
    2030:	41 05       	cpc	r20, r1
    2032:	51 05       	cpc	r21, r1
    2034:	11 f4       	brne	.+4      	; 0x203a <f_write+0x15a>
    2036:	82 e0       	ldi	r24, 0x02	; 2
    2038:	f2 c0       	rjmp	.+484    	; 0x221e <f_write+0x33e>
    203a:	2f 3f       	cpi	r18, 0xFF	; 255
    203c:	ff ef       	ldi	r31, 0xFF	; 255
    203e:	3f 07       	cpc	r19, r31
    2040:	ff ef       	ldi	r31, 0xFF	; 255
    2042:	4f 07       	cpc	r20, r31
    2044:	ff ef       	ldi	r31, 0xFF	; 255
    2046:	5f 07       	cpc	r21, r31
    2048:	31 f4       	brne	.+12     	; 0x2056 <f_write+0x176>
    204a:	81 e0       	ldi	r24, 0x01	; 1
    204c:	d5 01       	movw	r26, r10
    204e:	1f 96       	adiw	r26, 0x0f	; 15
    2050:	8c 93       	st	X, r24
    2052:	8d 83       	std	Y+5, r24	; 0x05
    2054:	42 c1       	rjmp	.+644    	; 0x22da <f_write+0x3fa>
    2056:	f5 01       	movw	r30, r10
    2058:	24 8b       	std	Z+20, r18	; 0x14
    205a:	35 8b       	std	Z+21, r19	; 0x15
    205c:	46 8b       	std	Z+22, r20	; 0x16
    205e:	57 8b       	std	Z+23, r21	; 0x17
    2060:	86 81       	ldd	r24, Z+6	; 0x06
    2062:	97 81       	ldd	r25, Z+7	; 0x07
    2064:	a0 85       	ldd	r26, Z+8	; 0x08
    2066:	b1 85       	ldd	r27, Z+9	; 0x09
    2068:	00 97       	sbiw	r24, 0x00	; 0
    206a:	a1 05       	cpc	r26, r1
    206c:	b1 05       	cpc	r27, r1
    206e:	39 f4       	brne	.+14     	; 0x207e <f_write+0x19e>
    2070:	d5 01       	movw	r26, r10
    2072:	16 96       	adiw	r26, 0x06	; 6
    2074:	2d 93       	st	X+, r18
    2076:	3d 93       	st	X+, r19
    2078:	4d 93       	st	X+, r20
    207a:	5c 93       	st	X, r21
    207c:	19 97       	sbiw	r26, 0x09	; 9
    207e:	e9 81       	ldd	r30, Y+1	; 0x01
    2080:	fa 81       	ldd	r31, Y+2	; 0x02
    2082:	27 a5       	ldd	r18, Z+47	; 0x2f
    2084:	30 a9       	ldd	r19, Z+48	; 0x30
    2086:	41 a9       	ldd	r20, Z+49	; 0x31
    2088:	52 a9       	ldd	r21, Z+50	; 0x32
    208a:	d5 01       	movw	r26, r10
    208c:	58 96       	adiw	r26, 0x18	; 24
    208e:	ed 90       	ld	r14, X+
    2090:	fd 90       	ld	r15, X+
    2092:	0d 91       	ld	r16, X+
    2094:	1c 91       	ld	r17, X
    2096:	5b 97       	sbiw	r26, 0x1b	; 27
    2098:	2e 15       	cp	r18, r14
    209a:	3f 05       	cpc	r19, r15
    209c:	40 07       	cpc	r20, r16
    209e:	51 07       	cpc	r21, r17
    20a0:	31 f4       	brne	.+12     	; 0x20ae <f_write+0x1ce>
    20a2:	cf 01       	movw	r24, r30
    20a4:	0e 94 dd 01 	call	0x3ba	; 0x3ba <sync_window>
    20a8:	88 23       	and	r24, r24
    20aa:	09 f0       	breq	.+2      	; 0x20ae <f_write+0x1ce>
    20ac:	b7 c0       	rjmp	.+366    	; 0x221c <f_write+0x33c>
    20ae:	49 80       	ldd	r4, Y+1	; 0x01
    20b0:	5a 80       	ldd	r5, Y+2	; 0x02
    20b2:	d5 01       	movw	r26, r10
    20b4:	54 96       	adiw	r26, 0x14	; 20
    20b6:	2d 91       	ld	r18, X+
    20b8:	3d 91       	ld	r19, X+
    20ba:	4d 91       	ld	r20, X+
    20bc:	5c 91       	ld	r21, X
    20be:	57 97       	sbiw	r26, 0x17	; 23
    20c0:	22 50       	subi	r18, 0x02	; 2
    20c2:	30 40       	sbci	r19, 0x00	; 0
    20c4:	40 40       	sbci	r20, 0x00	; 0
    20c6:	50 40       	sbci	r21, 0x00	; 0
    20c8:	f2 01       	movw	r30, r4
    20ca:	87 89       	ldd	r24, Z+23	; 0x17
    20cc:	90 8d       	ldd	r25, Z+24	; 0x18
    20ce:	a1 8d       	ldd	r26, Z+25	; 0x19
    20d0:	b2 8d       	ldd	r27, Z+26	; 0x1a
    20d2:	02 97       	sbiw	r24, 0x02	; 2
    20d4:	a1 09       	sbc	r26, r1
    20d6:	b1 09       	sbc	r27, r1
    20d8:	28 17       	cp	r18, r24
    20da:	39 07       	cpc	r19, r25
    20dc:	4a 07       	cpc	r20, r26
    20de:	5b 07       	cpc	r21, r27
    20e0:	b8 f4       	brcc	.+46     	; 0x2110 <f_write+0x230>
    20e2:	01 85       	ldd	r16, Z+9	; 0x09
    20e4:	12 85       	ldd	r17, Z+10	; 0x0a
    20e6:	b8 01       	movw	r22, r16
    20e8:	80 e0       	ldi	r24, 0x00	; 0
    20ea:	90 e0       	ldi	r25, 0x00	; 0
    20ec:	0e 94 3b 1d 	call	0x3a76	; 0x3a76 <__mulsi3>
    20f0:	9b 01       	movw	r18, r22
    20f2:	ac 01       	movw	r20, r24
    20f4:	f2 01       	movw	r30, r4
    20f6:	83 a5       	ldd	r24, Z+43	; 0x2b
    20f8:	94 a5       	ldd	r25, Z+44	; 0x2c
    20fa:	a5 a5       	ldd	r26, Z+45	; 0x2d
    20fc:	b6 a5       	ldd	r27, Z+46	; 0x2e
    20fe:	28 0f       	add	r18, r24
    2100:	39 1f       	adc	r19, r25
    2102:	4a 1f       	adc	r20, r26
    2104:	5b 1f       	adc	r21, r27
    2106:	21 15       	cp	r18, r1
    2108:	31 05       	cpc	r19, r1
    210a:	41 05       	cpc	r20, r1
    210c:	51 05       	cpc	r21, r1
    210e:	11 f4       	brne	.+4      	; 0x2114 <f_write+0x234>
    2110:	82 e0       	ldi	r24, 0x02	; 2
    2112:	9c cf       	rjmp	.-200    	; 0x204c <f_write+0x16c>
    2114:	63 01       	movw	r12, r6
    2116:	ee 24       	eor	r14, r14
    2118:	ff 24       	eor	r15, r15
    211a:	c2 0e       	add	r12, r18
    211c:	d3 1e       	adc	r13, r19
    211e:	e4 1e       	adc	r14, r20
    2120:	f5 1e       	adc	r15, r21
    2122:	41 01       	movw	r8, r2
    2124:	89 2c       	mov	r8, r9
    2126:	99 24       	eor	r9, r9
    2128:	86 94       	lsr	r8
    212a:	81 14       	cp	r8, r1
    212c:	91 04       	cpc	r9, r1
    212e:	09 f4       	brne	.+2      	; 0x2132 <f_write+0x252>
    2130:	43 c0       	rjmp	.+134    	; 0x21b8 <f_write+0x2d8>
    2132:	c4 01       	movw	r24, r8
    2134:	86 0d       	add	r24, r6
    2136:	97 1d       	adc	r25, r7
    2138:	08 17       	cp	r16, r24
    213a:	19 07       	cpc	r17, r25
    213c:	18 f4       	brcc	.+6      	; 0x2144 <f_write+0x264>
    213e:	48 01       	movw	r8, r16
    2140:	86 18       	sub	r8, r6
    2142:	97 08       	sbc	r9, r7
    2144:	f2 01       	movw	r30, r4
    2146:	81 81       	ldd	r24, Z+1	; 0x01
    2148:	6b 81       	ldd	r22, Y+3	; 0x03
    214a:	7c 81       	ldd	r23, Y+4	; 0x04
    214c:	a7 01       	movw	r20, r14
    214e:	96 01       	movw	r18, r12
    2150:	84 01       	movw	r16, r8
    2152:	0e 94 e8 00 	call	0x1d0	; 0x1d0 <disk_write>
    2156:	88 23       	and	r24, r24
    2158:	09 f0       	breq	.+2      	; 0x215c <f_write+0x27c>
    215a:	77 cf       	rjmp	.-274    	; 0x204a <f_write+0x16a>
    215c:	e9 81       	ldd	r30, Y+1	; 0x01
    215e:	fa 81       	ldd	r31, Y+2	; 0x02
    2160:	27 a5       	ldd	r18, Z+47	; 0x2f
    2162:	30 a9       	ldd	r19, Z+48	; 0x30
    2164:	41 a9       	ldd	r20, Z+49	; 0x31
    2166:	52 a9       	ldd	r21, Z+50	; 0x32
    2168:	2c 19       	sub	r18, r12
    216a:	3d 09       	sbc	r19, r13
    216c:	4e 09       	sbc	r20, r14
    216e:	5f 09       	sbc	r21, r15
    2170:	c4 01       	movw	r24, r8
    2172:	a0 e0       	ldi	r26, 0x00	; 0
    2174:	b0 e0       	ldi	r27, 0x00	; 0
    2176:	28 17       	cp	r18, r24
    2178:	39 07       	cpc	r19, r25
    217a:	4a 07       	cpc	r20, r26
    217c:	5b 07       	cpc	r21, r27
    217e:	b8 f4       	brcc	.+46     	; 0x21ae <f_write+0x2ce>
    2180:	a9 e0       	ldi	r26, 0x09	; 9
    2182:	22 0f       	add	r18, r18
    2184:	33 1f       	adc	r19, r19
    2186:	44 1f       	adc	r20, r20
    2188:	55 1f       	adc	r21, r21
    218a:	aa 95       	dec	r26
    218c:	d1 f7       	brne	.-12     	; 0x2182 <f_write+0x2a2>
    218e:	8b 81       	ldd	r24, Y+3	; 0x03
    2190:	9c 81       	ldd	r25, Y+4	; 0x04
    2192:	82 0f       	add	r24, r18
    2194:	93 1f       	adc	r25, r19
    2196:	df 01       	movw	r26, r30
    2198:	d3 96       	adiw	r26, 0x33	; 51
    219a:	fc 01       	movw	r30, r24
    219c:	80 e0       	ldi	r24, 0x00	; 0
    219e:	92 e0       	ldi	r25, 0x02	; 2
    21a0:	01 90       	ld	r0, Z+
    21a2:	0d 92       	st	X+, r0
    21a4:	01 97       	sbiw	r24, 0x01	; 1
    21a6:	e1 f7       	brne	.-8      	; 0x21a0 <f_write+0x2c0>
    21a8:	e9 81       	ldd	r30, Y+1	; 0x01
    21aa:	fa 81       	ldd	r31, Y+2	; 0x02
    21ac:	13 82       	std	Z+3, r1	; 0x03
    21ae:	84 01       	movw	r16, r8
    21b0:	10 2f       	mov	r17, r16
    21b2:	00 27       	eor	r16, r16
    21b4:	11 0f       	add	r17, r17
    21b6:	56 c0       	rjmp	.+172    	; 0x2264 <f_write+0x384>
    21b8:	f5 01       	movw	r30, r10
    21ba:	20 89       	ldd	r18, Z+16	; 0x10
    21bc:	31 89       	ldd	r19, Z+17	; 0x11
    21be:	42 89       	ldd	r20, Z+18	; 0x12
    21c0:	53 89       	ldd	r21, Z+19	; 0x13
    21c2:	82 85       	ldd	r24, Z+10	; 0x0a
    21c4:	93 85       	ldd	r25, Z+11	; 0x0b
    21c6:	a4 85       	ldd	r26, Z+12	; 0x0c
    21c8:	b5 85       	ldd	r27, Z+13	; 0x0d
    21ca:	28 17       	cp	r18, r24
    21cc:	39 07       	cpc	r19, r25
    21ce:	4a 07       	cpc	r20, r26
    21d0:	5b 07       	cpc	r21, r27
    21d2:	60 f0       	brcs	.+24     	; 0x21ec <f_write+0x30c>
    21d4:	c2 01       	movw	r24, r4
    21d6:	0e 94 dd 01 	call	0x3ba	; 0x3ba <sync_window>
    21da:	88 23       	and	r24, r24
    21dc:	09 f0       	breq	.+2      	; 0x21e0 <f_write+0x300>
    21de:	35 cf       	rjmp	.-406    	; 0x204a <f_write+0x16a>
    21e0:	e9 81       	ldd	r30, Y+1	; 0x01
    21e2:	fa 81       	ldd	r31, Y+2	; 0x02
    21e4:	c7 a6       	std	Z+47, r12	; 0x2f
    21e6:	d0 aa       	std	Z+48, r13	; 0x30
    21e8:	e1 aa       	std	Z+49, r14	; 0x31
    21ea:	f2 aa       	std	Z+50, r15	; 0x32
    21ec:	f5 01       	movw	r30, r10
    21ee:	c0 8e       	std	Z+24, r12	; 0x18
    21f0:	d1 8e       	std	Z+25, r13	; 0x19
    21f2:	e2 8e       	std	Z+26, r14	; 0x1a
    21f4:	f3 8e       	std	Z+27, r15	; 0x1b
    21f6:	d5 01       	movw	r26, r10
    21f8:	50 96       	adiw	r26, 0x10	; 16
    21fa:	ed 90       	ld	r14, X+
    21fc:	fd 90       	ld	r15, X+
    21fe:	0d 91       	ld	r16, X+
    2200:	1c 91       	ld	r17, X
    2202:	53 97       	sbiw	r26, 0x13	; 19
    2204:	58 96       	adiw	r26, 0x18	; 24
    2206:	4d 91       	ld	r20, X+
    2208:	5d 91       	ld	r21, X+
    220a:	6d 91       	ld	r22, X+
    220c:	7c 91       	ld	r23, X
    220e:	5b 97       	sbiw	r26, 0x1b	; 27
    2210:	89 81       	ldd	r24, Y+1	; 0x01
    2212:	9a 81       	ldd	r25, Y+2	; 0x02
    2214:	0e 94 33 02 	call	0x466	; 0x466 <move_window>
    2218:	88 23       	and	r24, r24
    221a:	21 f0       	breq	.+8      	; 0x2224 <f_write+0x344>
    221c:	81 e0       	ldi	r24, 0x01	; 1
    221e:	f5 01       	movw	r30, r10
    2220:	87 87       	std	Z+15, r24	; 0x0f
    2222:	17 cf       	rjmp	.-466    	; 0x2052 <f_write+0x172>
    2224:	c7 01       	movw	r24, r14
    2226:	91 70       	andi	r25, 0x01	; 1
    2228:	20 e0       	ldi	r18, 0x00	; 0
    222a:	32 e0       	ldi	r19, 0x02	; 2
    222c:	28 1b       	sub	r18, r24
    222e:	39 0b       	sbc	r19, r25
    2230:	81 01       	movw	r16, r2
    2232:	22 15       	cp	r18, r2
    2234:	33 05       	cpc	r19, r3
    2236:	08 f4       	brcc	.+2      	; 0x223a <f_write+0x35a>
    2238:	89 01       	movw	r16, r18
    223a:	d5 01       	movw	r26, r10
    223c:	50 96       	adiw	r26, 0x10	; 16
    223e:	8d 91       	ld	r24, X+
    2240:	9c 91       	ld	r25, X
    2242:	51 97       	sbiw	r26, 0x11	; 17
    2244:	91 70       	andi	r25, 0x01	; 1
    2246:	c3 96       	adiw	r24, 0x33	; 51
    2248:	29 81       	ldd	r18, Y+1	; 0x01
    224a:	3a 81       	ldd	r19, Y+2	; 0x02
    224c:	28 0f       	add	r18, r24
    224e:	39 1f       	adc	r19, r25
    2250:	c9 01       	movw	r24, r18
    2252:	6b 81       	ldd	r22, Y+3	; 0x03
    2254:	7c 81       	ldd	r23, Y+4	; 0x04
    2256:	a8 01       	movw	r20, r16
    2258:	0e 94 9d 1d 	call	0x3b3a	; 0x3b3a <memcpy>
    225c:	e9 81       	ldd	r30, Y+1	; 0x01
    225e:	fa 81       	ldd	r31, Y+2	; 0x02
    2260:	b1 e0       	ldi	r27, 0x01	; 1
    2262:	b3 83       	std	Z+3, r27	; 0x03
    2264:	20 1a       	sub	r2, r16
    2266:	31 0a       	sbc	r3, r17
    2268:	ee 81       	ldd	r30, Y+6	; 0x06
    226a:	ff 81       	ldd	r31, Y+7	; 0x07
    226c:	80 81       	ld	r24, Z
    226e:	91 81       	ldd	r25, Z+1	; 0x01
    2270:	80 0f       	add	r24, r16
    2272:	91 1f       	adc	r25, r17
    2274:	91 83       	std	Z+1, r25	; 0x01
    2276:	80 83       	st	Z, r24
    2278:	2b 81       	ldd	r18, Y+3	; 0x03
    227a:	3c 81       	ldd	r19, Y+4	; 0x04
    227c:	20 0f       	add	r18, r16
    227e:	31 1f       	adc	r19, r17
    2280:	3c 83       	std	Y+4, r19	; 0x04
    2282:	2b 83       	std	Y+3, r18	; 0x03
    2284:	c8 01       	movw	r24, r16
    2286:	a0 e0       	ldi	r26, 0x00	; 0
    2288:	b0 e0       	ldi	r27, 0x00	; 0
    228a:	f5 01       	movw	r30, r10
    228c:	20 89       	ldd	r18, Z+16	; 0x10
    228e:	31 89       	ldd	r19, Z+17	; 0x11
    2290:	42 89       	ldd	r20, Z+18	; 0x12
    2292:	53 89       	ldd	r21, Z+19	; 0x13
    2294:	82 0f       	add	r24, r18
    2296:	93 1f       	adc	r25, r19
    2298:	a4 1f       	adc	r26, r20
    229a:	b5 1f       	adc	r27, r21
    229c:	80 8b       	std	Z+16, r24	; 0x10
    229e:	91 8b       	std	Z+17, r25	; 0x11
    22a0:	a2 8b       	std	Z+18, r26	; 0x12
    22a2:	b3 8b       	std	Z+19, r27	; 0x13
    22a4:	22 85       	ldd	r18, Z+10	; 0x0a
    22a6:	33 85       	ldd	r19, Z+11	; 0x0b
    22a8:	44 85       	ldd	r20, Z+12	; 0x0c
    22aa:	55 85       	ldd	r21, Z+13	; 0x0d
    22ac:	82 17       	cp	r24, r18
    22ae:	93 07       	cpc	r25, r19
    22b0:	a4 07       	cpc	r26, r20
    22b2:	b5 07       	cpc	r27, r21
    22b4:	10 f4       	brcc	.+4      	; 0x22ba <f_write+0x3da>
    22b6:	da 01       	movw	r26, r20
    22b8:	c9 01       	movw	r24, r18
    22ba:	f5 01       	movw	r30, r10
    22bc:	82 87       	std	Z+10, r24	; 0x0a
    22be:	93 87       	std	Z+11, r25	; 0x0b
    22c0:	a4 87       	std	Z+12, r26	; 0x0c
    22c2:	b5 87       	std	Z+13, r27	; 0x0d
    22c4:	21 14       	cp	r2, r1
    22c6:	31 04       	cpc	r3, r1
    22c8:	09 f0       	breq	.+2      	; 0x22cc <f_write+0x3ec>
    22ca:	60 ce       	rjmp	.-832    	; 0x1f8c <f_write+0xac>
    22cc:	d5 01       	movw	r26, r10
    22ce:	1e 96       	adiw	r26, 0x0e	; 14
    22d0:	8c 91       	ld	r24, X
    22d2:	1e 97       	sbiw	r26, 0x0e	; 14
    22d4:	80 64       	ori	r24, 0x40	; 64
    22d6:	1e 96       	adiw	r26, 0x0e	; 14
    22d8:	8c 93       	st	X, r24
    22da:	8d 81       	ldd	r24, Y+5	; 0x05
    22dc:	29 96       	adiw	r28, 0x09	; 9
    22de:	0f b6       	in	r0, 0x3f	; 63
    22e0:	f8 94       	cli
    22e2:	de bf       	out	0x3e, r29	; 62
    22e4:	0f be       	out	0x3f, r0	; 63
    22e6:	cd bf       	out	0x3d, r28	; 61
    22e8:	cf 91       	pop	r28
    22ea:	df 91       	pop	r29
    22ec:	1f 91       	pop	r17
    22ee:	0f 91       	pop	r16
    22f0:	ff 90       	pop	r15
    22f2:	ef 90       	pop	r14
    22f4:	df 90       	pop	r13
    22f6:	cf 90       	pop	r12
    22f8:	bf 90       	pop	r11
    22fa:	af 90       	pop	r10
    22fc:	9f 90       	pop	r9
    22fe:	8f 90       	pop	r8
    2300:	7f 90       	pop	r7
    2302:	6f 90       	pop	r6
    2304:	5f 90       	pop	r5
    2306:	4f 90       	pop	r4
    2308:	3f 90       	pop	r3
    230a:	2f 90       	pop	r2
    230c:	08 95       	ret

0000230e <f_read>:
    230e:	2f 92       	push	r2
    2310:	3f 92       	push	r3
    2312:	4f 92       	push	r4
    2314:	5f 92       	push	r5
    2316:	6f 92       	push	r6
    2318:	7f 92       	push	r7
    231a:	8f 92       	push	r8
    231c:	9f 92       	push	r9
    231e:	af 92       	push	r10
    2320:	bf 92       	push	r11
    2322:	cf 92       	push	r12
    2324:	df 92       	push	r13
    2326:	ef 92       	push	r14
    2328:	ff 92       	push	r15
    232a:	0f 93       	push	r16
    232c:	1f 93       	push	r17
    232e:	df 93       	push	r29
    2330:	cf 93       	push	r28
    2332:	cd b7       	in	r28, 0x3d	; 61
    2334:	de b7       	in	r29, 0x3e	; 62
    2336:	29 97       	sbiw	r28, 0x09	; 9
    2338:	0f b6       	in	r0, 0x3f	; 63
    233a:	f8 94       	cli
    233c:	de bf       	out	0x3e, r29	; 62
    233e:	0f be       	out	0x3f, r0	; 63
    2340:	cd bf       	out	0x3d, r28	; 61
    2342:	5c 01       	movw	r10, r24
    2344:	16 2f       	mov	r17, r22
    2346:	07 2f       	mov	r16, r23
    2348:	1a 01       	movw	r2, r20
    234a:	3f 83       	std	Y+7, r19	; 0x07
    234c:	2e 83       	std	Y+6, r18	; 0x06
    234e:	f9 01       	movw	r30, r18
    2350:	11 82       	std	Z+1, r1	; 0x01
    2352:	10 82       	st	Z, r1
    2354:	88 87       	std	Y+8, r24	; 0x08
    2356:	b9 86       	std	Y+9, r11	; 0x09
    2358:	be 01       	movw	r22, r28
    235a:	6f 5f       	subi	r22, 0xFF	; 255
    235c:	7f 4f       	sbci	r23, 0xFF	; 255
    235e:	0e 94 b2 01 	call	0x364	; 0x364 <validate>
    2362:	8d 83       	std	Y+5, r24	; 0x05
    2364:	88 23       	and	r24, r24
    2366:	09 f0       	breq	.+2      	; 0x236a <f_read+0x5c>
    2368:	4d c1       	rjmp	.+666    	; 0x2604 <f_read+0x2f6>
    236a:	f5 01       	movw	r30, r10
    236c:	f7 85       	ldd	r31, Z+15	; 0x0f
    236e:	fd 83       	std	Y+5, r31	; 0x05
    2370:	ff 23       	and	r31, r31
    2372:	09 f0       	breq	.+2      	; 0x2376 <f_read+0x68>
    2374:	47 c1       	rjmp	.+654    	; 0x2604 <f_read+0x2f6>
    2376:	f5 01       	movw	r30, r10
    2378:	86 85       	ldd	r24, Z+14	; 0x0e
    237a:	80 fd       	sbrc	r24, 0
    237c:	03 c0       	rjmp	.+6      	; 0x2384 <f_read+0x76>
    237e:	f7 e0       	ldi	r31, 0x07	; 7
    2380:	fd 83       	std	Y+5, r31	; 0x05
    2382:	40 c1       	rjmp	.+640    	; 0x2604 <f_read+0x2f6>
    2384:	f5 01       	movw	r30, r10
    2386:	22 85       	ldd	r18, Z+10	; 0x0a
    2388:	33 85       	ldd	r19, Z+11	; 0x0b
    238a:	44 85       	ldd	r20, Z+12	; 0x0c
    238c:	55 85       	ldd	r21, Z+13	; 0x0d
    238e:	80 89       	ldd	r24, Z+16	; 0x10
    2390:	91 89       	ldd	r25, Z+17	; 0x11
    2392:	a2 89       	ldd	r26, Z+18	; 0x12
    2394:	b3 89       	ldd	r27, Z+19	; 0x13
    2396:	28 1b       	sub	r18, r24
    2398:	39 0b       	sbc	r19, r25
    239a:	4a 0b       	sbc	r20, r26
    239c:	5b 0b       	sbc	r21, r27
    239e:	c1 01       	movw	r24, r2
    23a0:	a0 e0       	ldi	r26, 0x00	; 0
    23a2:	b0 e0       	ldi	r27, 0x00	; 0
    23a4:	28 17       	cp	r18, r24
    23a6:	39 07       	cpc	r19, r25
    23a8:	4a 07       	cpc	r20, r26
    23aa:	5b 07       	cpc	r21, r27
    23ac:	08 f4       	brcc	.+2      	; 0x23b0 <f_read+0xa2>
    23ae:	19 01       	movw	r2, r18
    23b0:	81 2f       	mov	r24, r17
    23b2:	90 2f       	mov	r25, r16
    23b4:	9c 01       	movw	r18, r24
    23b6:	3c 83       	std	Y+4, r19	; 0x04
    23b8:	2b 83       	std	Y+3, r18	; 0x03
    23ba:	20 c1       	rjmp	.+576    	; 0x25fc <f_read+0x2ee>
    23bc:	f5 01       	movw	r30, r10
    23be:	20 89       	ldd	r18, Z+16	; 0x10
    23c0:	31 89       	ldd	r19, Z+17	; 0x11
    23c2:	42 89       	ldd	r20, Z+18	; 0x12
    23c4:	53 89       	ldd	r21, Z+19	; 0x13
    23c6:	da 01       	movw	r26, r20
    23c8:	c9 01       	movw	r24, r18
    23ca:	91 70       	andi	r25, 0x01	; 1
    23cc:	a0 70       	andi	r26, 0x00	; 0
    23ce:	b0 70       	andi	r27, 0x00	; 0
    23d0:	00 97       	sbiw	r24, 0x00	; 0
    23d2:	a1 05       	cpc	r26, r1
    23d4:	b1 05       	cpc	r27, r1
    23d6:	09 f0       	breq	.+2      	; 0x23da <f_read+0xcc>
    23d8:	c7 c0       	rjmp	.+398    	; 0x2568 <f_read+0x25a>
    23da:	da 01       	movw	r26, r20
    23dc:	c9 01       	movw	r24, r18
    23de:	69 e0       	ldi	r22, 0x09	; 9
    23e0:	b6 95       	lsr	r27
    23e2:	a7 95       	ror	r26
    23e4:	97 95       	ror	r25
    23e6:	87 95       	ror	r24
    23e8:	6a 95       	dec	r22
    23ea:	d1 f7       	brne	.-12     	; 0x23e0 <f_read+0xd2>
    23ec:	e9 81       	ldd	r30, Y+1	; 0x01
    23ee:	fa 81       	ldd	r31, Y+2	; 0x02
    23f0:	01 85       	ldd	r16, Z+9	; 0x09
    23f2:	12 85       	ldd	r17, Z+10	; 0x0a
    23f4:	01 50       	subi	r16, 0x01	; 1
    23f6:	10 40       	sbci	r17, 0x00	; 0
    23f8:	08 23       	and	r16, r24
    23fa:	19 23       	and	r17, r25
    23fc:	01 15       	cp	r16, r1
    23fe:	11 05       	cpc	r17, r1
    2400:	61 f5       	brne	.+88     	; 0x245a <f_read+0x14c>
    2402:	21 15       	cp	r18, r1
    2404:	31 05       	cpc	r19, r1
    2406:	41 05       	cpc	r20, r1
    2408:	51 05       	cpc	r21, r1
    240a:	31 f4       	brne	.+12     	; 0x2418 <f_read+0x10a>
    240c:	f5 01       	movw	r30, r10
    240e:	66 81       	ldd	r22, Z+6	; 0x06
    2410:	77 81       	ldd	r23, Z+7	; 0x07
    2412:	80 85       	ldd	r24, Z+8	; 0x08
    2414:	91 85       	ldd	r25, Z+9	; 0x09
    2416:	09 c0       	rjmp	.+18     	; 0x242a <f_read+0x11c>
    2418:	f5 01       	movw	r30, r10
    241a:	44 89       	ldd	r20, Z+20	; 0x14
    241c:	55 89       	ldd	r21, Z+21	; 0x15
    241e:	66 89       	ldd	r22, Z+22	; 0x16
    2420:	77 89       	ldd	r23, Z+23	; 0x17
    2422:	88 85       	ldd	r24, Y+8	; 0x08
    2424:	99 85       	ldd	r25, Y+9	; 0x09
    2426:	0e 94 78 06 	call	0xcf0	; 0xcf0 <get_fat>
    242a:	62 30       	cpi	r22, 0x02	; 2
    242c:	71 05       	cpc	r23, r1
    242e:	81 05       	cpc	r24, r1
    2430:	91 05       	cpc	r25, r1
    2432:	08 f4       	brcc	.+2      	; 0x2436 <f_read+0x128>
    2434:	41 c0       	rjmp	.+130    	; 0x24b8 <f_read+0x1aa>
    2436:	6f 3f       	cpi	r22, 0xFF	; 255
    2438:	ff ef       	ldi	r31, 0xFF	; 255
    243a:	7f 07       	cpc	r23, r31
    243c:	ff ef       	ldi	r31, 0xFF	; 255
    243e:	8f 07       	cpc	r24, r31
    2440:	ff ef       	ldi	r31, 0xFF	; 255
    2442:	9f 07       	cpc	r25, r31
    2444:	29 f4       	brne	.+10     	; 0x2450 <f_read+0x142>
    2446:	81 e0       	ldi	r24, 0x01	; 1
    2448:	f5 01       	movw	r30, r10
    244a:	87 87       	std	Z+15, r24	; 0x0f
    244c:	8d 83       	std	Y+5, r24	; 0x05
    244e:	da c0       	rjmp	.+436    	; 0x2604 <f_read+0x2f6>
    2450:	f5 01       	movw	r30, r10
    2452:	64 8b       	std	Z+20, r22	; 0x14
    2454:	75 8b       	std	Z+21, r23	; 0x15
    2456:	86 8b       	std	Z+22, r24	; 0x16
    2458:	97 8b       	std	Z+23, r25	; 0x17
    245a:	49 80       	ldd	r4, Y+1	; 0x01
    245c:	5a 80       	ldd	r5, Y+2	; 0x02
    245e:	f5 01       	movw	r30, r10
    2460:	24 89       	ldd	r18, Z+20	; 0x14
    2462:	35 89       	ldd	r19, Z+21	; 0x15
    2464:	46 89       	ldd	r20, Z+22	; 0x16
    2466:	57 89       	ldd	r21, Z+23	; 0x17
    2468:	22 50       	subi	r18, 0x02	; 2
    246a:	30 40       	sbci	r19, 0x00	; 0
    246c:	40 40       	sbci	r20, 0x00	; 0
    246e:	50 40       	sbci	r21, 0x00	; 0
    2470:	f2 01       	movw	r30, r4
    2472:	87 89       	ldd	r24, Z+23	; 0x17
    2474:	90 8d       	ldd	r25, Z+24	; 0x18
    2476:	a1 8d       	ldd	r26, Z+25	; 0x19
    2478:	b2 8d       	ldd	r27, Z+26	; 0x1a
    247a:	02 97       	sbiw	r24, 0x02	; 2
    247c:	a1 09       	sbc	r26, r1
    247e:	b1 09       	sbc	r27, r1
    2480:	28 17       	cp	r18, r24
    2482:	39 07       	cpc	r19, r25
    2484:	4a 07       	cpc	r20, r26
    2486:	5b 07       	cpc	r21, r27
    2488:	b8 f4       	brcc	.+46     	; 0x24b8 <f_read+0x1aa>
    248a:	81 84       	ldd	r8, Z+9	; 0x09
    248c:	92 84       	ldd	r9, Z+10	; 0x0a
    248e:	b4 01       	movw	r22, r8
    2490:	80 e0       	ldi	r24, 0x00	; 0
    2492:	90 e0       	ldi	r25, 0x00	; 0
    2494:	0e 94 3b 1d 	call	0x3a76	; 0x3a76 <__mulsi3>
    2498:	9b 01       	movw	r18, r22
    249a:	ac 01       	movw	r20, r24
    249c:	f2 01       	movw	r30, r4
    249e:	83 a5       	ldd	r24, Z+43	; 0x2b
    24a0:	94 a5       	ldd	r25, Z+44	; 0x2c
    24a2:	a5 a5       	ldd	r26, Z+45	; 0x2d
    24a4:	b6 a5       	ldd	r27, Z+46	; 0x2e
    24a6:	28 0f       	add	r18, r24
    24a8:	39 1f       	adc	r19, r25
    24aa:	4a 1f       	adc	r20, r26
    24ac:	5b 1f       	adc	r21, r27
    24ae:	21 15       	cp	r18, r1
    24b0:	31 05       	cpc	r19, r1
    24b2:	41 05       	cpc	r20, r1
    24b4:	51 05       	cpc	r21, r1
    24b6:	11 f4       	brne	.+4      	; 0x24bc <f_read+0x1ae>
    24b8:	82 e0       	ldi	r24, 0x02	; 2
    24ba:	c6 cf       	rjmp	.-116    	; 0x2448 <f_read+0x13a>
    24bc:	68 01       	movw	r12, r16
    24be:	ee 24       	eor	r14, r14
    24c0:	ff 24       	eor	r15, r15
    24c2:	c2 0e       	add	r12, r18
    24c4:	d3 1e       	adc	r13, r19
    24c6:	e4 1e       	adc	r14, r20
    24c8:	f5 1e       	adc	r15, r21
    24ca:	31 01       	movw	r6, r2
    24cc:	67 2c       	mov	r6, r7
    24ce:	77 24       	eor	r7, r7
    24d0:	66 94       	lsr	r6
    24d2:	61 14       	cp	r6, r1
    24d4:	71 04       	cpc	r7, r1
    24d6:	09 f4       	brne	.+2      	; 0x24da <f_read+0x1cc>
    24d8:	42 c0       	rjmp	.+132    	; 0x255e <f_read+0x250>
    24da:	c3 01       	movw	r24, r6
    24dc:	80 0f       	add	r24, r16
    24de:	91 1f       	adc	r25, r17
    24e0:	88 16       	cp	r8, r24
    24e2:	99 06       	cpc	r9, r25
    24e4:	18 f4       	brcc	.+6      	; 0x24ec <f_read+0x1de>
    24e6:	34 01       	movw	r6, r8
    24e8:	60 1a       	sub	r6, r16
    24ea:	71 0a       	sbc	r7, r17
    24ec:	f2 01       	movw	r30, r4
    24ee:	81 81       	ldd	r24, Z+1	; 0x01
    24f0:	6b 81       	ldd	r22, Y+3	; 0x03
    24f2:	7c 81       	ldd	r23, Y+4	; 0x04
    24f4:	a7 01       	movw	r20, r14
    24f6:	96 01       	movw	r18, r12
    24f8:	83 01       	movw	r16, r6
    24fa:	0e 94 f7 00 	call	0x1ee	; 0x1ee <disk_read>
    24fe:	88 23       	and	r24, r24
    2500:	09 f0       	breq	.+2      	; 0x2504 <f_read+0x1f6>
    2502:	a1 cf       	rjmp	.-190    	; 0x2446 <f_read+0x138>
    2504:	e9 81       	ldd	r30, Y+1	; 0x01
    2506:	fa 81       	ldd	r31, Y+2	; 0x02
    2508:	83 81       	ldd	r24, Z+3	; 0x03
    250a:	88 23       	and	r24, r24
    250c:	19 f1       	breq	.+70     	; 0x2554 <f_read+0x246>
    250e:	27 a5       	ldd	r18, Z+47	; 0x2f
    2510:	30 a9       	ldd	r19, Z+48	; 0x30
    2512:	41 a9       	ldd	r20, Z+49	; 0x31
    2514:	52 a9       	ldd	r21, Z+50	; 0x32
    2516:	2c 19       	sub	r18, r12
    2518:	3d 09       	sbc	r19, r13
    251a:	4e 09       	sbc	r20, r14
    251c:	5f 09       	sbc	r21, r15
    251e:	c3 01       	movw	r24, r6
    2520:	a0 e0       	ldi	r26, 0x00	; 0
    2522:	b0 e0       	ldi	r27, 0x00	; 0
    2524:	28 17       	cp	r18, r24
    2526:	39 07       	cpc	r19, r25
    2528:	4a 07       	cpc	r20, r26
    252a:	5b 07       	cpc	r21, r27
    252c:	98 f4       	brcc	.+38     	; 0x2554 <f_read+0x246>
    252e:	99 e0       	ldi	r25, 0x09	; 9
    2530:	22 0f       	add	r18, r18
    2532:	33 1f       	adc	r19, r19
    2534:	44 1f       	adc	r20, r20
    2536:	55 1f       	adc	r21, r21
    2538:	9a 95       	dec	r25
    253a:	d1 f7       	brne	.-12     	; 0x2530 <f_read+0x222>
    253c:	8b 81       	ldd	r24, Y+3	; 0x03
    253e:	9c 81       	ldd	r25, Y+4	; 0x04
    2540:	82 0f       	add	r24, r18
    2542:	93 1f       	adc	r25, r19
    2544:	dc 01       	movw	r26, r24
    2546:	f3 96       	adiw	r30, 0x33	; 51
    2548:	80 e0       	ldi	r24, 0x00	; 0
    254a:	92 e0       	ldi	r25, 0x02	; 2
    254c:	01 90       	ld	r0, Z+
    254e:	0d 92       	st	X+, r0
    2550:	01 97       	sbiw	r24, 0x01	; 1
    2552:	e1 f7       	brne	.-8      	; 0x254c <f_read+0x23e>
    2554:	83 01       	movw	r16, r6
    2556:	10 2f       	mov	r17, r16
    2558:	00 27       	eor	r16, r16
    255a:	11 0f       	add	r17, r17
    255c:	2f c0       	rjmp	.+94     	; 0x25bc <f_read+0x2ae>
    255e:	f5 01       	movw	r30, r10
    2560:	c0 8e       	std	Z+24, r12	; 0x18
    2562:	d1 8e       	std	Z+25, r13	; 0x19
    2564:	e2 8e       	std	Z+26, r14	; 0x1a
    2566:	f3 8e       	std	Z+27, r15	; 0x1b
    2568:	f5 01       	movw	r30, r10
    256a:	e0 88       	ldd	r14, Z+16	; 0x10
    256c:	f1 88       	ldd	r15, Z+17	; 0x11
    256e:	02 89       	ldd	r16, Z+18	; 0x12
    2570:	13 89       	ldd	r17, Z+19	; 0x13
    2572:	40 8d       	ldd	r20, Z+24	; 0x18
    2574:	51 8d       	ldd	r21, Z+25	; 0x19
    2576:	62 8d       	ldd	r22, Z+26	; 0x1a
    2578:	73 8d       	ldd	r23, Z+27	; 0x1b
    257a:	89 81       	ldd	r24, Y+1	; 0x01
    257c:	9a 81       	ldd	r25, Y+2	; 0x02
    257e:	0e 94 33 02 	call	0x466	; 0x466 <move_window>
    2582:	88 23       	and	r24, r24
    2584:	09 f0       	breq	.+2      	; 0x2588 <f_read+0x27a>
    2586:	5f cf       	rjmp	.-322    	; 0x2446 <f_read+0x138>
    2588:	c7 01       	movw	r24, r14
    258a:	91 70       	andi	r25, 0x01	; 1
    258c:	20 e0       	ldi	r18, 0x00	; 0
    258e:	32 e0       	ldi	r19, 0x02	; 2
    2590:	28 1b       	sub	r18, r24
    2592:	39 0b       	sbc	r19, r25
    2594:	81 01       	movw	r16, r2
    2596:	22 15       	cp	r18, r2
    2598:	33 05       	cpc	r19, r3
    259a:	08 f4       	brcc	.+2      	; 0x259e <f_read+0x290>
    259c:	89 01       	movw	r16, r18
    259e:	f5 01       	movw	r30, r10
    25a0:	80 89       	ldd	r24, Z+16	; 0x10
    25a2:	91 89       	ldd	r25, Z+17	; 0x11
    25a4:	91 70       	andi	r25, 0x01	; 1
    25a6:	c3 96       	adiw	r24, 0x33	; 51
    25a8:	29 81       	ldd	r18, Y+1	; 0x01
    25aa:	3a 81       	ldd	r19, Y+2	; 0x02
    25ac:	28 0f       	add	r18, r24
    25ae:	39 1f       	adc	r19, r25
    25b0:	8b 81       	ldd	r24, Y+3	; 0x03
    25b2:	9c 81       	ldd	r25, Y+4	; 0x04
    25b4:	b9 01       	movw	r22, r18
    25b6:	a8 01       	movw	r20, r16
    25b8:	0e 94 9d 1d 	call	0x3b3a	; 0x3b3a <memcpy>
    25bc:	20 1a       	sub	r2, r16
    25be:	31 0a       	sbc	r3, r17
    25c0:	ee 81       	ldd	r30, Y+6	; 0x06
    25c2:	ff 81       	ldd	r31, Y+7	; 0x07
    25c4:	80 81       	ld	r24, Z
    25c6:	91 81       	ldd	r25, Z+1	; 0x01
    25c8:	80 0f       	add	r24, r16
    25ca:	91 1f       	adc	r25, r17
    25cc:	91 83       	std	Z+1, r25	; 0x01
    25ce:	80 83       	st	Z, r24
    25d0:	2b 81       	ldd	r18, Y+3	; 0x03
    25d2:	3c 81       	ldd	r19, Y+4	; 0x04
    25d4:	20 0f       	add	r18, r16
    25d6:	31 1f       	adc	r19, r17
    25d8:	3c 83       	std	Y+4, r19	; 0x04
    25da:	2b 83       	std	Y+3, r18	; 0x03
    25dc:	98 01       	movw	r18, r16
    25de:	40 e0       	ldi	r20, 0x00	; 0
    25e0:	50 e0       	ldi	r21, 0x00	; 0
    25e2:	f5 01       	movw	r30, r10
    25e4:	80 89       	ldd	r24, Z+16	; 0x10
    25e6:	91 89       	ldd	r25, Z+17	; 0x11
    25e8:	a2 89       	ldd	r26, Z+18	; 0x12
    25ea:	b3 89       	ldd	r27, Z+19	; 0x13
    25ec:	82 0f       	add	r24, r18
    25ee:	93 1f       	adc	r25, r19
    25f0:	a4 1f       	adc	r26, r20
    25f2:	b5 1f       	adc	r27, r21
    25f4:	80 8b       	std	Z+16, r24	; 0x10
    25f6:	91 8b       	std	Z+17, r25	; 0x11
    25f8:	a2 8b       	std	Z+18, r26	; 0x12
    25fa:	b3 8b       	std	Z+19, r27	; 0x13
    25fc:	21 14       	cp	r2, r1
    25fe:	31 04       	cpc	r3, r1
    2600:	09 f0       	breq	.+2      	; 0x2604 <f_read+0x2f6>
    2602:	dc ce       	rjmp	.-584    	; 0x23bc <f_read+0xae>
    2604:	8d 81       	ldd	r24, Y+5	; 0x05
    2606:	29 96       	adiw	r28, 0x09	; 9
    2608:	0f b6       	in	r0, 0x3f	; 63
    260a:	f8 94       	cli
    260c:	de bf       	out	0x3e, r29	; 62
    260e:	0f be       	out	0x3f, r0	; 63
    2610:	cd bf       	out	0x3d, r28	; 61
    2612:	cf 91       	pop	r28
    2614:	df 91       	pop	r29
    2616:	1f 91       	pop	r17
    2618:	0f 91       	pop	r16
    261a:	ff 90       	pop	r15
    261c:	ef 90       	pop	r14
    261e:	df 90       	pop	r13
    2620:	cf 90       	pop	r12
    2622:	bf 90       	pop	r11
    2624:	af 90       	pop	r10
    2626:	9f 90       	pop	r9
    2628:	8f 90       	pop	r8
    262a:	7f 90       	pop	r7
    262c:	6f 90       	pop	r6
    262e:	5f 90       	pop	r5
    2630:	4f 90       	pop	r4
    2632:	3f 90       	pop	r3
    2634:	2f 90       	pop	r2
    2636:	08 95       	ret

00002638 <f_open>:
    2638:	2f 92       	push	r2
    263a:	3f 92       	push	r3
    263c:	4f 92       	push	r4
    263e:	5f 92       	push	r5
    2640:	6f 92       	push	r6
    2642:	7f 92       	push	r7
    2644:	8f 92       	push	r8
    2646:	9f 92       	push	r9
    2648:	af 92       	push	r10
    264a:	bf 92       	push	r11
    264c:	cf 92       	push	r12
    264e:	df 92       	push	r13
    2650:	ef 92       	push	r14
    2652:	ff 92       	push	r15
    2654:	0f 93       	push	r16
    2656:	1f 93       	push	r17
    2658:	df 93       	push	r29
    265a:	cf 93       	push	r28
    265c:	cd b7       	in	r28, 0x3d	; 61
    265e:	de b7       	in	r29, 0x3e	; 62
    2660:	e5 97       	sbiw	r28, 0x35	; 53
    2662:	0f b6       	in	r0, 0x3f	; 63
    2664:	f8 94       	cli
    2666:	de bf       	out	0x3e, r29	; 62
    2668:	0f be       	out	0x3f, r0	; 63
    266a:	cd bf       	out	0x3d, r28	; 61
    266c:	1c 01       	movw	r2, r24
    266e:	7c a7       	std	Y+44, r23	; 0x2c
    2670:	6b a7       	std	Y+43, r22	; 0x2b
    2672:	00 97       	sbiw	r24, 0x00	; 0
    2674:	19 f4       	brne	.+6      	; 0x267c <f_open+0x44>
    2676:	49 e0       	ldi	r20, 0x09	; 9
    2678:	b4 2e       	mov	r11, r20
    267a:	4d c2       	rjmp	.+1178   	; 0x2b16 <f_open+0x4de>
    267c:	4f 73       	andi	r20, 0x3F	; 63
    267e:	4d a7       	std	Y+45, r20	; 0x2d
    2680:	ce 01       	movw	r24, r28
    2682:	8b 96       	adiw	r24, 0x2b	; 43
    2684:	be 01       	movw	r22, r28
    2686:	6f 5f       	subi	r22, 0xFF	; 255
    2688:	7f 4f       	sbci	r23, 0xFF	; 255
    268a:	0e 94 2f 03 	call	0x65e	; 0x65e <mount_volume>
    268e:	88 23       	and	r24, r24
    2690:	09 f0       	breq	.+2      	; 0x2694 <f_open+0x5c>
    2692:	80 c2       	rjmp	.+1280   	; 0x2b94 <f_open+0x55c>
    2694:	89 81       	ldd	r24, Y+1	; 0x01
    2696:	9a 81       	ldd	r25, Y+2	; 0x02
    2698:	9c 83       	std	Y+4, r25	; 0x04
    269a:	8b 83       	std	Y+3, r24	; 0x03
    269c:	6b a5       	ldd	r22, Y+43	; 0x2b
    269e:	7c a5       	ldd	r23, Y+44	; 0x2c
    26a0:	ce 01       	movw	r24, r28
    26a2:	03 96       	adiw	r24, 0x03	; 3
    26a4:	0e 94 78 0c 	call	0x18f0	; 0x18f0 <follow_path>
    26a8:	b8 2e       	mov	r11, r24
    26aa:	88 23       	and	r24, r24
    26ac:	29 f4       	brne	.+10     	; 0x26b8 <f_open+0x80>
    26ae:	8a a5       	ldd	r24, Y+42	; 0x2a
    26b0:	87 ff       	sbrs	r24, 7
    26b2:	02 c0       	rjmp	.+4      	; 0x26b8 <f_open+0x80>
    26b4:	36 e0       	ldi	r19, 0x06	; 6
    26b6:	b3 2e       	mov	r11, r19
    26b8:	8d a5       	ldd	r24, Y+45	; 0x2d
    26ba:	28 2f       	mov	r18, r24
    26bc:	30 e0       	ldi	r19, 0x00	; 0
    26be:	c9 01       	movw	r24, r18
    26c0:	8c 71       	andi	r24, 0x1C	; 28
    26c2:	90 70       	andi	r25, 0x00	; 0
    26c4:	89 2b       	or	r24, r25
    26c6:	09 f4       	brne	.+2      	; 0x26ca <f_open+0x92>
    26c8:	14 c1       	rjmp	.+552    	; 0x28f2 <f_open+0x2ba>
    26ca:	bb 20       	and	r11, r11
    26cc:	09 f4       	brne	.+2      	; 0x26d0 <f_open+0x98>
    26ce:	4c c0       	rjmp	.+152    	; 0x2768 <f_open+0x130>
    26d0:	94 e0       	ldi	r25, 0x04	; 4
    26d2:	b9 16       	cp	r11, r25
    26d4:	09 f0       	breq	.+2      	; 0x26d8 <f_open+0xa0>
    26d6:	5a c2       	rjmp	.+1204   	; 0x2b8c <f_open+0x554>
    26d8:	eb 80       	ldd	r14, Y+3	; 0x03
    26da:	fc 80       	ldd	r15, Y+4	; 0x04
    26dc:	8e 01       	movw	r16, r28
    26de:	0d 5f       	subi	r16, 0xFD	; 253
    26e0:	1f 4f       	sbci	r17, 0xFF	; 255
    26e2:	c8 01       	movw	r24, r16
    26e4:	40 e0       	ldi	r20, 0x00	; 0
    26e6:	50 e0       	ldi	r21, 0x00	; 0
    26e8:	60 e0       	ldi	r22, 0x00	; 0
    26ea:	70 e0       	ldi	r23, 0x00	; 0
    26ec:	0e 94 54 07 	call	0xea8	; 0xea8 <dir_sdi>
    26f0:	b8 2e       	mov	r11, r24
    26f2:	88 23       	and	r24, r24
    26f4:	d9 f4       	brne	.+54     	; 0x272c <f_open+0xf4>
    26f6:	49 8d       	ldd	r20, Y+25	; 0x19
    26f8:	5a 8d       	ldd	r21, Y+26	; 0x1a
    26fa:	6b 8d       	ldd	r22, Y+27	; 0x1b
    26fc:	7c 8d       	ldd	r23, Y+28	; 0x1c
    26fe:	c7 01       	movw	r24, r14
    2700:	0e 94 33 02 	call	0x466	; 0x466 <move_window>
    2704:	b8 2e       	mov	r11, r24
    2706:	88 23       	and	r24, r24
    2708:	89 f4       	brne	.+34     	; 0x272c <f_open+0xf4>
    270a:	ed 8d       	ldd	r30, Y+29	; 0x1d
    270c:	fe 8d       	ldd	r31, Y+30	; 0x1e
    270e:	e0 81       	ld	r30, Z
    2710:	e5 3e       	cpi	r30, 0xE5	; 229
    2712:	09 f4       	brne	.+2      	; 0x2716 <f_open+0xde>
    2714:	41 c2       	rjmp	.+1154   	; 0x2b98 <f_open+0x560>
    2716:	ee 23       	and	r30, r30
    2718:	09 f4       	brne	.+2      	; 0x271c <f_open+0xe4>
    271a:	3e c2       	rjmp	.+1148   	; 0x2b98 <f_open+0x560>
    271c:	c8 01       	movw	r24, r16
    271e:	61 e0       	ldi	r22, 0x01	; 1
    2720:	70 e0       	ldi	r23, 0x00	; 0
    2722:	0e 94 b0 0a 	call	0x1560	; 0x1560 <dir_next>
    2726:	b8 2e       	mov	r11, r24
    2728:	88 23       	and	r24, r24
    272a:	29 f3       	breq	.-54     	; 0x26f6 <f_open+0xbe>
    272c:	a4 e0       	ldi	r26, 0x04	; 4
    272e:	ba 16       	cp	r11, r26
    2730:	09 f0       	breq	.+2      	; 0x2734 <f_open+0xfc>
    2732:	2c c2       	rjmp	.+1112   	; 0x2b8c <f_open+0x554>
    2734:	28 c2       	rjmp	.+1104   	; 0x2b86 <f_open+0x54e>
    2736:	ed 8d       	ldd	r30, Y+29	; 0x1d
    2738:	fe 8d       	ldd	r31, Y+30	; 0x1e
    273a:	80 e2       	ldi	r24, 0x20	; 32
    273c:	df 01       	movw	r26, r30
    273e:	1d 92       	st	X+, r1
    2740:	8a 95       	dec	r24
    2742:	e9 f7       	brne	.-6      	; 0x273e <f_open+0x106>
    2744:	2d 8d       	ldd	r18, Y+29	; 0x1d
    2746:	3e 8d       	ldd	r19, Y+30	; 0x1e
    2748:	c9 01       	movw	r24, r18
    274a:	dc 01       	movw	r26, r24
    274c:	fe 01       	movw	r30, r28
    274e:	7f 96       	adiw	r30, 0x1f	; 31
    2750:	8b e0       	ldi	r24, 0x0B	; 11
    2752:	01 90       	ld	r0, Z+
    2754:	0d 92       	st	X+, r0
    2756:	81 50       	subi	r24, 0x01	; 1
    2758:	e1 f7       	brne	.-8      	; 0x2752 <f_open+0x11a>
    275a:	81 e0       	ldi	r24, 0x01	; 1
    275c:	f7 01       	movw	r30, r14
    275e:	83 83       	std	Z+3, r24	; 0x03
    2760:	fd a5       	ldd	r31, Y+45	; 0x2d
    2762:	f8 60       	ori	r31, 0x08	; 8
    2764:	fd a7       	std	Y+45, r31	; 0x2d
    2766:	06 c0       	rjmp	.+12     	; 0x2774 <f_open+0x13c>
    2768:	8f 81       	ldd	r24, Y+7	; 0x07
    276a:	81 71       	andi	r24, 0x11	; 17
    276c:	09 f0       	breq	.+2      	; 0x2770 <f_open+0x138>
    276e:	0b c2       	rjmp	.+1046   	; 0x2b86 <f_open+0x54e>
    2770:	22 fd       	sbrc	r18, 2
    2772:	eb c1       	rjmp	.+982    	; 0x2b4a <f_open+0x512>
    2774:	8d a5       	ldd	r24, Y+45	; 0x2d
    2776:	83 ff       	sbrs	r24, 3
    2778:	c9 c0       	rjmp	.+402    	; 0x290c <f_open+0x2d4>
    277a:	0e 94 d7 15 	call	0x2bae	; 0x2bae <get_fattime>
    277e:	7b 01       	movw	r14, r22
    2780:	8c 01       	movw	r16, r24
    2782:	8d 8d       	ldd	r24, Y+29	; 0x1d
    2784:	9e 8d       	ldd	r25, Y+30	; 0x1e
    2786:	0e 96       	adiw	r24, 0x0e	; 14
    2788:	b8 01       	movw	r22, r16
    278a:	a7 01       	movw	r20, r14
    278c:	0e 94 40 01 	call	0x280	; 0x280 <st_dword>
    2790:	8d 8d       	ldd	r24, Y+29	; 0x1d
    2792:	9e 8d       	ldd	r25, Y+30	; 0x1e
    2794:	46 96       	adiw	r24, 0x16	; 22
    2796:	b8 01       	movw	r22, r16
    2798:	a7 01       	movw	r20, r14
    279a:	0e 94 40 01 	call	0x280	; 0x280 <st_dword>
    279e:	0d 8d       	ldd	r16, Y+29	; 0x1d
    27a0:	1e 8d       	ldd	r17, Y+30	; 0x1e
    27a2:	89 81       	ldd	r24, Y+1	; 0x01
    27a4:	9a 81       	ldd	r25, Y+2	; 0x02
    27a6:	b8 01       	movw	r22, r16
    27a8:	0e 94 57 01 	call	0x2ae	; 0x2ae <ld_clust>
    27ac:	3b 01       	movw	r6, r22
    27ae:	4c 01       	movw	r8, r24
    27b0:	80 e2       	ldi	r24, 0x20	; 32
    27b2:	d8 01       	movw	r26, r16
    27b4:	1b 96       	adiw	r26, 0x0b	; 11
    27b6:	8c 93       	st	X, r24
    27b8:	e9 81       	ldd	r30, Y+1	; 0x01
    27ba:	fa 81       	ldd	r31, Y+2	; 0x02
    27bc:	ad 8d       	ldd	r26, Y+29	; 0x1d
    27be:	be 8d       	ldd	r27, Y+30	; 0x1e
    27c0:	5a 96       	adiw	r26, 0x1a	; 26
    27c2:	1c 92       	st	X, r1
    27c4:	5a 97       	sbiw	r26, 0x1a	; 26
    27c6:	5b 96       	adiw	r26, 0x1b	; 27
    27c8:	1c 92       	st	X, r1
    27ca:	5b 97       	sbiw	r26, 0x1b	; 27
    27cc:	80 81       	ld	r24, Z
    27ce:	83 30       	cpi	r24, 0x03	; 3
    27d0:	29 f4       	brne	.+10     	; 0x27dc <f_open+0x1a4>
    27d2:	54 96       	adiw	r26, 0x14	; 20
    27d4:	1c 92       	st	X, r1
    27d6:	54 97       	sbiw	r26, 0x14	; 20
    27d8:	55 96       	adiw	r26, 0x15	; 21
    27da:	1c 92       	st	X, r1
    27dc:	8d 8d       	ldd	r24, Y+29	; 0x1d
    27de:	9e 8d       	ldd	r25, Y+30	; 0x1e
    27e0:	4c 96       	adiw	r24, 0x1c	; 28
    27e2:	40 e0       	ldi	r20, 0x00	; 0
    27e4:	50 e0       	ldi	r21, 0x00	; 0
    27e6:	60 e0       	ldi	r22, 0x00	; 0
    27e8:	70 e0       	ldi	r23, 0x00	; 0
    27ea:	0e 94 40 01 	call	0x280	; 0x280 <st_dword>
    27ee:	e9 81       	ldd	r30, Y+1	; 0x01
    27f0:	fa 81       	ldd	r31, Y+2	; 0x02
    27f2:	81 e0       	ldi	r24, 0x01	; 1
    27f4:	83 83       	std	Z+3, r24	; 0x03
    27f6:	61 14       	cp	r6, r1
    27f8:	71 04       	cpc	r7, r1
    27fa:	81 04       	cpc	r8, r1
    27fc:	91 04       	cpc	r9, r1
    27fe:	09 f4       	brne	.+2      	; 0x2802 <f_open+0x1ca>
    2800:	85 c0       	rjmp	.+266    	; 0x290c <f_open+0x2d4>
    2802:	87 a5       	ldd	r24, Z+47	; 0x2f
    2804:	90 a9       	ldd	r25, Z+48	; 0x30
    2806:	a1 a9       	ldd	r26, Z+49	; 0x31
    2808:	b2 a9       	ldd	r27, Z+50	; 0x32
    280a:	8e a7       	std	Y+46, r24	; 0x2e
    280c:	9f a7       	std	Y+47, r25	; 0x2f
    280e:	a8 ab       	std	Y+48, r26	; 0x30
    2810:	b9 ab       	std	Y+49, r27	; 0x31
    2812:	4b 80       	ldd	r4, Y+3	; 0x03
    2814:	5c 80       	ldd	r5, Y+4	; 0x04
    2816:	92 e0       	ldi	r25, 0x02	; 2
    2818:	69 16       	cp	r6, r25
    281a:	71 04       	cpc	r7, r1
    281c:	81 04       	cpc	r8, r1
    281e:	91 04       	cpc	r9, r1
    2820:	08 f4       	brcc	.+2      	; 0x2824 <f_open+0x1ec>
    2822:	72 c1       	rjmp	.+740    	; 0x2b08 <f_open+0x4d0>
    2824:	f2 01       	movw	r30, r4
    2826:	87 89       	ldd	r24, Z+23	; 0x17
    2828:	90 8d       	ldd	r25, Z+24	; 0x18
    282a:	a1 8d       	ldd	r26, Z+25	; 0x19
    282c:	b2 8d       	ldd	r27, Z+26	; 0x1a
    282e:	68 16       	cp	r6, r24
    2830:	79 06       	cpc	r7, r25
    2832:	8a 06       	cpc	r8, r26
    2834:	9b 06       	cpc	r9, r27
    2836:	08 f0       	brcs	.+2      	; 0x283a <f_open+0x202>
    2838:	67 c1       	rjmp	.+718    	; 0x2b08 <f_open+0x4d0>
    283a:	53 01       	movw	r10, r6
    283c:	84 01       	movw	r16, r8
    283e:	ce 01       	movw	r24, r28
    2840:	03 96       	adiw	r24, 0x03	; 3
    2842:	a5 01       	movw	r20, r10
    2844:	b8 01       	movw	r22, r16
    2846:	0e 94 78 06 	call	0xcf0	; 0xcf0 <get_fat>
    284a:	6b 01       	movw	r12, r22
    284c:	7c 01       	movw	r14, r24
    284e:	61 15       	cp	r22, r1
    2850:	71 05       	cpc	r23, r1
    2852:	81 05       	cpc	r24, r1
    2854:	91 05       	cpc	r25, r1
    2856:	09 f4       	brne	.+2      	; 0x285a <f_open+0x222>
    2858:	7e c1       	rjmp	.+764    	; 0x2b56 <f_open+0x51e>
    285a:	61 30       	cpi	r22, 0x01	; 1
    285c:	71 05       	cpc	r23, r1
    285e:	81 05       	cpc	r24, r1
    2860:	91 05       	cpc	r25, r1
    2862:	09 f4       	brne	.+2      	; 0x2866 <f_open+0x22e>
    2864:	51 c1       	rjmp	.+674    	; 0x2b08 <f_open+0x4d0>
    2866:	8f ef       	ldi	r24, 0xFF	; 255
    2868:	c8 16       	cp	r12, r24
    286a:	8f ef       	ldi	r24, 0xFF	; 255
    286c:	d8 06       	cpc	r13, r24
    286e:	8f ef       	ldi	r24, 0xFF	; 255
    2870:	e8 06       	cpc	r14, r24
    2872:	8f ef       	ldi	r24, 0xFF	; 255
    2874:	f8 06       	cpc	r15, r24
    2876:	09 f4       	brne	.+2      	; 0x287a <f_open+0x242>
    2878:	6b c1       	rjmp	.+726    	; 0x2b50 <f_open+0x518>
    287a:	c2 01       	movw	r24, r4
    287c:	a5 01       	movw	r20, r10
    287e:	b8 01       	movw	r22, r16
    2880:	00 e0       	ldi	r16, 0x00	; 0
    2882:	10 e0       	ldi	r17, 0x00	; 0
    2884:	20 e0       	ldi	r18, 0x00	; 0
    2886:	30 e0       	ldi	r19, 0x00	; 0
    2888:	0e 94 61 08 	call	0x10c2	; 0x10c2 <put_fat>
    288c:	b8 2e       	mov	r11, r24
    288e:	88 23       	and	r24, r24
    2890:	09 f0       	breq	.+2      	; 0x2894 <f_open+0x25c>
    2892:	3c c1       	rjmp	.+632    	; 0x2b0c <f_open+0x4d4>
    2894:	d2 01       	movw	r26, r4
    2896:	1f 96       	adiw	r26, 0x0f	; 15
    2898:	2d 91       	ld	r18, X+
    289a:	3d 91       	ld	r19, X+
    289c:	4d 91       	ld	r20, X+
    289e:	5c 91       	ld	r21, X
    28a0:	52 97       	sbiw	r26, 0x12	; 18
    28a2:	57 96       	adiw	r26, 0x17	; 23
    28a4:	8d 91       	ld	r24, X+
    28a6:	9d 91       	ld	r25, X+
    28a8:	0d 90       	ld	r0, X+
    28aa:	bc 91       	ld	r27, X
    28ac:	a0 2d       	mov	r26, r0
    28ae:	02 97       	sbiw	r24, 0x02	; 2
    28b0:	a1 09       	sbc	r26, r1
    28b2:	b1 09       	sbc	r27, r1
    28b4:	28 17       	cp	r18, r24
    28b6:	39 07       	cpc	r19, r25
    28b8:	4a 07       	cpc	r20, r26
    28ba:	5b 07       	cpc	r21, r27
    28bc:	60 f4       	brcc	.+24     	; 0x28d6 <f_open+0x29e>
    28be:	2f 5f       	subi	r18, 0xFF	; 255
    28c0:	3f 4f       	sbci	r19, 0xFF	; 255
    28c2:	4f 4f       	sbci	r20, 0xFF	; 255
    28c4:	5f 4f       	sbci	r21, 0xFF	; 255
    28c6:	f2 01       	movw	r30, r4
    28c8:	27 87       	std	Z+15, r18	; 0x0f
    28ca:	30 8b       	std	Z+16, r19	; 0x10
    28cc:	41 8b       	std	Z+17, r20	; 0x11
    28ce:	52 8b       	std	Z+18, r21	; 0x12
    28d0:	84 81       	ldd	r24, Z+4	; 0x04
    28d2:	81 60       	ori	r24, 0x01	; 1
    28d4:	84 83       	std	Z+4, r24	; 0x04
    28d6:	f2 01       	movw	r30, r4
    28d8:	87 89       	ldd	r24, Z+23	; 0x17
    28da:	90 8d       	ldd	r25, Z+24	; 0x18
    28dc:	a1 8d       	ldd	r26, Z+25	; 0x19
    28de:	b2 8d       	ldd	r27, Z+26	; 0x1a
    28e0:	c8 16       	cp	r12, r24
    28e2:	d9 06       	cpc	r13, r25
    28e4:	ea 06       	cpc	r14, r26
    28e6:	fb 06       	cpc	r15, r27
    28e8:	08 f0       	brcs	.+2      	; 0x28ec <f_open+0x2b4>
    28ea:	35 c1       	rjmp	.+618    	; 0x2b56 <f_open+0x51e>
    28ec:	56 01       	movw	r10, r12
    28ee:	87 01       	movw	r16, r14
    28f0:	a6 cf       	rjmp	.-180    	; 0x283e <f_open+0x206>
    28f2:	bb 20       	and	r11, r11
    28f4:	09 f0       	breq	.+2      	; 0x28f8 <f_open+0x2c0>
    28f6:	4a c1       	rjmp	.+660    	; 0x2b8c <f_open+0x554>
    28f8:	8f 81       	ldd	r24, Y+7	; 0x07
    28fa:	84 ff       	sbrs	r24, 4
    28fc:	03 c0       	rjmp	.+6      	; 0x2904 <f_open+0x2cc>
    28fe:	24 e0       	ldi	r18, 0x04	; 4
    2900:	b2 2e       	mov	r11, r18
    2902:	04 c1       	rjmp	.+520    	; 0x2b0c <f_open+0x4d4>
    2904:	21 ff       	sbrs	r18, 1
    2906:	02 c0       	rjmp	.+4      	; 0x290c <f_open+0x2d4>
    2908:	80 fd       	sbrc	r24, 0
    290a:	3d c1       	rjmp	.+634    	; 0x2b86 <f_open+0x54e>
    290c:	fd a5       	ldd	r31, Y+45	; 0x2d
    290e:	f3 ff       	sbrs	r31, 3
    2910:	02 c0       	rjmp	.+4      	; 0x2916 <f_open+0x2de>
    2912:	f0 64       	ori	r31, 0x40	; 64
    2914:	fd a7       	std	Y+45, r31	; 0x2d
    2916:	e9 80       	ldd	r14, Y+1	; 0x01
    2918:	fa 80       	ldd	r15, Y+2	; 0x02
    291a:	f7 01       	movw	r30, r14
    291c:	87 a5       	ldd	r24, Z+47	; 0x2f
    291e:	90 a9       	ldd	r25, Z+48	; 0x30
    2920:	a1 a9       	ldd	r26, Z+49	; 0x31
    2922:	b2 a9       	ldd	r27, Z+50	; 0x32
    2924:	f1 01       	movw	r30, r2
    2926:	84 8f       	std	Z+28, r24	; 0x1c
    2928:	95 8f       	std	Z+29, r25	; 0x1d
    292a:	a6 8f       	std	Z+30, r26	; 0x1e
    292c:	b7 8f       	std	Z+31, r27	; 0x1f
    292e:	0d 8d       	ldd	r16, Y+29	; 0x1d
    2930:	1e 8d       	ldd	r17, Y+30	; 0x1e
    2932:	11 a3       	std	Z+33, r17	; 0x21
    2934:	00 a3       	std	Z+32, r16	; 0x20
    2936:	c7 01       	movw	r24, r14
    2938:	b8 01       	movw	r22, r16
    293a:	0e 94 57 01 	call	0x2ae	; 0x2ae <ld_clust>
    293e:	d6 2e       	mov	r13, r22
    2940:	c7 2e       	mov	r12, r23
    2942:	b8 2e       	mov	r11, r24
    2944:	a9 2e       	mov	r10, r25
    2946:	d1 01       	movw	r26, r2
    2948:	16 96       	adiw	r26, 0x06	; 6
    294a:	6c 93       	st	X, r22
    294c:	16 97       	sbiw	r26, 0x06	; 6
    294e:	17 96       	adiw	r26, 0x07	; 7
    2950:	7c 93       	st	X, r23
    2952:	17 97       	sbiw	r26, 0x07	; 7
    2954:	18 96       	adiw	r26, 0x08	; 8
    2956:	8c 93       	st	X, r24
    2958:	18 97       	sbiw	r26, 0x08	; 8
    295a:	19 96       	adiw	r26, 0x09	; 9
    295c:	9c 93       	st	X, r25
    295e:	c8 01       	movw	r24, r16
    2960:	4c 96       	adiw	r24, 0x1c	; 28
    2962:	0e 94 14 01 	call	0x228	; 0x228 <ld_dword>
    2966:	8b 01       	movw	r16, r22
    2968:	9c 01       	movw	r18, r24
    296a:	f1 01       	movw	r30, r2
    296c:	62 87       	std	Z+10, r22	; 0x0a
    296e:	73 87       	std	Z+11, r23	; 0x0b
    2970:	84 87       	std	Z+12, r24	; 0x0c
    2972:	95 87       	std	Z+13, r25	; 0x0d
    2974:	f1 82       	std	Z+1, r15	; 0x01
    2976:	e0 82       	st	Z, r14
    2978:	d7 01       	movw	r26, r14
    297a:	15 96       	adiw	r26, 0x05	; 5
    297c:	8d 91       	ld	r24, X+
    297e:	9c 91       	ld	r25, X
    2980:	16 97       	sbiw	r26, 0x06	; 6
    2982:	93 83       	std	Z+3, r25	; 0x03
    2984:	82 83       	std	Z+2, r24	; 0x02
    2986:	bd a5       	ldd	r27, Y+45	; 0x2d
    2988:	b6 87       	std	Z+14, r27	; 0x0e
    298a:	17 86       	std	Z+15, r1	; 0x0f
    298c:	10 8e       	std	Z+24, r1	; 0x18
    298e:	11 8e       	std	Z+25, r1	; 0x19
    2990:	12 8e       	std	Z+26, r1	; 0x1a
    2992:	13 8e       	std	Z+27, r1	; 0x1b
    2994:	d1 01       	movw	r26, r2
    2996:	50 96       	adiw	r26, 0x10	; 16
    2998:	1d 92       	st	X+, r1
    299a:	1d 92       	st	X+, r1
    299c:	1d 92       	st	X+, r1
    299e:	1c 92       	st	X, r1
    29a0:	53 97       	sbiw	r26, 0x13	; 19
    29a2:	bd a5       	ldd	r27, Y+45	; 0x2d
    29a4:	b5 ff       	sbrs	r27, 5
    29a6:	b6 c0       	rjmp	.+364    	; 0x2b14 <f_open+0x4dc>
    29a8:	01 15       	cp	r16, r1
    29aa:	11 05       	cpc	r17, r1
    29ac:	21 05       	cpc	r18, r1
    29ae:	31 05       	cpc	r19, r1
    29b0:	09 f4       	brne	.+2      	; 0x29b4 <f_open+0x37c>
    29b2:	b0 c0       	rjmp	.+352    	; 0x2b14 <f_open+0x4dc>
    29b4:	00 8b       	std	Z+16, r16	; 0x10
    29b6:	11 8b       	std	Z+17, r17	; 0x11
    29b8:	22 8b       	std	Z+18, r18	; 0x12
    29ba:	33 8b       	std	Z+19, r19	; 0x13
    29bc:	d7 01       	movw	r26, r14
    29be:	19 96       	adiw	r26, 0x09	; 9
    29c0:	8d 91       	ld	r24, X+
    29c2:	9c 91       	ld	r25, X
    29c4:	1a 97       	sbiw	r26, 0x0a	; 10
    29c6:	3c 01       	movw	r6, r24
    29c8:	88 24       	eor	r8, r8
    29ca:	99 24       	eor	r9, r9
    29cc:	99 e0       	ldi	r25, 0x09	; 9
    29ce:	66 0c       	add	r6, r6
    29d0:	77 1c       	adc	r7, r7
    29d2:	88 1c       	adc	r8, r8
    29d4:	99 1c       	adc	r9, r9
    29d6:	9a 95       	dec	r25
    29d8:	d1 f7       	brne	.-12     	; 0x29ce <f_open+0x396>
    29da:	8d 2d       	mov	r24, r13
    29dc:	9c 2d       	mov	r25, r12
    29de:	ab 2d       	mov	r26, r11
    29e0:	ba 2d       	mov	r27, r10
    29e2:	ac 01       	movw	r20, r24
    29e4:	bd 01       	movw	r22, r26
    29e6:	78 01       	movw	r14, r16
    29e8:	89 01       	movw	r16, r18
    29ea:	61 01       	movw	r12, r2
    29ec:	88 27       	eor	r24, r24
    29ee:	99 27       	eor	r25, r25
    29f0:	dc 01       	movw	r26, r24
    29f2:	86 19       	sub	r24, r6
    29f4:	97 09       	sbc	r25, r7
    29f6:	a8 09       	sbc	r26, r8
    29f8:	b9 09       	sbc	r27, r9
    29fa:	8a ab       	std	Y+50, r24	; 0x32
    29fc:	9b ab       	std	Y+51, r25	; 0x33
    29fe:	ac ab       	std	Y+52, r26	; 0x34
    2a00:	bd ab       	std	Y+53, r27	; 0x35
    2a02:	22 c0       	rjmp	.+68     	; 0x2a48 <f_open+0x410>
    2a04:	c6 01       	movw	r24, r12
    2a06:	0e 94 78 06 	call	0xcf0	; 0xcf0 <get_fat>
    2a0a:	ab 01       	movw	r20, r22
    2a0c:	bc 01       	movw	r22, r24
    2a0e:	42 30       	cpi	r20, 0x02	; 2
    2a10:	51 05       	cpc	r21, r1
    2a12:	61 05       	cpc	r22, r1
    2a14:	71 05       	cpc	r23, r1
    2a16:	18 f4       	brcc	.+6      	; 0x2a1e <f_open+0x3e6>
    2a18:	82 e0       	ldi	r24, 0x02	; 2
    2a1a:	b8 2e       	mov	r11, r24
    2a1c:	01 c0       	rjmp	.+2      	; 0x2a20 <f_open+0x3e8>
    2a1e:	bb 24       	eor	r11, r11
    2a20:	4f 3f       	cpi	r20, 0xFF	; 255
    2a22:	9f ef       	ldi	r25, 0xFF	; 255
    2a24:	59 07       	cpc	r21, r25
    2a26:	9f ef       	ldi	r25, 0xFF	; 255
    2a28:	69 07       	cpc	r22, r25
    2a2a:	9f ef       	ldi	r25, 0xFF	; 255
    2a2c:	79 07       	cpc	r23, r25
    2a2e:	11 f4       	brne	.+4      	; 0x2a34 <f_open+0x3fc>
    2a30:	bb 24       	eor	r11, r11
    2a32:	b3 94       	inc	r11
    2a34:	8a a9       	ldd	r24, Y+50	; 0x32
    2a36:	9b a9       	ldd	r25, Y+51	; 0x33
    2a38:	ac a9       	ldd	r26, Y+52	; 0x34
    2a3a:	bd a9       	ldd	r27, Y+53	; 0x35
    2a3c:	e8 0e       	add	r14, r24
    2a3e:	f9 1e       	adc	r15, r25
    2a40:	0a 1f       	adc	r16, r26
    2a42:	1b 1f       	adc	r17, r27
    2a44:	bb 20       	and	r11, r11
    2a46:	31 f4       	brne	.+12     	; 0x2a54 <f_open+0x41c>
    2a48:	6e 14       	cp	r6, r14
    2a4a:	7f 04       	cpc	r7, r15
    2a4c:	80 06       	cpc	r8, r16
    2a4e:	91 06       	cpc	r9, r17
    2a50:	c8 f2       	brcs	.-78     	; 0x2a04 <f_open+0x3cc>
    2a52:	bb 24       	eor	r11, r11
    2a54:	d1 01       	movw	r26, r2
    2a56:	54 96       	adiw	r26, 0x14	; 20
    2a58:	4d 93       	st	X+, r20
    2a5a:	5d 93       	st	X+, r21
    2a5c:	6d 93       	st	X+, r22
    2a5e:	7c 93       	st	X, r23
    2a60:	57 97       	sbiw	r26, 0x17	; 23
    2a62:	bb 20       	and	r11, r11
    2a64:	09 f0       	breq	.+2      	; 0x2a68 <f_open+0x430>
    2a66:	95 c0       	rjmp	.+298    	; 0x2b92 <f_open+0x55a>
    2a68:	d8 01       	movw	r26, r16
    2a6a:	c7 01       	movw	r24, r14
    2a6c:	91 70       	andi	r25, 0x01	; 1
    2a6e:	a0 70       	andi	r26, 0x00	; 0
    2a70:	b0 70       	andi	r27, 0x00	; 0
    2a72:	00 97       	sbiw	r24, 0x00	; 0
    2a74:	a1 05       	cpc	r26, r1
    2a76:	b1 05       	cpc	r27, r1
    2a78:	09 f4       	brne	.+2      	; 0x2a7c <f_open+0x444>
    2a7a:	4d c0       	rjmp	.+154    	; 0x2b16 <f_open+0x4de>
    2a7c:	c9 80       	ldd	r12, Y+1	; 0x01
    2a7e:	da 80       	ldd	r13, Y+2	; 0x02
    2a80:	be ef       	ldi	r27, 0xFE	; 254
    2a82:	6b 2e       	mov	r6, r27
    2a84:	bf ef       	ldi	r27, 0xFF	; 255
    2a86:	7b 2e       	mov	r7, r27
    2a88:	bf ef       	ldi	r27, 0xFF	; 255
    2a8a:	8b 2e       	mov	r8, r27
    2a8c:	bf ef       	ldi	r27, 0xFF	; 255
    2a8e:	9b 2e       	mov	r9, r27
    2a90:	64 0e       	add	r6, r20
    2a92:	75 1e       	adc	r7, r21
    2a94:	86 1e       	adc	r8, r22
    2a96:	97 1e       	adc	r9, r23
    2a98:	f6 01       	movw	r30, r12
    2a9a:	87 89       	ldd	r24, Z+23	; 0x17
    2a9c:	90 8d       	ldd	r25, Z+24	; 0x18
    2a9e:	a1 8d       	ldd	r26, Z+25	; 0x19
    2aa0:	b2 8d       	ldd	r27, Z+26	; 0x1a
    2aa2:	02 97       	sbiw	r24, 0x02	; 2
    2aa4:	a1 09       	sbc	r26, r1
    2aa6:	b1 09       	sbc	r27, r1
    2aa8:	68 16       	cp	r6, r24
    2aaa:	79 06       	cpc	r7, r25
    2aac:	8a 06       	cpc	r8, r26
    2aae:	9b 06       	cpc	r9, r27
    2ab0:	58 f5       	brcc	.+86     	; 0x2b08 <f_open+0x4d0>
    2ab2:	21 85       	ldd	r18, Z+9	; 0x09
    2ab4:	32 85       	ldd	r19, Z+10	; 0x0a
    2ab6:	40 e0       	ldi	r20, 0x00	; 0
    2ab8:	50 e0       	ldi	r21, 0x00	; 0
    2aba:	c4 01       	movw	r24, r8
    2abc:	b3 01       	movw	r22, r6
    2abe:	0e 94 3b 1d 	call	0x3a76	; 0x3a76 <__mulsi3>
    2ac2:	9b 01       	movw	r18, r22
    2ac4:	ac 01       	movw	r20, r24
    2ac6:	f6 01       	movw	r30, r12
    2ac8:	83 a5       	ldd	r24, Z+43	; 0x2b
    2aca:	94 a5       	ldd	r25, Z+44	; 0x2c
    2acc:	a5 a5       	ldd	r26, Z+45	; 0x2d
    2ace:	b6 a5       	ldd	r27, Z+46	; 0x2e
    2ad0:	28 0f       	add	r18, r24
    2ad2:	39 1f       	adc	r19, r25
    2ad4:	4a 1f       	adc	r20, r26
    2ad6:	5b 1f       	adc	r21, r27
    2ad8:	21 15       	cp	r18, r1
    2ada:	31 05       	cpc	r19, r1
    2adc:	41 05       	cpc	r20, r1
    2ade:	51 05       	cpc	r21, r1
    2ae0:	99 f0       	breq	.+38     	; 0x2b08 <f_open+0x4d0>
    2ae2:	a9 e0       	ldi	r26, 0x09	; 9
    2ae4:	16 95       	lsr	r17
    2ae6:	07 95       	ror	r16
    2ae8:	f7 94       	ror	r15
    2aea:	e7 94       	ror	r14
    2aec:	aa 95       	dec	r26
    2aee:	d1 f7       	brne	.-12     	; 0x2ae4 <f_open+0x4ac>
    2af0:	2e 0d       	add	r18, r14
    2af2:	3f 1d       	adc	r19, r15
    2af4:	40 1f       	adc	r20, r16
    2af6:	51 1f       	adc	r21, r17
    2af8:	d1 01       	movw	r26, r2
    2afa:	58 96       	adiw	r26, 0x18	; 24
    2afc:	2d 93       	st	X+, r18
    2afe:	3d 93       	st	X+, r19
    2b00:	4d 93       	st	X+, r20
    2b02:	5c 93       	st	X, r21
    2b04:	5b 97       	sbiw	r26, 0x1b	; 27
    2b06:	07 c0       	rjmp	.+14     	; 0x2b16 <f_open+0x4de>
    2b08:	f2 e0       	ldi	r31, 0x02	; 2
    2b0a:	bf 2e       	mov	r11, r31
    2b0c:	f1 01       	movw	r30, r2
    2b0e:	11 82       	std	Z+1, r1	; 0x01
    2b10:	10 82       	st	Z, r1
    2b12:	01 c0       	rjmp	.+2      	; 0x2b16 <f_open+0x4de>
    2b14:	bb 24       	eor	r11, r11
    2b16:	8b 2d       	mov	r24, r11
    2b18:	e5 96       	adiw	r28, 0x35	; 53
    2b1a:	0f b6       	in	r0, 0x3f	; 63
    2b1c:	f8 94       	cli
    2b1e:	de bf       	out	0x3e, r29	; 62
    2b20:	0f be       	out	0x3f, r0	; 63
    2b22:	cd bf       	out	0x3d, r28	; 61
    2b24:	cf 91       	pop	r28
    2b26:	df 91       	pop	r29
    2b28:	1f 91       	pop	r17
    2b2a:	0f 91       	pop	r16
    2b2c:	ff 90       	pop	r15
    2b2e:	ef 90       	pop	r14
    2b30:	df 90       	pop	r13
    2b32:	cf 90       	pop	r12
    2b34:	bf 90       	pop	r11
    2b36:	af 90       	pop	r10
    2b38:	9f 90       	pop	r9
    2b3a:	8f 90       	pop	r8
    2b3c:	7f 90       	pop	r7
    2b3e:	6f 90       	pop	r6
    2b40:	5f 90       	pop	r5
    2b42:	4f 90       	pop	r4
    2b44:	3f 90       	pop	r3
    2b46:	2f 90       	pop	r2
    2b48:	08 95       	ret
    2b4a:	e8 e0       	ldi	r30, 0x08	; 8
    2b4c:	be 2e       	mov	r11, r30
    2b4e:	de cf       	rjmp	.-68     	; 0x2b0c <f_open+0x4d4>
    2b50:	bb 24       	eor	r11, r11
    2b52:	b3 94       	inc	r11
    2b54:	db cf       	rjmp	.-74     	; 0x2b0c <f_open+0x4d4>
    2b56:	89 81       	ldd	r24, Y+1	; 0x01
    2b58:	9a 81       	ldd	r25, Y+2	; 0x02
    2b5a:	4e a5       	ldd	r20, Y+46	; 0x2e
    2b5c:	5f a5       	ldd	r21, Y+47	; 0x2f
    2b5e:	68 a9       	ldd	r22, Y+48	; 0x30
    2b60:	79 a9       	ldd	r23, Y+49	; 0x31
    2b62:	0e 94 33 02 	call	0x466	; 0x466 <move_window>
    2b66:	b8 2e       	mov	r11, r24
    2b68:	e9 81       	ldd	r30, Y+1	; 0x01
    2b6a:	fa 81       	ldd	r31, Y+2	; 0x02
    2b6c:	08 94       	sec
    2b6e:	61 08       	sbc	r6, r1
    2b70:	71 08       	sbc	r7, r1
    2b72:	81 08       	sbc	r8, r1
    2b74:	91 08       	sbc	r9, r1
    2b76:	63 86       	std	Z+11, r6	; 0x0b
    2b78:	74 86       	std	Z+12, r7	; 0x0c
    2b7a:	85 86       	std	Z+13, r8	; 0x0d
    2b7c:	96 86       	std	Z+14, r9	; 0x0e
    2b7e:	88 23       	and	r24, r24
    2b80:	09 f4       	brne	.+2      	; 0x2b84 <f_open+0x54c>
    2b82:	c4 ce       	rjmp	.-632    	; 0x290c <f_open+0x2d4>
    2b84:	c3 cf       	rjmp	.-122    	; 0x2b0c <f_open+0x4d4>
    2b86:	77 e0       	ldi	r23, 0x07	; 7
    2b88:	b7 2e       	mov	r11, r23
    2b8a:	c0 cf       	rjmp	.-128    	; 0x2b0c <f_open+0x4d4>
    2b8c:	bb 20       	and	r11, r11
    2b8e:	19 f2       	breq	.-122    	; 0x2b16 <f_open+0x4de>
    2b90:	bd cf       	rjmp	.-134    	; 0x2b0c <f_open+0x4d4>
    2b92:	8b 2d       	mov	r24, r11
    2b94:	b8 2e       	mov	r11, r24
    2b96:	ba cf       	rjmp	.-140    	; 0x2b0c <f_open+0x4d4>
    2b98:	49 8d       	ldd	r20, Y+25	; 0x19
    2b9a:	5a 8d       	ldd	r21, Y+26	; 0x1a
    2b9c:	6b 8d       	ldd	r22, Y+27	; 0x1b
    2b9e:	7c 8d       	ldd	r23, Y+28	; 0x1c
    2ba0:	c7 01       	movw	r24, r14
    2ba2:	0e 94 33 02 	call	0x466	; 0x466 <move_window>
    2ba6:	b8 2e       	mov	r11, r24
    2ba8:	88 23       	and	r24, r24
    2baa:	81 f7       	brne	.-32     	; 0x2b8c <f_open+0x554>
    2bac:	c4 cd       	rjmp	.-1144   	; 0x2736 <f_open+0xfe>

00002bae <get_fattime>:
    2bae:	60 e0       	ldi	r22, 0x00	; 0
    2bb0:	70 e0       	ldi	r23, 0x00	; 0
    2bb2:	8c ef       	ldi	r24, 0xFC	; 252
    2bb4:	92 e4       	ldi	r25, 0x42	; 66
    2bb6:	08 95       	ret

00002bb8 <__vector_4>:
    2bb8:	1f 92       	push	r1
    2bba:	0f 92       	push	r0
    2bbc:	0f b6       	in	r0, 0x3f	; 63
    2bbe:	0f 92       	push	r0
    2bc0:	11 24       	eor	r1, r1
    2bc2:	2f 93       	push	r18
    2bc4:	3f 93       	push	r19
    2bc6:	4f 93       	push	r20
    2bc8:	5f 93       	push	r21
    2bca:	6f 93       	push	r22
    2bcc:	7f 93       	push	r23
    2bce:	8f 93       	push	r24
    2bd0:	9f 93       	push	r25
    2bd2:	af 93       	push	r26
    2bd4:	bf 93       	push	r27
    2bd6:	ef 93       	push	r30
    2bd8:	ff 93       	push	r31
    2bda:	80 91 a6 03 	lds	r24, 0x03A6
    2bde:	90 91 a7 03 	lds	r25, 0x03A7
    2be2:	01 96       	adiw	r24, 0x01	; 1
    2be4:	90 93 a7 03 	sts	0x03A7, r25
    2be8:	80 93 a6 03 	sts	0x03A6, r24
    2bec:	0e 94 dc 00 	call	0x1b8	; 0x1b8 <disk_timerproc>
    2bf0:	ff 91       	pop	r31
    2bf2:	ef 91       	pop	r30
    2bf4:	bf 91       	pop	r27
    2bf6:	af 91       	pop	r26
    2bf8:	9f 91       	pop	r25
    2bfa:	8f 91       	pop	r24
    2bfc:	7f 91       	pop	r23
    2bfe:	6f 91       	pop	r22
    2c00:	5f 91       	pop	r21
    2c02:	4f 91       	pop	r20
    2c04:	3f 91       	pop	r19
    2c06:	2f 91       	pop	r18
    2c08:	0f 90       	pop	r0
    2c0a:	0f be       	out	0x3f, r0	; 63
    2c0c:	0f 90       	pop	r0
    2c0e:	1f 90       	pop	r1
    2c10:	18 95       	reti

00002c12 <main>:
    2c12:	af 92       	push	r10
    2c14:	bf 92       	push	r11
    2c16:	cf 92       	push	r12
    2c18:	df 92       	push	r13
    2c1a:	ef 92       	push	r14
    2c1c:	ff 92       	push	r15
    2c1e:	0f 93       	push	r16
    2c20:	1f 93       	push	r17
    2c22:	df 93       	push	r29
    2c24:	cf 93       	push	r28
    2c26:	cd b7       	in	r28, 0x3d	; 61
    2c28:	de b7       	in	r29, 0x3e	; 62
    2c2a:	e4 97       	sbiw	r28, 0x34	; 52
    2c2c:	0f b6       	in	r0, 0x3f	; 63
    2c2e:	f8 94       	cli
    2c30:	de bf       	out	0x3e, r29	; 62
    2c32:	0f be       	out	0x3f, r0	; 63
    2c34:	cd bf       	out	0x3d, r28	; 61
    2c36:	0e 94 9f 00 	call	0x13e	; 0x13e <LCD_Initalize>
    2c3a:	0e 94 97 00 	call	0x12e	; 0x12e <LCD_Home>
    2c3e:	85 b5       	in	r24, 0x25	; 37
    2c40:	8f 60       	ori	r24, 0x0F	; 15
    2c42:	85 bd       	out	0x25, r24	; 37
    2c44:	8e e4       	ldi	r24, 0x4E	; 78
    2c46:	83 bd       	out	0x23, r24	; 35
    2c48:	89 b7       	in	r24, 0x39	; 57
    2c4a:	80 68       	ori	r24, 0x80	; 128
    2c4c:	89 bf       	out	0x39, r24	; 57
    2c4e:	78 94       	sei
    2c50:	80 e0       	ldi	r24, 0x00	; 0
    2c52:	0e 94 06 01 	call	0x20c	; 0x20c <disk_initialize>
    2c56:	8e 01       	movw	r16, r28
    2c58:	03 5f       	subi	r16, 0xF3	; 243
    2c5a:	1f 4f       	sbci	r17, 0xFF	; 255
    2c5c:	c8 01       	movw	r24, r16
    2c5e:	68 e7       	ldi	r22, 0x78	; 120
    2c60:	70 e0       	ldi	r23, 0x00	; 0
    2c62:	0e 94 b8 1d 	call	0x3b70	; 0x3b70 <strcpy>
    2c66:	0e 94 8f 00 	call	0x11e	; 0x11e <LCD_Clear>
    2c6a:	80 e0       	ldi	r24, 0x00	; 0
    2c6c:	60 e0       	ldi	r22, 0x00	; 0
    2c6e:	0e 94 85 00 	call	0x10a	; 0x10a <LCD_GoTo>
    2c72:	c8 01       	movw	r24, r16
    2c74:	0e 94 78 00 	call	0xf0	; 0xf0 <LCD_WriteText>
    2c78:	80 e5       	ldi	r24, 0x50	; 80
    2c7a:	93 ec       	ldi	r25, 0xC3	; 195
    2c7c:	28 ec       	ldi	r18, 0xC8	; 200
    2c7e:	30 e0       	ldi	r19, 0x00	; 0
    2c80:	f9 01       	movw	r30, r18
    2c82:	31 97       	sbiw	r30, 0x01	; 1
    2c84:	f1 f7       	brne	.-4      	; 0x2c82 <main+0x70>
    2c86:	01 97       	sbiw	r24, 0x01	; 1
    2c88:	d9 f7       	brne	.-10     	; 0x2c80 <main+0x6e>
    2c8a:	8d e5       	ldi	r24, 0x5D	; 93
    2c8c:	91 e0       	ldi	r25, 0x01	; 1
    2c8e:	6d e7       	ldi	r22, 0x7D	; 125
    2c90:	70 e0       	ldi	r23, 0x00	; 0
    2c92:	41 e0       	ldi	r20, 0x01	; 1
    2c94:	0e 94 34 06 	call	0xc68	; 0xc68 <f_mount>
    2c98:	f8 2e       	mov	r15, r24
    2c9a:	88 23       	and	r24, r24
    2c9c:	09 f4       	brne	.+2      	; 0x2ca0 <main+0x8e>
    2c9e:	40 c0       	rjmp	.+128    	; 0x2d20 <main+0x10e>
    2ca0:	8e 01       	movw	r16, r28
    2ca2:	03 5f       	subi	r16, 0xF3	; 243
    2ca4:	1f 4f       	sbci	r17, 0xFF	; 255
    2ca6:	5c e8       	ldi	r21, 0x8C	; 140
    2ca8:	a5 2e       	mov	r10, r21
    2caa:	50 e0       	ldi	r21, 0x00	; 0
    2cac:	b5 2e       	mov	r11, r21
    2cae:	48 ec       	ldi	r20, 0xC8	; 200
    2cb0:	c4 2e       	mov	r12, r20
    2cb2:	d1 2c       	mov	r13, r1
    2cb4:	0e 94 8f 00 	call	0x11e	; 0x11e <LCD_Clear>
    2cb8:	80 e0       	ldi	r24, 0x00	; 0
    2cba:	60 e0       	ldi	r22, 0x00	; 0
    2cbc:	0e 94 85 00 	call	0x10a	; 0x10a <LCD_GoTo>
    2cc0:	8e e7       	ldi	r24, 0x7E	; 126
    2cc2:	90 e0       	ldi	r25, 0x00	; 0
    2cc4:	0e 94 78 00 	call	0xf0	; 0xf0 <LCD_WriteText>
    2cc8:	00 d0       	rcall	.+0      	; 0x2cca <main+0xb8>
    2cca:	00 d0       	rcall	.+0      	; 0x2ccc <main+0xba>
    2ccc:	00 d0       	rcall	.+0      	; 0x2cce <main+0xbc>
    2cce:	ed b7       	in	r30, 0x3d	; 61
    2cd0:	fe b7       	in	r31, 0x3e	; 62
    2cd2:	31 96       	adiw	r30, 0x01	; 1
    2cd4:	ad b7       	in	r26, 0x3d	; 61
    2cd6:	be b7       	in	r27, 0x3e	; 62
    2cd8:	12 96       	adiw	r26, 0x02	; 2
    2cda:	1c 93       	st	X, r17
    2cdc:	0e 93       	st	-X, r16
    2cde:	11 97       	sbiw	r26, 0x01	; 1
    2ce0:	b3 82       	std	Z+3, r11	; 0x03
    2ce2:	a2 82       	std	Z+2, r10	; 0x02
    2ce4:	f4 82       	std	Z+4, r15	; 0x04
    2ce6:	15 82       	std	Z+5, r1	; 0x05
    2ce8:	0e 94 bf 1d 	call	0x3b7e	; 0x3b7e <sprintf>
    2cec:	8d b7       	in	r24, 0x3d	; 61
    2cee:	9e b7       	in	r25, 0x3e	; 62
    2cf0:	06 96       	adiw	r24, 0x06	; 6
    2cf2:	0f b6       	in	r0, 0x3f	; 63
    2cf4:	f8 94       	cli
    2cf6:	9e bf       	out	0x3e, r25	; 62
    2cf8:	0f be       	out	0x3f, r0	; 63
    2cfa:	8d bf       	out	0x3d, r24	; 61
    2cfc:	80 e0       	ldi	r24, 0x00	; 0
    2cfe:	61 e0       	ldi	r22, 0x01	; 1
    2d00:	0e 94 85 00 	call	0x10a	; 0x10a <LCD_GoTo>
    2d04:	c8 01       	movw	r24, r16
    2d06:	0e 94 78 00 	call	0xf0	; 0xf0 <LCD_WriteText>
    2d0a:	80 e4       	ldi	r24, 0x40	; 64
    2d0c:	9c e9       	ldi	r25, 0x9C	; 156
    2d0e:	f6 01       	movw	r30, r12
    2d10:	31 97       	sbiw	r30, 0x01	; 1
    2d12:	f1 f7       	brne	.-4      	; 0x2d10 <main+0xfe>
    2d14:	01 97       	sbiw	r24, 0x01	; 1
    2d16:	d9 f7       	brne	.-10     	; 0x2d0e <main+0xfc>
    2d18:	80 e0       	ldi	r24, 0x00	; 0
    2d1a:	0e 94 06 01 	call	0x20c	; 0x20c <disk_initialize>
    2d1e:	ca cf       	rjmp	.-108    	; 0x2cb4 <main+0xa2>
    2d20:	00 e0       	ldi	r16, 0x00	; 0
    2d22:	10 e0       	ldi	r17, 0x00	; 0
    2d24:	6e 01       	movw	r12, r28
    2d26:	08 94       	sec
    2d28:	c1 1c       	adc	r12, r1
    2d2a:	d1 1c       	adc	r13, r1
    2d2c:	39 e9       	ldi	r19, 0x99	; 153
    2d2e:	a3 2e       	mov	r10, r19
    2d30:	30 e0       	ldi	r19, 0x00	; 0
    2d32:	b3 2e       	mov	r11, r19
    2d34:	00 d0       	rcall	.+0      	; 0x2d36 <main+0x124>
    2d36:	00 d0       	rcall	.+0      	; 0x2d38 <main+0x126>
    2d38:	00 d0       	rcall	.+0      	; 0x2d3a <main+0x128>
    2d3a:	ed b7       	in	r30, 0x3d	; 61
    2d3c:	fe b7       	in	r31, 0x3e	; 62
    2d3e:	31 96       	adiw	r30, 0x01	; 1
    2d40:	ad b7       	in	r26, 0x3d	; 61
    2d42:	be b7       	in	r27, 0x3e	; 62
    2d44:	12 96       	adiw	r26, 0x02	; 2
    2d46:	dc 92       	st	X, r13
    2d48:	ce 92       	st	-X, r12
    2d4a:	11 97       	sbiw	r26, 0x01	; 1
    2d4c:	b3 82       	std	Z+3, r11	; 0x03
    2d4e:	a2 82       	std	Z+2, r10	; 0x02
    2d50:	15 83       	std	Z+5, r17	; 0x05
    2d52:	04 83       	std	Z+4, r16	; 0x04
    2d54:	0e 94 bf 1d 	call	0x3b7e	; 0x3b7e <sprintf>
    2d58:	8d b7       	in	r24, 0x3d	; 61
    2d5a:	9e b7       	in	r25, 0x3e	; 62
    2d5c:	06 96       	adiw	r24, 0x06	; 6
    2d5e:	0f b6       	in	r0, 0x3f	; 63
    2d60:	f8 94       	cli
    2d62:	9e bf       	out	0x3e, r25	; 62
    2d64:	0f be       	out	0x3f, r0	; 63
    2d66:	8d bf       	out	0x3d, r24	; 61
    2d68:	8a ea       	ldi	r24, 0xAA	; 170
    2d6a:	93 e0       	ldi	r25, 0x03	; 3
    2d6c:	b6 01       	movw	r22, r12
    2d6e:	46 e0       	ldi	r20, 0x06	; 6
    2d70:	0e 94 1c 13 	call	0x2638	; 0x2638 <f_open>
    2d74:	f8 2e       	mov	r15, r24
    2d76:	8a ea       	ldi	r24, 0xAA	; 170
    2d78:	93 e0       	ldi	r25, 0x03	; 3
    2d7a:	0e 94 5d 0e 	call	0x1cba	; 0x1cba <f_sync>
    2d7e:	0f 5f       	subi	r16, 0xFF	; 255
    2d80:	1f 4f       	sbci	r17, 0xFF	; 255
    2d82:	0a 30       	cpi	r16, 0x0A	; 10
    2d84:	11 05       	cpc	r17, r1
    2d86:	94 f0       	brlt	.+36     	; 0x2dac <main+0x19a>
    2d88:	0e 94 8f 00 	call	0x11e	; 0x11e <LCD_Clear>
    2d8c:	80 e0       	ldi	r24, 0x00	; 0
    2d8e:	60 e0       	ldi	r22, 0x00	; 0
    2d90:	0e 94 85 00 	call	0x10a	; 0x10a <LCD_GoTo>
    2d94:	86 ea       	ldi	r24, 0xA6	; 166
    2d96:	90 e0       	ldi	r25, 0x00	; 0
    2d98:	0e 94 78 00 	call	0xf0	; 0xf0 <LCD_WriteText>
    2d9c:	80 e0       	ldi	r24, 0x00	; 0
    2d9e:	61 e0       	ldi	r22, 0x01	; 1
    2da0:	0e 94 85 00 	call	0x10a	; 0x10a <LCD_GoTo>
    2da4:	81 eb       	ldi	r24, 0xB1	; 177
    2da6:	90 e0       	ldi	r25, 0x00	; 0
    2da8:	0e 94 78 00 	call	0xf0	; 0xf0 <LCD_WriteText>
    2dac:	ff 20       	and	r15, r15
    2dae:	11 f6       	brne	.-124    	; 0x2d34 <main+0x122>
    2db0:	8a ea       	ldi	r24, 0xAA	; 170
    2db2:	93 e0       	ldi	r25, 0x03	; 3
    2db4:	0e 94 5d 0e 	call	0x1cba	; 0x1cba <f_sync>
    2db8:	00 e0       	ldi	r16, 0x00	; 0
    2dba:	10 e0       	ldi	r17, 0x00	; 0
    2dbc:	21 e2       	ldi	r18, 0x21	; 33
    2dbe:	e2 2e       	mov	r14, r18
    2dc0:	f1 2c       	mov	r15, r1
    2dc2:	ec 0e       	add	r14, r28
    2dc4:	fd 1e       	adc	r15, r29
    2dc6:	9a eb       	ldi	r25, 0xBA	; 186
    2dc8:	a9 2e       	mov	r10, r25
    2dca:	90 e0       	ldi	r25, 0x00	; 0
    2dcc:	b9 2e       	mov	r11, r25
    2dce:	80 e4       	ldi	r24, 0x40	; 64
    2dd0:	c8 2e       	mov	r12, r24
    2dd2:	8c e9       	ldi	r24, 0x9C	; 156
    2dd4:	d8 2e       	mov	r13, r24
    2dd6:	00 d0       	rcall	.+0      	; 0x2dd8 <main+0x1c6>
    2dd8:	00 d0       	rcall	.+0      	; 0x2dda <main+0x1c8>
    2dda:	00 d0       	rcall	.+0      	; 0x2ddc <main+0x1ca>
    2ddc:	ed b7       	in	r30, 0x3d	; 61
    2dde:	fe b7       	in	r31, 0x3e	; 62
    2de0:	31 96       	adiw	r30, 0x01	; 1
    2de2:	ad b7       	in	r26, 0x3d	; 61
    2de4:	be b7       	in	r27, 0x3e	; 62
    2de6:	12 96       	adiw	r26, 0x02	; 2
    2de8:	fc 92       	st	X, r15
    2dea:	ee 92       	st	-X, r14
    2dec:	11 97       	sbiw	r26, 0x01	; 1
    2dee:	b3 82       	std	Z+3, r11	; 0x03
    2df0:	a2 82       	std	Z+2, r10	; 0x02
    2df2:	15 83       	std	Z+5, r17	; 0x05
    2df4:	04 83       	std	Z+4, r16	; 0x04
    2df6:	0e 94 bf 1d 	call	0x3b7e	; 0x3b7e <sprintf>
    2dfa:	f7 01       	movw	r30, r14
    2dfc:	01 90       	ld	r0, Z+
    2dfe:	00 20       	and	r0, r0
    2e00:	e9 f7       	brne	.-6      	; 0x2dfc <main+0x1ea>
    2e02:	31 97       	sbiw	r30, 0x01	; 1
    2e04:	ee 19       	sub	r30, r14
    2e06:	ff 09       	sbc	r31, r15
    2e08:	8d b7       	in	r24, 0x3d	; 61
    2e0a:	9e b7       	in	r25, 0x3e	; 62
    2e0c:	06 96       	adiw	r24, 0x06	; 6
    2e0e:	0f b6       	in	r0, 0x3f	; 63
    2e10:	f8 94       	cli
    2e12:	9e bf       	out	0x3e, r25	; 62
    2e14:	0f be       	out	0x3f, r0	; 63
    2e16:	8d bf       	out	0x3d, r24	; 61
    2e18:	8a ea       	ldi	r24, 0xAA	; 170
    2e1a:	93 e0       	ldi	r25, 0x03	; 3
    2e1c:	b7 01       	movw	r22, r14
    2e1e:	af 01       	movw	r20, r30
    2e20:	28 ea       	ldi	r18, 0xA8	; 168
    2e22:	33 e0       	ldi	r19, 0x03	; 3
    2e24:	0e 94 70 0f 	call	0x1ee0	; 0x1ee0 <f_write>
    2e28:	8a ea       	ldi	r24, 0xAA	; 170
    2e2a:	93 e0       	ldi	r25, 0x03	; 3
    2e2c:	0e 94 5d 0e 	call	0x1cba	; 0x1cba <f_sync>
    2e30:	c6 01       	movw	r24, r12
    2e32:	01 97       	sbiw	r24, 0x01	; 1
    2e34:	f1 f7       	brne	.-4      	; 0x2e32 <main+0x220>
    2e36:	0f 5f       	subi	r16, 0xFF	; 255
    2e38:	1f 4f       	sbci	r17, 0xFF	; 255
    2e3a:	0b 30       	cpi	r16, 0x0B	; 11
    2e3c:	11 05       	cpc	r17, r1
    2e3e:	59 f6       	brne	.-106    	; 0x2dd6 <main+0x1c4>
    2e40:	8a ea       	ldi	r24, 0xAA	; 170
    2e42:	93 e0       	ldi	r25, 0x03	; 3
    2e44:	0e 94 52 0f 	call	0x1ea4	; 0x1ea4 <f_close>
    2e48:	0e 94 8f 00 	call	0x11e	; 0x11e <LCD_Clear>
    2e4c:	80 e0       	ldi	r24, 0x00	; 0
    2e4e:	60 e0       	ldi	r22, 0x00	; 0
    2e50:	0e 94 85 00 	call	0x10a	; 0x10a <LCD_GoTo>
    2e54:	85 ec       	ldi	r24, 0xC5	; 197
    2e56:	90 e0       	ldi	r25, 0x00	; 0
    2e58:	0e 94 78 00 	call	0xf0	; 0xf0 <LCD_WriteText>
    2e5c:	80 e0       	ldi	r24, 0x00	; 0
    2e5e:	90 e0       	ldi	r25, 0x00	; 0
    2e60:	e4 96       	adiw	r28, 0x34	; 52
    2e62:	0f b6       	in	r0, 0x3f	; 63
    2e64:	f8 94       	cli
    2e66:	de bf       	out	0x3e, r29	; 62
    2e68:	0f be       	out	0x3f, r0	; 63
    2e6a:	cd bf       	out	0x3d, r28	; 61
    2e6c:	cf 91       	pop	r28
    2e6e:	df 91       	pop	r29
    2e70:	1f 91       	pop	r17
    2e72:	0f 91       	pop	r16
    2e74:	ff 90       	pop	r15
    2e76:	ef 90       	pop	r14
    2e78:	df 90       	pop	r13
    2e7a:	cf 90       	pop	r12
    2e7c:	bf 90       	pop	r11
    2e7e:	af 90       	pop	r10
    2e80:	08 95       	ret

00002e82 <wait_ready>:
    2e82:	6a e0       	ldi	r22, 0x0A	; 10
    2e84:	70 e0       	ldi	r23, 0x00	; 0
    2e86:	0e 94 5a 1d 	call	0x3ab4	; 0x3ab4 <__udivmodhi4>
    2e8a:	70 93 5b 01 	sts	0x015B, r23
    2e8e:	60 93 5a 01 	sts	0x015A, r22
    2e92:	2f ef       	ldi	r18, 0xFF	; 255
    2e94:	2f b9       	out	0x0f, r18	; 15
    2e96:	77 9b       	sbis	0x0e, 7	; 14
    2e98:	fe cf       	rjmp	.-4      	; 0x2e96 <wait_ready+0x14>
    2e9a:	4f b1       	in	r20, 0x0f	; 15
    2e9c:	4f 3f       	cpi	r20, 0xFF	; 255
    2e9e:	31 f0       	breq	.+12     	; 0x2eac <wait_ready+0x2a>
    2ea0:	80 91 5a 01 	lds	r24, 0x015A
    2ea4:	90 91 5b 01 	lds	r25, 0x015B
    2ea8:	89 2b       	or	r24, r25
    2eaa:	a1 f7       	brne	.-24     	; 0x2e94 <wait_ready+0x12>
    2eac:	20 e0       	ldi	r18, 0x00	; 0
    2eae:	30 e0       	ldi	r19, 0x00	; 0
    2eb0:	4f 3f       	cpi	r20, 0xFF	; 255
    2eb2:	11 f4       	brne	.+4      	; 0x2eb8 <wait_ready+0x36>
    2eb4:	21 e0       	ldi	r18, 0x01	; 1
    2eb6:	30 e0       	ldi	r19, 0x00	; 0
    2eb8:	c9 01       	movw	r24, r18
    2eba:	08 95       	ret

00002ebc <select>:
    2ebc:	c4 98       	cbi	0x18, 4	; 24
    2ebe:	8f ef       	ldi	r24, 0xFF	; 255
    2ec0:	8f b9       	out	0x0f, r24	; 15
    2ec2:	77 9b       	sbis	0x0e, 7	; 14
    2ec4:	fe cf       	rjmp	.-4      	; 0x2ec2 <select+0x6>
    2ec6:	8f b1       	in	r24, 0x0f	; 15
    2ec8:	84 ef       	ldi	r24, 0xF4	; 244
    2eca:	91 e0       	ldi	r25, 0x01	; 1
    2ecc:	0e 94 41 17 	call	0x2e82	; 0x2e82 <wait_ready>
    2ed0:	89 2b       	or	r24, r25
    2ed2:	19 f0       	breq	.+6      	; 0x2eda <select+0x1e>
    2ed4:	21 e0       	ldi	r18, 0x01	; 1
    2ed6:	30 e0       	ldi	r19, 0x00	; 0
    2ed8:	08 c0       	rjmp	.+16     	; 0x2eea <select+0x2e>
    2eda:	c4 9a       	sbi	0x18, 4	; 24
    2edc:	8f ef       	ldi	r24, 0xFF	; 255
    2ede:	8f b9       	out	0x0f, r24	; 15
    2ee0:	77 9b       	sbis	0x0e, 7	; 14
    2ee2:	fe cf       	rjmp	.-4      	; 0x2ee0 <select+0x24>
    2ee4:	8f b1       	in	r24, 0x0f	; 15
    2ee6:	20 e0       	ldi	r18, 0x00	; 0
    2ee8:	30 e0       	ldi	r19, 0x00	; 0
    2eea:	c9 01       	movw	r24, r18
    2eec:	08 95       	ret

00002eee <rcvr_datablock>:
    2eee:	fc 01       	movw	r30, r24
    2ef0:	84 e1       	ldi	r24, 0x14	; 20
    2ef2:	80 93 59 01 	sts	0x0159, r24
    2ef6:	9f ef       	ldi	r25, 0xFF	; 255
    2ef8:	9f b9       	out	0x0f, r25	; 15
    2efa:	77 9b       	sbis	0x0e, 7	; 14
    2efc:	fe cf       	rjmp	.-4      	; 0x2efa <rcvr_datablock+0xc>
    2efe:	8f b1       	in	r24, 0x0f	; 15
    2f00:	8f 3f       	cpi	r24, 0xFF	; 255
    2f02:	29 f4       	brne	.+10     	; 0x2f0e <rcvr_datablock+0x20>
    2f04:	80 91 59 01 	lds	r24, 0x0159
    2f08:	88 23       	and	r24, r24
    2f0a:	b1 f7       	brne	.-20     	; 0x2ef8 <rcvr_datablock+0xa>
    2f0c:	1f c0       	rjmp	.+62     	; 0x2f4c <rcvr_datablock+0x5e>
    2f0e:	8e 3f       	cpi	r24, 0xFE	; 254
    2f10:	e9 f4       	brne	.+58     	; 0x2f4c <rcvr_datablock+0x5e>
    2f12:	9f ef       	ldi	r25, 0xFF	; 255
    2f14:	9f b9       	out	0x0f, r25	; 15
    2f16:	77 9b       	sbis	0x0e, 7	; 14
    2f18:	fe cf       	rjmp	.-4      	; 0x2f16 <rcvr_datablock+0x28>
    2f1a:	8f b1       	in	r24, 0x0f	; 15
    2f1c:	80 83       	st	Z, r24
    2f1e:	9f b9       	out	0x0f, r25	; 15
    2f20:	77 9b       	sbis	0x0e, 7	; 14
    2f22:	fe cf       	rjmp	.-4      	; 0x2f20 <rcvr_datablock+0x32>
    2f24:	8f b1       	in	r24, 0x0f	; 15
    2f26:	81 83       	std	Z+1, r24	; 0x01
    2f28:	62 50       	subi	r22, 0x02	; 2
    2f2a:	70 40       	sbci	r23, 0x00	; 0
    2f2c:	11 f0       	breq	.+4      	; 0x2f32 <rcvr_datablock+0x44>
    2f2e:	32 96       	adiw	r30, 0x02	; 2
    2f30:	f1 cf       	rjmp	.-30     	; 0x2f14 <rcvr_datablock+0x26>
    2f32:	8f ef       	ldi	r24, 0xFF	; 255
    2f34:	8f b9       	out	0x0f, r24	; 15
    2f36:	77 9b       	sbis	0x0e, 7	; 14
    2f38:	fe cf       	rjmp	.-4      	; 0x2f36 <rcvr_datablock+0x48>
    2f3a:	8f b1       	in	r24, 0x0f	; 15
    2f3c:	8f ef       	ldi	r24, 0xFF	; 255
    2f3e:	8f b9       	out	0x0f, r24	; 15
    2f40:	77 9b       	sbis	0x0e, 7	; 14
    2f42:	fe cf       	rjmp	.-4      	; 0x2f40 <rcvr_datablock+0x52>
    2f44:	8f b1       	in	r24, 0x0f	; 15
    2f46:	21 e0       	ldi	r18, 0x01	; 1
    2f48:	30 e0       	ldi	r19, 0x00	; 0
    2f4a:	02 c0       	rjmp	.+4      	; 0x2f50 <rcvr_datablock+0x62>
    2f4c:	20 e0       	ldi	r18, 0x00	; 0
    2f4e:	30 e0       	ldi	r19, 0x00	; 0
    2f50:	c9 01       	movw	r24, r18
    2f52:	08 95       	ret

00002f54 <xmit_datablock>:
    2f54:	1f 93       	push	r17
    2f56:	cf 93       	push	r28
    2f58:	df 93       	push	r29
    2f5a:	ec 01       	movw	r28, r24
    2f5c:	16 2f       	mov	r17, r22
    2f5e:	84 ef       	ldi	r24, 0xF4	; 244
    2f60:	91 e0       	ldi	r25, 0x01	; 1
    2f62:	0e 94 41 17 	call	0x2e82	; 0x2e82 <wait_ready>
    2f66:	89 2b       	or	r24, r25
    2f68:	19 f4       	brne	.+6      	; 0x2f70 <xmit_datablock+0x1c>
    2f6a:	20 e0       	ldi	r18, 0x00	; 0
    2f6c:	30 e0       	ldi	r19, 0x00	; 0
    2f6e:	2b c0       	rjmp	.+86     	; 0x2fc6 <xmit_datablock+0x72>
    2f70:	1f b9       	out	0x0f, r17	; 15
    2f72:	77 9b       	sbis	0x0e, 7	; 14
    2f74:	fe cf       	rjmp	.-4      	; 0x2f72 <xmit_datablock+0x1e>
    2f76:	8f b1       	in	r24, 0x0f	; 15
    2f78:	1d 3f       	cpi	r17, 0xFD	; 253
    2f7a:	19 f1       	breq	.+70     	; 0x2fc2 <xmit_datablock+0x6e>
    2f7c:	20 e0       	ldi	r18, 0x00	; 0
    2f7e:	32 e0       	ldi	r19, 0x02	; 2
    2f80:	88 81       	ld	r24, Y
    2f82:	8f b9       	out	0x0f, r24	; 15
    2f84:	77 9b       	sbis	0x0e, 7	; 14
    2f86:	fe cf       	rjmp	.-4      	; 0x2f84 <xmit_datablock+0x30>
    2f88:	89 81       	ldd	r24, Y+1	; 0x01
    2f8a:	8f b9       	out	0x0f, r24	; 15
    2f8c:	77 9b       	sbis	0x0e, 7	; 14
    2f8e:	fe cf       	rjmp	.-4      	; 0x2f8c <xmit_datablock+0x38>
    2f90:	22 50       	subi	r18, 0x02	; 2
    2f92:	30 40       	sbci	r19, 0x00	; 0
    2f94:	11 f0       	breq	.+4      	; 0x2f9a <xmit_datablock+0x46>
    2f96:	22 96       	adiw	r28, 0x02	; 2
    2f98:	f3 cf       	rjmp	.-26     	; 0x2f80 <xmit_datablock+0x2c>
    2f9a:	8f ef       	ldi	r24, 0xFF	; 255
    2f9c:	8f b9       	out	0x0f, r24	; 15
    2f9e:	77 9b       	sbis	0x0e, 7	; 14
    2fa0:	fe cf       	rjmp	.-4      	; 0x2f9e <xmit_datablock+0x4a>
    2fa2:	8f b1       	in	r24, 0x0f	; 15
    2fa4:	8f ef       	ldi	r24, 0xFF	; 255
    2fa6:	8f b9       	out	0x0f, r24	; 15
    2fa8:	77 9b       	sbis	0x0e, 7	; 14
    2faa:	fe cf       	rjmp	.-4      	; 0x2fa8 <xmit_datablock+0x54>
    2fac:	8f b1       	in	r24, 0x0f	; 15
    2fae:	8f ef       	ldi	r24, 0xFF	; 255
    2fb0:	8f b9       	out	0x0f, r24	; 15
    2fb2:	77 9b       	sbis	0x0e, 7	; 14
    2fb4:	fe cf       	rjmp	.-4      	; 0x2fb2 <xmit_datablock+0x5e>
    2fb6:	8f b1       	in	r24, 0x0f	; 15
    2fb8:	20 e0       	ldi	r18, 0x00	; 0
    2fba:	30 e0       	ldi	r19, 0x00	; 0
    2fbc:	8f 71       	andi	r24, 0x1F	; 31
    2fbe:	85 30       	cpi	r24, 0x05	; 5
    2fc0:	11 f4       	brne	.+4      	; 0x2fc6 <xmit_datablock+0x72>
    2fc2:	21 e0       	ldi	r18, 0x01	; 1
    2fc4:	30 e0       	ldi	r19, 0x00	; 0
    2fc6:	c9 01       	movw	r24, r18
    2fc8:	df 91       	pop	r29
    2fca:	cf 91       	pop	r28
    2fcc:	1f 91       	pop	r17
    2fce:	08 95       	ret

00002fd0 <send_cmd>:
    2fd0:	df 92       	push	r13
    2fd2:	ef 92       	push	r14
    2fd4:	ff 92       	push	r15
    2fd6:	0f 93       	push	r16
    2fd8:	1f 93       	push	r17
    2fda:	d8 2e       	mov	r13, r24
    2fdc:	7a 01       	movw	r14, r20
    2fde:	8b 01       	movw	r16, r22
    2fe0:	87 ff       	sbrs	r24, 7
    2fe2:	0c c0       	rjmp	.+24     	; 0x2ffc <send_cmd+0x2c>
    2fe4:	87 e3       	ldi	r24, 0x37	; 55
    2fe6:	40 e0       	ldi	r20, 0x00	; 0
    2fe8:	50 e0       	ldi	r21, 0x00	; 0
    2fea:	60 e0       	ldi	r22, 0x00	; 0
    2fec:	70 e0       	ldi	r23, 0x00	; 0
    2fee:	0e 94 e8 17 	call	0x2fd0	; 0x2fd0 <send_cmd>
    2ff2:	82 30       	cpi	r24, 0x02	; 2
    2ff4:	08 f0       	brcs	.+2      	; 0x2ff8 <send_cmd+0x28>
    2ff6:	52 c0       	rjmp	.+164    	; 0x309c <send_cmd+0xcc>
    2ff8:	8f e7       	ldi	r24, 0x7F	; 127
    2ffa:	d8 22       	and	r13, r24
    2ffc:	8c e0       	ldi	r24, 0x0C	; 12
    2ffe:	d8 16       	cp	r13, r24
    3000:	61 f0       	breq	.+24     	; 0x301a <send_cmd+0x4a>
    3002:	c4 9a       	sbi	0x18, 4	; 24
    3004:	8f ef       	ldi	r24, 0xFF	; 255
    3006:	8f b9       	out	0x0f, r24	; 15
    3008:	77 9b       	sbis	0x0e, 7	; 14
    300a:	fe cf       	rjmp	.-4      	; 0x3008 <send_cmd+0x38>
    300c:	8f b1       	in	r24, 0x0f	; 15
    300e:	0e 94 5e 17 	call	0x2ebc	; 0x2ebc <select>
    3012:	89 2b       	or	r24, r25
    3014:	11 f4       	brne	.+4      	; 0x301a <send_cmd+0x4a>
    3016:	8f ef       	ldi	r24, 0xFF	; 255
    3018:	41 c0       	rjmp	.+130    	; 0x309c <send_cmd+0xcc>
    301a:	8d 2d       	mov	r24, r13
    301c:	80 64       	ori	r24, 0x40	; 64
    301e:	8f b9       	out	0x0f, r24	; 15
    3020:	77 9b       	sbis	0x0e, 7	; 14
    3022:	fe cf       	rjmp	.-4      	; 0x3020 <send_cmd+0x50>
    3024:	8f b1       	in	r24, 0x0f	; 15
    3026:	81 2f       	mov	r24, r17
    3028:	99 27       	eor	r25, r25
    302a:	aa 27       	eor	r26, r26
    302c:	bb 27       	eor	r27, r27
    302e:	8f b9       	out	0x0f, r24	; 15
    3030:	77 9b       	sbis	0x0e, 7	; 14
    3032:	fe cf       	rjmp	.-4      	; 0x3030 <send_cmd+0x60>
    3034:	8f b1       	in	r24, 0x0f	; 15
    3036:	c8 01       	movw	r24, r16
    3038:	aa 27       	eor	r26, r26
    303a:	bb 27       	eor	r27, r27
    303c:	8f b9       	out	0x0f, r24	; 15
    303e:	77 9b       	sbis	0x0e, 7	; 14
    3040:	fe cf       	rjmp	.-4      	; 0x303e <send_cmd+0x6e>
    3042:	8f b1       	in	r24, 0x0f	; 15
    3044:	bb 27       	eor	r27, r27
    3046:	a1 2f       	mov	r26, r17
    3048:	90 2f       	mov	r25, r16
    304a:	8f 2d       	mov	r24, r15
    304c:	8f b9       	out	0x0f, r24	; 15
    304e:	77 9b       	sbis	0x0e, 7	; 14
    3050:	fe cf       	rjmp	.-4      	; 0x304e <send_cmd+0x7e>
    3052:	8f b1       	in	r24, 0x0f	; 15
    3054:	ef b8       	out	0x0f, r14	; 15
    3056:	77 9b       	sbis	0x0e, 7	; 14
    3058:	fe cf       	rjmp	.-4      	; 0x3056 <send_cmd+0x86>
    305a:	8f b1       	in	r24, 0x0f	; 15
    305c:	dd 20       	and	r13, r13
    305e:	11 f4       	brne	.+4      	; 0x3064 <send_cmd+0x94>
    3060:	85 e9       	ldi	r24, 0x95	; 149
    3062:	06 c0       	rjmp	.+12     	; 0x3070 <send_cmd+0xa0>
    3064:	88 e0       	ldi	r24, 0x08	; 8
    3066:	d8 16       	cp	r13, r24
    3068:	11 f4       	brne	.+4      	; 0x306e <send_cmd+0x9e>
    306a:	87 e8       	ldi	r24, 0x87	; 135
    306c:	01 c0       	rjmp	.+2      	; 0x3070 <send_cmd+0xa0>
    306e:	81 e0       	ldi	r24, 0x01	; 1
    3070:	8f b9       	out	0x0f, r24	; 15
    3072:	77 9b       	sbis	0x0e, 7	; 14
    3074:	fe cf       	rjmp	.-4      	; 0x3072 <send_cmd+0xa2>
    3076:	8f b1       	in	r24, 0x0f	; 15
    3078:	8c e0       	ldi	r24, 0x0C	; 12
    307a:	d8 16       	cp	r13, r24
    307c:	29 f4       	brne	.+10     	; 0x3088 <send_cmd+0xb8>
    307e:	8f ef       	ldi	r24, 0xFF	; 255
    3080:	8f b9       	out	0x0f, r24	; 15
    3082:	77 9b       	sbis	0x0e, 7	; 14
    3084:	fe cf       	rjmp	.-4      	; 0x3082 <send_cmd+0xb2>
    3086:	8f b1       	in	r24, 0x0f	; 15
    3088:	9a e0       	ldi	r25, 0x0A	; 10
    308a:	2f ef       	ldi	r18, 0xFF	; 255
    308c:	2f b9       	out	0x0f, r18	; 15
    308e:	77 9b       	sbis	0x0e, 7	; 14
    3090:	fe cf       	rjmp	.-4      	; 0x308e <send_cmd+0xbe>
    3092:	8f b1       	in	r24, 0x0f	; 15
    3094:	87 ff       	sbrs	r24, 7
    3096:	02 c0       	rjmp	.+4      	; 0x309c <send_cmd+0xcc>
    3098:	91 50       	subi	r25, 0x01	; 1
    309a:	c1 f7       	brne	.-16     	; 0x308c <send_cmd+0xbc>
    309c:	1f 91       	pop	r17
    309e:	0f 91       	pop	r16
    30a0:	ff 90       	pop	r15
    30a2:	ef 90       	pop	r14
    30a4:	df 90       	pop	r13
    30a6:	08 95       	ret

000030a8 <mmc_disk_initialize>:
    30a8:	ef 92       	push	r14
    30aa:	ff 92       	push	r15
    30ac:	0f 93       	push	r16
    30ae:	1f 93       	push	r17
    30b0:	df 93       	push	r29
    30b2:	cf 93       	push	r28
    30b4:	00 d0       	rcall	.+0      	; 0x30b6 <mmc_disk_initialize+0xe>
    30b6:	00 d0       	rcall	.+0      	; 0x30b8 <mmc_disk_initialize+0x10>
    30b8:	cd b7       	in	r28, 0x3d	; 61
    30ba:	de b7       	in	r29, 0x3e	; 62
    30bc:	1d b8       	out	0x0d, r1	; 13
    30be:	87 b3       	in	r24, 0x17	; 23
    30c0:	8f 74       	andi	r24, 0x4F	; 79
    30c2:	87 bb       	out	0x17, r24	; 23
    30c4:	88 b3       	in	r24, 0x18	; 24
    30c6:	8f 74       	andi	r24, 0x4F	; 79
    30c8:	88 bb       	out	0x18, r24	; 24
    30ca:	88 b3       	in	r24, 0x18	; 24
    30cc:	8c 60       	ori	r24, 0x0C	; 12
    30ce:	88 bb       	out	0x18, r24	; 24
    30d0:	8a e0       	ldi	r24, 0x0A	; 10
    30d2:	80 93 59 01 	sts	0x0159, r24
    30d6:	80 91 59 01 	lds	r24, 0x0159
    30da:	88 23       	and	r24, r24
    30dc:	e1 f7       	brne	.-8      	; 0x30d6 <mmc_disk_initialize+0x2e>
    30de:	80 91 d0 00 	lds	r24, 0x00D0
    30e2:	81 fd       	sbrc	r24, 1
    30e4:	b5 c0       	rjmp	.+362    	; 0x3250 <mmc_disk_initialize+0x1a8>
    30e6:	88 b3       	in	r24, 0x18	; 24
    30e8:	80 63       	ori	r24, 0x30	; 48
    30ea:	88 bb       	out	0x18, r24	; 24
    30ec:	87 b3       	in	r24, 0x17	; 23
    30ee:	80 6b       	ori	r24, 0xB0	; 176
    30f0:	87 bb       	out	0x17, r24	; 23
    30f2:	92 e5       	ldi	r25, 0x52	; 82
    30f4:	9d b9       	out	0x0d, r25	; 13
    30f6:	81 e0       	ldi	r24, 0x01	; 1
    30f8:	8e b9       	out	0x0e, r24	; 14
    30fa:	9d b9       	out	0x0d, r25	; 13
    30fc:	8a e0       	ldi	r24, 0x0A	; 10
    30fe:	9f ef       	ldi	r25, 0xFF	; 255
    3100:	9f b9       	out	0x0f, r25	; 15
    3102:	77 9b       	sbis	0x0e, 7	; 14
    3104:	fe cf       	rjmp	.-4      	; 0x3102 <mmc_disk_initialize+0x5a>
    3106:	2f b1       	in	r18, 0x0f	; 15
    3108:	81 50       	subi	r24, 0x01	; 1
    310a:	d1 f7       	brne	.-12     	; 0x3100 <mmc_disk_initialize+0x58>
    310c:	40 e0       	ldi	r20, 0x00	; 0
    310e:	50 e0       	ldi	r21, 0x00	; 0
    3110:	60 e0       	ldi	r22, 0x00	; 0
    3112:	70 e0       	ldi	r23, 0x00	; 0
    3114:	0e 94 e8 17 	call	0x2fd0	; 0x2fd0 <send_cmd>
    3118:	81 30       	cpi	r24, 0x01	; 1
    311a:	09 f0       	breq	.+2      	; 0x311e <mmc_disk_initialize+0x76>
    311c:	7c c0       	rjmp	.+248    	; 0x3216 <mmc_disk_initialize+0x16e>
    311e:	84 e6       	ldi	r24, 0x64	; 100
    3120:	80 93 59 01 	sts	0x0159, r24
    3124:	88 e0       	ldi	r24, 0x08	; 8
    3126:	4a ea       	ldi	r20, 0xAA	; 170
    3128:	51 e0       	ldi	r21, 0x01	; 1
    312a:	60 e0       	ldi	r22, 0x00	; 0
    312c:	70 e0       	ldi	r23, 0x00	; 0
    312e:	0e 94 e8 17 	call	0x2fd0	; 0x2fd0 <send_cmd>
    3132:	81 30       	cpi	r24, 0x01	; 1
    3134:	09 f0       	breq	.+2      	; 0x3138 <mmc_disk_initialize+0x90>
    3136:	48 c0       	rjmp	.+144    	; 0x31c8 <mmc_disk_initialize+0x120>
    3138:	7e 01       	movw	r14, r28
    313a:	08 94       	sec
    313c:	e1 1c       	adc	r14, r1
    313e:	f1 1c       	adc	r15, r1
    3140:	87 01       	movw	r16, r14
    3142:	9f ef       	ldi	r25, 0xFF	; 255
    3144:	9e 01       	movw	r18, r28
    3146:	2b 5f       	subi	r18, 0xFB	; 251
    3148:	3f 4f       	sbci	r19, 0xFF	; 255
    314a:	9f b9       	out	0x0f, r25	; 15
    314c:	77 9b       	sbis	0x0e, 7	; 14
    314e:	fe cf       	rjmp	.-4      	; 0x314c <mmc_disk_initialize+0xa4>
    3150:	8f b1       	in	r24, 0x0f	; 15
    3152:	f8 01       	movw	r30, r16
    3154:	81 93       	st	Z+, r24
    3156:	8f 01       	movw	r16, r30
    3158:	e2 17       	cp	r30, r18
    315a:	f3 07       	cpc	r31, r19
    315c:	b1 f7       	brne	.-20     	; 0x314a <mmc_disk_initialize+0xa2>
    315e:	8b 81       	ldd	r24, Y+3	; 0x03
    3160:	81 30       	cpi	r24, 0x01	; 1
    3162:	09 f0       	breq	.+2      	; 0x3166 <mmc_disk_initialize+0xbe>
    3164:	58 c0       	rjmp	.+176    	; 0x3216 <mmc_disk_initialize+0x16e>
    3166:	8c 81       	ldd	r24, Y+4	; 0x04
    3168:	8a 3a       	cpi	r24, 0xAA	; 170
    316a:	09 f0       	breq	.+2      	; 0x316e <mmc_disk_initialize+0xc6>
    316c:	54 c0       	rjmp	.+168    	; 0x3216 <mmc_disk_initialize+0x16e>
    316e:	80 91 59 01 	lds	r24, 0x0159
    3172:	88 23       	and	r24, r24
    3174:	49 f0       	breq	.+18     	; 0x3188 <mmc_disk_initialize+0xe0>
    3176:	89 ea       	ldi	r24, 0xA9	; 169
    3178:	40 e0       	ldi	r20, 0x00	; 0
    317a:	50 e0       	ldi	r21, 0x00	; 0
    317c:	60 e0       	ldi	r22, 0x00	; 0
    317e:	70 e4       	ldi	r23, 0x40	; 64
    3180:	0e 94 e8 17 	call	0x2fd0	; 0x2fd0 <send_cmd>
    3184:	88 23       	and	r24, r24
    3186:	99 f7       	brne	.-26     	; 0x316e <mmc_disk_initialize+0xc6>
    3188:	80 91 59 01 	lds	r24, 0x0159
    318c:	88 23       	and	r24, r24
    318e:	09 f4       	brne	.+2      	; 0x3192 <mmc_disk_initialize+0xea>
    3190:	42 c0       	rjmp	.+132    	; 0x3216 <mmc_disk_initialize+0x16e>
    3192:	8a e3       	ldi	r24, 0x3A	; 58
    3194:	40 e0       	ldi	r20, 0x00	; 0
    3196:	50 e0       	ldi	r21, 0x00	; 0
    3198:	60 e0       	ldi	r22, 0x00	; 0
    319a:	70 e0       	ldi	r23, 0x00	; 0
    319c:	0e 94 e8 17 	call	0x2fd0	; 0x2fd0 <send_cmd>
    31a0:	88 23       	and	r24, r24
    31a2:	c9 f5       	brne	.+114    	; 0x3216 <mmc_disk_initialize+0x16e>
    31a4:	9f ef       	ldi	r25, 0xFF	; 255
    31a6:	9f b9       	out	0x0f, r25	; 15
    31a8:	77 9b       	sbis	0x0e, 7	; 14
    31aa:	fe cf       	rjmp	.-4      	; 0x31a8 <mmc_disk_initialize+0x100>
    31ac:	8f b1       	in	r24, 0x0f	; 15
    31ae:	f7 01       	movw	r30, r14
    31b0:	81 93       	st	Z+, r24
    31b2:	7f 01       	movw	r14, r30
    31b4:	e0 17       	cp	r30, r16
    31b6:	f1 07       	cpc	r31, r17
    31b8:	b1 f7       	brne	.-20     	; 0x31a6 <mmc_disk_initialize+0xfe>
    31ba:	89 81       	ldd	r24, Y+1	; 0x01
    31bc:	86 fd       	sbrc	r24, 6
    31be:	02 c0       	rjmp	.+4      	; 0x31c4 <mmc_disk_initialize+0x11c>
    31c0:	18 e0       	ldi	r17, 0x08	; 8
    31c2:	2a c0       	rjmp	.+84     	; 0x3218 <mmc_disk_initialize+0x170>
    31c4:	18 e1       	ldi	r17, 0x18	; 24
    31c6:	28 c0       	rjmp	.+80     	; 0x3218 <mmc_disk_initialize+0x170>
    31c8:	89 ea       	ldi	r24, 0xA9	; 169
    31ca:	40 e0       	ldi	r20, 0x00	; 0
    31cc:	50 e0       	ldi	r21, 0x00	; 0
    31ce:	60 e0       	ldi	r22, 0x00	; 0
    31d0:	70 e0       	ldi	r23, 0x00	; 0
    31d2:	0e 94 e8 17 	call	0x2fd0	; 0x2fd0 <send_cmd>
    31d6:	82 30       	cpi	r24, 0x02	; 2
    31d8:	18 f0       	brcs	.+6      	; 0x31e0 <mmc_disk_initialize+0x138>
    31da:	01 e0       	ldi	r16, 0x01	; 1
    31dc:	11 e0       	ldi	r17, 0x01	; 1
    31de:	02 c0       	rjmp	.+4      	; 0x31e4 <mmc_disk_initialize+0x13c>
    31e0:	09 ea       	ldi	r16, 0xA9	; 169
    31e2:	14 e0       	ldi	r17, 0x04	; 4
    31e4:	80 91 59 01 	lds	r24, 0x0159
    31e8:	88 23       	and	r24, r24
    31ea:	49 f0       	breq	.+18     	; 0x31fe <mmc_disk_initialize+0x156>
    31ec:	80 2f       	mov	r24, r16
    31ee:	40 e0       	ldi	r20, 0x00	; 0
    31f0:	50 e0       	ldi	r21, 0x00	; 0
    31f2:	60 e0       	ldi	r22, 0x00	; 0
    31f4:	70 e0       	ldi	r23, 0x00	; 0
    31f6:	0e 94 e8 17 	call	0x2fd0	; 0x2fd0 <send_cmd>
    31fa:	88 23       	and	r24, r24
    31fc:	99 f7       	brne	.-26     	; 0x31e4 <mmc_disk_initialize+0x13c>
    31fe:	80 91 59 01 	lds	r24, 0x0159
    3202:	88 23       	and	r24, r24
    3204:	41 f0       	breq	.+16     	; 0x3216 <mmc_disk_initialize+0x16e>
    3206:	80 e1       	ldi	r24, 0x10	; 16
    3208:	40 e0       	ldi	r20, 0x00	; 0
    320a:	52 e0       	ldi	r21, 0x02	; 2
    320c:	60 e0       	ldi	r22, 0x00	; 0
    320e:	70 e0       	ldi	r23, 0x00	; 0
    3210:	0e 94 e8 17 	call	0x2fd0	; 0x2fd0 <send_cmd>
    3214:	81 11       	cpse	r24, r1
    3216:	10 e0       	ldi	r17, 0x00	; 0
    3218:	10 93 5c 01 	sts	0x015C, r17
    321c:	c4 9a       	sbi	0x18, 4	; 24
    321e:	8f ef       	ldi	r24, 0xFF	; 255
    3220:	8f b9       	out	0x0f, r24	; 15
    3222:	77 9b       	sbis	0x0e, 7	; 14
    3224:	fe cf       	rjmp	.-4      	; 0x3222 <mmc_disk_initialize+0x17a>
    3226:	8f b1       	in	r24, 0x0f	; 15
    3228:	11 23       	and	r17, r17
    322a:	41 f0       	breq	.+16     	; 0x323c <mmc_disk_initialize+0x194>
    322c:	80 91 d0 00 	lds	r24, 0x00D0
    3230:	8e 7f       	andi	r24, 0xFE	; 254
    3232:	80 93 d0 00 	sts	0x00D0, r24
    3236:	80 e5       	ldi	r24, 0x50	; 80
    3238:	8d b9       	out	0x0d, r24	; 13
    323a:	0a c0       	rjmp	.+20     	; 0x3250 <mmc_disk_initialize+0x1a8>
    323c:	1d b8       	out	0x0d, r1	; 13
    323e:	87 b3       	in	r24, 0x17	; 23
    3240:	8f 74       	andi	r24, 0x4F	; 79
    3242:	87 bb       	out	0x17, r24	; 23
    3244:	88 b3       	in	r24, 0x18	; 24
    3246:	8f 74       	andi	r24, 0x4F	; 79
    3248:	88 bb       	out	0x18, r24	; 24
    324a:	88 b3       	in	r24, 0x18	; 24
    324c:	8c 60       	ori	r24, 0x0C	; 12
    324e:	88 bb       	out	0x18, r24	; 24
    3250:	80 91 d0 00 	lds	r24, 0x00D0
    3254:	0f 90       	pop	r0
    3256:	0f 90       	pop	r0
    3258:	0f 90       	pop	r0
    325a:	0f 90       	pop	r0
    325c:	cf 91       	pop	r28
    325e:	df 91       	pop	r29
    3260:	1f 91       	pop	r17
    3262:	0f 91       	pop	r16
    3264:	ff 90       	pop	r15
    3266:	ef 90       	pop	r14
    3268:	08 95       	ret

0000326a <mmc_disk_status>:
    326a:	80 91 d0 00 	lds	r24, 0x00D0
    326e:	08 95       	ret

00003270 <mmc_disk_read>:
    3270:	ff 92       	push	r15
    3272:	0f 93       	push	r16
    3274:	1f 93       	push	r17
    3276:	cf 93       	push	r28
    3278:	df 93       	push	r29
    327a:	8c 01       	movw	r16, r24
    327c:	e9 01       	movw	r28, r18
    327e:	21 15       	cp	r18, r1
    3280:	31 05       	cpc	r19, r1
    3282:	11 f4       	brne	.+4      	; 0x3288 <mmc_disk_read+0x18>
    3284:	84 e0       	ldi	r24, 0x04	; 4
    3286:	3e c0       	rjmp	.+124    	; 0x3304 <mmc_disk_read+0x94>
    3288:	80 91 d0 00 	lds	r24, 0x00D0
    328c:	80 ff       	sbrs	r24, 0
    328e:	02 c0       	rjmp	.+4      	; 0x3294 <mmc_disk_read+0x24>
    3290:	83 e0       	ldi	r24, 0x03	; 3
    3292:	38 c0       	rjmp	.+112    	; 0x3304 <mmc_disk_read+0x94>
    3294:	80 91 5c 01 	lds	r24, 0x015C
    3298:	84 fd       	sbrc	r24, 4
    329a:	07 c0       	rjmp	.+14     	; 0x32aa <mmc_disk_read+0x3a>
    329c:	f9 e0       	ldi	r31, 0x09	; 9
    329e:	44 0f       	add	r20, r20
    32a0:	55 1f       	adc	r21, r21
    32a2:	66 1f       	adc	r22, r22
    32a4:	77 1f       	adc	r23, r23
    32a6:	fa 95       	dec	r31
    32a8:	d1 f7       	brne	.-12     	; 0x329e <mmc_disk_read+0x2e>
    32aa:	c2 30       	cpi	r28, 0x02	; 2
    32ac:	d1 05       	cpc	r29, r1
    32ae:	18 f4       	brcc	.+6      	; 0x32b6 <mmc_disk_read+0x46>
    32b0:	e1 e1       	ldi	r30, 0x11	; 17
    32b2:	fe 2e       	mov	r15, r30
    32b4:	02 c0       	rjmp	.+4      	; 0x32ba <mmc_disk_read+0x4a>
    32b6:	32 e1       	ldi	r19, 0x12	; 18
    32b8:	f3 2e       	mov	r15, r19
    32ba:	8f 2d       	mov	r24, r15
    32bc:	0e 94 e8 17 	call	0x2fd0	; 0x2fd0 <send_cmd>
    32c0:	88 23       	and	r24, r24
    32c2:	b1 f4       	brne	.+44     	; 0x32f0 <mmc_disk_read+0x80>
    32c4:	c8 01       	movw	r24, r16
    32c6:	60 e0       	ldi	r22, 0x00	; 0
    32c8:	72 e0       	ldi	r23, 0x02	; 2
    32ca:	0e 94 77 17 	call	0x2eee	; 0x2eee <rcvr_datablock>
    32ce:	89 2b       	or	r24, r25
    32d0:	29 f0       	breq	.+10     	; 0x32dc <mmc_disk_read+0x6c>
    32d2:	21 97       	sbiw	r28, 0x01	; 1
    32d4:	19 f0       	breq	.+6      	; 0x32dc <mmc_disk_read+0x6c>
    32d6:	00 50       	subi	r16, 0x00	; 0
    32d8:	1e 4f       	sbci	r17, 0xFE	; 254
    32da:	f4 cf       	rjmp	.-24     	; 0x32c4 <mmc_disk_read+0x54>
    32dc:	82 e1       	ldi	r24, 0x12	; 18
    32de:	f8 16       	cp	r15, r24
    32e0:	39 f4       	brne	.+14     	; 0x32f0 <mmc_disk_read+0x80>
    32e2:	8c e0       	ldi	r24, 0x0C	; 12
    32e4:	40 e0       	ldi	r20, 0x00	; 0
    32e6:	50 e0       	ldi	r21, 0x00	; 0
    32e8:	60 e0       	ldi	r22, 0x00	; 0
    32ea:	70 e0       	ldi	r23, 0x00	; 0
    32ec:	0e 94 e8 17 	call	0x2fd0	; 0x2fd0 <send_cmd>
    32f0:	c4 9a       	sbi	0x18, 4	; 24
    32f2:	8f ef       	ldi	r24, 0xFF	; 255
    32f4:	8f b9       	out	0x0f, r24	; 15
    32f6:	77 9b       	sbis	0x0e, 7	; 14
    32f8:	fe cf       	rjmp	.-4      	; 0x32f6 <mmc_disk_read+0x86>
    32fa:	8f b1       	in	r24, 0x0f	; 15
    32fc:	80 e0       	ldi	r24, 0x00	; 0
    32fe:	cd 2b       	or	r28, r29
    3300:	09 f0       	breq	.+2      	; 0x3304 <mmc_disk_read+0x94>
    3302:	81 e0       	ldi	r24, 0x01	; 1
    3304:	df 91       	pop	r29
    3306:	cf 91       	pop	r28
    3308:	1f 91       	pop	r17
    330a:	0f 91       	pop	r16
    330c:	ff 90       	pop	r15
    330e:	08 95       	ret

00003310 <mmc_disk_write>:
    3310:	cf 92       	push	r12
    3312:	df 92       	push	r13
    3314:	ef 92       	push	r14
    3316:	ff 92       	push	r15
    3318:	0f 93       	push	r16
    331a:	1f 93       	push	r17
    331c:	cf 93       	push	r28
    331e:	df 93       	push	r29
    3320:	6c 01       	movw	r12, r24
    3322:	e9 01       	movw	r28, r18
    3324:	21 15       	cp	r18, r1
    3326:	31 05       	cpc	r19, r1
    3328:	11 f4       	brne	.+4      	; 0x332e <mmc_disk_write+0x1e>
    332a:	84 e0       	ldi	r24, 0x04	; 4
    332c:	5f c0       	rjmp	.+190    	; 0x33ec <mmc_disk_write+0xdc>
    332e:	80 91 d0 00 	lds	r24, 0x00D0
    3332:	80 ff       	sbrs	r24, 0
    3334:	02 c0       	rjmp	.+4      	; 0x333a <mmc_disk_write+0x2a>
    3336:	83 e0       	ldi	r24, 0x03	; 3
    3338:	59 c0       	rjmp	.+178    	; 0x33ec <mmc_disk_write+0xdc>
    333a:	80 91 d0 00 	lds	r24, 0x00D0
    333e:	82 ff       	sbrs	r24, 2
    3340:	02 c0       	rjmp	.+4      	; 0x3346 <mmc_disk_write+0x36>
    3342:	82 e0       	ldi	r24, 0x02	; 2
    3344:	53 c0       	rjmp	.+166    	; 0x33ec <mmc_disk_write+0xdc>
    3346:	80 91 5c 01 	lds	r24, 0x015C
    334a:	90 e0       	ldi	r25, 0x00	; 0
    334c:	84 ff       	sbrs	r24, 4
    334e:	03 c0       	rjmp	.+6      	; 0x3356 <mmc_disk_write+0x46>
    3350:	7a 01       	movw	r14, r20
    3352:	8b 01       	movw	r16, r22
    3354:	09 c0       	rjmp	.+18     	; 0x3368 <mmc_disk_write+0x58>
    3356:	7a 01       	movw	r14, r20
    3358:	8b 01       	movw	r16, r22
    335a:	a9 e0       	ldi	r26, 0x09	; 9
    335c:	ee 0c       	add	r14, r14
    335e:	ff 1c       	adc	r15, r15
    3360:	00 1f       	adc	r16, r16
    3362:	11 1f       	adc	r17, r17
    3364:	aa 95       	dec	r26
    3366:	d1 f7       	brne	.-12     	; 0x335c <mmc_disk_write+0x4c>
    3368:	c1 30       	cpi	r28, 0x01	; 1
    336a:	d1 05       	cpc	r29, r1
    336c:	71 f4       	brne	.+28     	; 0x338a <mmc_disk_write+0x7a>
    336e:	88 e1       	ldi	r24, 0x18	; 24
    3370:	b8 01       	movw	r22, r16
    3372:	a7 01       	movw	r20, r14
    3374:	0e 94 e8 17 	call	0x2fd0	; 0x2fd0 <send_cmd>
    3378:	88 23       	and	r24, r24
    337a:	71 f5       	brne	.+92     	; 0x33d8 <mmc_disk_write+0xc8>
    337c:	c6 01       	movw	r24, r12
    337e:	6e ef       	ldi	r22, 0xFE	; 254
    3380:	0e 94 aa 17 	call	0x2f54	; 0x2f54 <xmit_datablock>
    3384:	c0 e0       	ldi	r28, 0x00	; 0
    3386:	d0 e0       	ldi	r29, 0x00	; 0
    3388:	23 c0       	rjmp	.+70     	; 0x33d0 <mmc_disk_write+0xc0>
    338a:	8c 70       	andi	r24, 0x0C	; 12
    338c:	90 70       	andi	r25, 0x00	; 0
    338e:	89 2b       	or	r24, r25
    3390:	31 f0       	breq	.+12     	; 0x339e <mmc_disk_write+0x8e>
    3392:	ae 01       	movw	r20, r28
    3394:	60 e0       	ldi	r22, 0x00	; 0
    3396:	70 e0       	ldi	r23, 0x00	; 0
    3398:	87 e9       	ldi	r24, 0x97	; 151
    339a:	0e 94 e8 17 	call	0x2fd0	; 0x2fd0 <send_cmd>
    339e:	89 e1       	ldi	r24, 0x19	; 25
    33a0:	b8 01       	movw	r22, r16
    33a2:	a7 01       	movw	r20, r14
    33a4:	0e 94 e8 17 	call	0x2fd0	; 0x2fd0 <send_cmd>
    33a8:	88 23       	and	r24, r24
    33aa:	b1 f4       	brne	.+44     	; 0x33d8 <mmc_disk_write+0xc8>
    33ac:	c6 01       	movw	r24, r12
    33ae:	6c ef       	ldi	r22, 0xFC	; 252
    33b0:	0e 94 aa 17 	call	0x2f54	; 0x2f54 <xmit_datablock>
    33b4:	89 2b       	or	r24, r25
    33b6:	39 f0       	breq	.+14     	; 0x33c6 <mmc_disk_write+0xb6>
    33b8:	21 97       	sbiw	r28, 0x01	; 1
    33ba:	29 f0       	breq	.+10     	; 0x33c6 <mmc_disk_write+0xb6>
    33bc:	80 e0       	ldi	r24, 0x00	; 0
    33be:	92 e0       	ldi	r25, 0x02	; 2
    33c0:	c8 0e       	add	r12, r24
    33c2:	d9 1e       	adc	r13, r25
    33c4:	f3 cf       	rjmp	.-26     	; 0x33ac <mmc_disk_write+0x9c>
    33c6:	80 e0       	ldi	r24, 0x00	; 0
    33c8:	90 e0       	ldi	r25, 0x00	; 0
    33ca:	6d ef       	ldi	r22, 0xFD	; 253
    33cc:	0e 94 aa 17 	call	0x2f54	; 0x2f54 <xmit_datablock>
    33d0:	89 2b       	or	r24, r25
    33d2:	11 f4       	brne	.+4      	; 0x33d8 <mmc_disk_write+0xc8>
    33d4:	c1 e0       	ldi	r28, 0x01	; 1
    33d6:	d0 e0       	ldi	r29, 0x00	; 0
    33d8:	c4 9a       	sbi	0x18, 4	; 24
    33da:	8f ef       	ldi	r24, 0xFF	; 255
    33dc:	8f b9       	out	0x0f, r24	; 15
    33de:	77 9b       	sbis	0x0e, 7	; 14
    33e0:	fe cf       	rjmp	.-4      	; 0x33de <mmc_disk_write+0xce>
    33e2:	8f b1       	in	r24, 0x0f	; 15
    33e4:	80 e0       	ldi	r24, 0x00	; 0
    33e6:	cd 2b       	or	r28, r29
    33e8:	09 f0       	breq	.+2      	; 0x33ec <mmc_disk_write+0xdc>
    33ea:	81 e0       	ldi	r24, 0x01	; 1
    33ec:	df 91       	pop	r29
    33ee:	cf 91       	pop	r28
    33f0:	1f 91       	pop	r17
    33f2:	0f 91       	pop	r16
    33f4:	ff 90       	pop	r15
    33f6:	ef 90       	pop	r14
    33f8:	df 90       	pop	r13
    33fa:	cf 90       	pop	r12
    33fc:	08 95       	ret

000033fe <mmc_disk_ioctl>:
    33fe:	ff 92       	push	r15
    3400:	0f 93       	push	r16
    3402:	1f 93       	push	r17
    3404:	df 93       	push	r29
    3406:	cf 93       	push	r28
    3408:	cd b7       	in	r28, 0x3d	; 61
    340a:	de b7       	in	r29, 0x3e	; 62
    340c:	60 97       	sbiw	r28, 0x10	; 16
    340e:	0f b6       	in	r0, 0x3f	; 63
    3410:	f8 94       	cli
    3412:	de bf       	out	0x3e, r29	; 62
    3414:	0f be       	out	0x3f, r0	; 63
    3416:	cd bf       	out	0x3d, r28	; 61
    3418:	98 2f       	mov	r25, r24
    341a:	8b 01       	movw	r16, r22
    341c:	80 91 d0 00 	lds	r24, 0x00D0
    3420:	80 ff       	sbrs	r24, 0
    3422:	02 c0       	rjmp	.+4      	; 0x3428 <mmc_disk_ioctl+0x2a>
    3424:	23 e0       	ldi	r18, 0x03	; 3
    3426:	02 c3       	rjmp	.+1540   	; 0x3a2c <mmc_disk_ioctl+0x62e>
    3428:	93 33       	cpi	r25, 0x33	; 51
    342a:	09 f4       	brne	.+2      	; 0x342e <mmc_disk_ioctl+0x30>
    342c:	50 c1       	rjmp	.+672    	; 0x36ce <mmc_disk_ioctl+0x2d0>
    342e:	94 33       	cpi	r25, 0x34	; 52
    3430:	80 f4       	brcc	.+32     	; 0x3452 <mmc_disk_ioctl+0x54>
    3432:	93 30       	cpi	r25, 0x03	; 3
    3434:	09 f4       	brne	.+2      	; 0x3438 <mmc_disk_ioctl+0x3a>
    3436:	af c0       	rjmp	.+350    	; 0x3596 <mmc_disk_ioctl+0x198>
    3438:	94 30       	cpi	r25, 0x04	; 4
    343a:	28 f4       	brcc	.+10     	; 0x3446 <mmc_disk_ioctl+0x48>
    343c:	99 23       	and	r25, r25
    343e:	f9 f0       	breq	.+62     	; 0x347e <mmc_disk_ioctl+0x80>
    3440:	91 30       	cpi	r25, 0x01	; 1
    3442:	d9 f4       	brne	.+54     	; 0x347a <mmc_disk_ioctl+0x7c>
    3444:	2a c0       	rjmp	.+84     	; 0x349a <mmc_disk_ioctl+0x9c>
    3446:	97 30       	cpi	r25, 0x07	; 7
    3448:	09 f4       	brne	.+2      	; 0x344c <mmc_disk_ioctl+0x4e>
    344a:	af c1       	rjmp	.+862    	; 0x37aa <mmc_disk_ioctl+0x3ac>
    344c:	92 33       	cpi	r25, 0x32	; 50
    344e:	a9 f4       	brne	.+42     	; 0x347a <mmc_disk_ioctl+0x7c>
    3450:	39 c1       	rjmp	.+626    	; 0x36c4 <mmc_disk_ioctl+0x2c6>
    3452:	96 33       	cpi	r25, 0x36	; 54
    3454:	09 f4       	brne	.+2      	; 0x3458 <mmc_disk_ioctl+0x5a>
    3456:	8c c1       	rjmp	.+792    	; 0x3770 <mmc_disk_ioctl+0x372>
    3458:	97 33       	cpi	r25, 0x37	; 55
    345a:	30 f4       	brcc	.+12     	; 0x3468 <mmc_disk_ioctl+0x6a>
    345c:	94 33       	cpi	r25, 0x34	; 52
    345e:	09 f4       	brne	.+2      	; 0x3462 <mmc_disk_ioctl+0x64>
    3460:	4e c1       	rjmp	.+668    	; 0x36fe <mmc_disk_ioctl+0x300>
    3462:	95 33       	cpi	r25, 0x35	; 53
    3464:	51 f4       	brne	.+20     	; 0x347a <mmc_disk_ioctl+0x7c>
    3466:	63 c1       	rjmp	.+710    	; 0x372e <mmc_disk_ioctl+0x330>
    3468:	98 33       	cpi	r25, 0x38	; 56
    346a:	09 f4       	brne	.+2      	; 0x346e <mmc_disk_ioctl+0x70>
    346c:	1d c2       	rjmp	.+1082   	; 0x38a8 <mmc_disk_ioctl+0x4aa>
    346e:	98 33       	cpi	r25, 0x38	; 56
    3470:	08 f4       	brcc	.+2      	; 0x3474 <mmc_disk_ioctl+0x76>
    3472:	ac c1       	rjmp	.+856    	; 0x37cc <mmc_disk_ioctl+0x3ce>
    3474:	99 33       	cpi	r25, 0x39	; 57
    3476:	09 f4       	brne	.+2      	; 0x347a <mmc_disk_ioctl+0x7c>
    3478:	86 c2       	rjmp	.+1292   	; 0x3986 <mmc_disk_ioctl+0x588>
    347a:	24 e0       	ldi	r18, 0x04	; 4
    347c:	d7 c2       	rjmp	.+1454   	; 0x3a2c <mmc_disk_ioctl+0x62e>
    347e:	0e 94 5e 17 	call	0x2ebc	; 0x2ebc <select>
    3482:	ac 01       	movw	r20, r24
    3484:	c4 9a       	sbi	0x18, 4	; 24
    3486:	8f ef       	ldi	r24, 0xFF	; 255
    3488:	8f b9       	out	0x0f, r24	; 15
    348a:	77 9b       	sbis	0x0e, 7	; 14
    348c:	fe cf       	rjmp	.-4      	; 0x348a <mmc_disk_ioctl+0x8c>
    348e:	20 e0       	ldi	r18, 0x00	; 0
    3490:	45 2b       	or	r20, r21
    3492:	09 f0       	breq	.+2      	; 0x3496 <mmc_disk_ioctl+0x98>
    3494:	ca c2       	rjmp	.+1428   	; 0x3a2a <mmc_disk_ioctl+0x62c>
    3496:	21 e0       	ldi	r18, 0x01	; 1
    3498:	c8 c2       	rjmp	.+1424   	; 0x3a2a <mmc_disk_ioctl+0x62c>
    349a:	89 e0       	ldi	r24, 0x09	; 9
    349c:	40 e0       	ldi	r20, 0x00	; 0
    349e:	50 e0       	ldi	r21, 0x00	; 0
    34a0:	60 e0       	ldi	r22, 0x00	; 0
    34a2:	70 e0       	ldi	r23, 0x00	; 0
    34a4:	0e 94 e8 17 	call	0x2fd0	; 0x2fd0 <send_cmd>
    34a8:	88 23       	and	r24, r24
    34aa:	09 f0       	breq	.+2      	; 0x34ae <mmc_disk_ioctl+0xb0>
    34ac:	6d c0       	rjmp	.+218    	; 0x3588 <mmc_disk_ioctl+0x18a>
    34ae:	ce 01       	movw	r24, r28
    34b0:	01 96       	adiw	r24, 0x01	; 1
    34b2:	60 e1       	ldi	r22, 0x10	; 16
    34b4:	70 e0       	ldi	r23, 0x00	; 0
    34b6:	0e 94 77 17 	call	0x2eee	; 0x2eee <rcvr_datablock>
    34ba:	89 2b       	or	r24, r25
    34bc:	09 f4       	brne	.+2      	; 0x34c0 <mmc_disk_ioctl+0xc2>
    34be:	64 c0       	rjmp	.+200    	; 0x3588 <mmc_disk_ioctl+0x18a>
    34c0:	89 81       	ldd	r24, Y+1	; 0x01
    34c2:	82 95       	swap	r24
    34c4:	86 95       	lsr	r24
    34c6:	86 95       	lsr	r24
    34c8:	83 70       	andi	r24, 0x03	; 3
    34ca:	28 85       	ldd	r18, Y+8	; 0x08
    34cc:	69 85       	ldd	r22, Y+9	; 0x09
    34ce:	7a 85       	ldd	r23, Y+10	; 0x0a
    34d0:	81 30       	cpi	r24, 0x01	; 1
    34d2:	31 f5       	brne	.+76     	; 0x3520 <mmc_disk_ioctl+0x122>
    34d4:	30 e0       	ldi	r19, 0x00	; 0
    34d6:	40 e0       	ldi	r20, 0x00	; 0
    34d8:	50 e0       	ldi	r21, 0x00	; 0
    34da:	2f 73       	andi	r18, 0x3F	; 63
    34dc:	30 70       	andi	r19, 0x00	; 0
    34de:	40 70       	andi	r20, 0x00	; 0
    34e0:	50 70       	andi	r21, 0x00	; 0
    34e2:	a9 01       	movw	r20, r18
    34e4:	33 27       	eor	r19, r19
    34e6:	22 27       	eor	r18, r18
    34e8:	2f 5f       	subi	r18, 0xFF	; 255
    34ea:	3f 4f       	sbci	r19, 0xFF	; 255
    34ec:	4f 4f       	sbci	r20, 0xFF	; 255
    34ee:	5f 4f       	sbci	r21, 0xFF	; 255
    34f0:	96 2f       	mov	r25, r22
    34f2:	80 e0       	ldi	r24, 0x00	; 0
    34f4:	87 0f       	add	r24, r23
    34f6:	91 1d       	adc	r25, r1
    34f8:	a0 e0       	ldi	r26, 0x00	; 0
    34fa:	b0 e0       	ldi	r27, 0x00	; 0
    34fc:	28 0f       	add	r18, r24
    34fe:	39 1f       	adc	r19, r25
    3500:	4a 1f       	adc	r20, r26
    3502:	5b 1f       	adc	r21, r27
    3504:	aa e0       	ldi	r26, 0x0A	; 10
    3506:	22 0f       	add	r18, r18
    3508:	33 1f       	adc	r19, r19
    350a:	44 1f       	adc	r20, r20
    350c:	55 1f       	adc	r21, r21
    350e:	aa 95       	dec	r26
    3510:	d1 f7       	brne	.-12     	; 0x3506 <mmc_disk_ioctl+0x108>
    3512:	d8 01       	movw	r26, r16
    3514:	2d 93       	st	X+, r18
    3516:	3d 93       	st	X+, r19
    3518:	4d 93       	st	X+, r20
    351a:	5c 93       	st	X, r21
    351c:	13 97       	sbiw	r26, 0x03	; 3
    351e:	32 c0       	rjmp	.+100    	; 0x3584 <mmc_disk_ioctl+0x186>
    3520:	62 95       	swap	r22
    3522:	66 95       	lsr	r22
    3524:	66 95       	lsr	r22
    3526:	63 70       	andi	r22, 0x03	; 3
    3528:	30 e0       	ldi	r19, 0x00	; 0
    352a:	22 0f       	add	r18, r18
    352c:	33 1f       	adc	r19, r19
    352e:	22 0f       	add	r18, r18
    3530:	33 1f       	adc	r19, r19
    3532:	26 0f       	add	r18, r22
    3534:	31 1d       	adc	r19, r1
    3536:	2f 5f       	subi	r18, 0xFF	; 255
    3538:	3f 4f       	sbci	r19, 0xFF	; 255
    353a:	8f 81       	ldd	r24, Y+7	; 0x07
    353c:	90 e0       	ldi	r25, 0x00	; 0
    353e:	83 70       	andi	r24, 0x03	; 3
    3540:	90 70       	andi	r25, 0x00	; 0
    3542:	98 2f       	mov	r25, r24
    3544:	88 27       	eor	r24, r24
    3546:	99 0f       	add	r25, r25
    3548:	99 0f       	add	r25, r25
    354a:	28 0f       	add	r18, r24
    354c:	39 1f       	adc	r19, r25
    354e:	40 e0       	ldi	r20, 0x00	; 0
    3550:	50 e0       	ldi	r21, 0x00	; 0
    3552:	8e 81       	ldd	r24, Y+6	; 0x06
    3554:	8f 70       	andi	r24, 0x0F	; 15
    3556:	6b 85       	ldd	r22, Y+11	; 0x0b
    3558:	66 1f       	adc	r22, r22
    355a:	66 27       	eor	r22, r22
    355c:	66 1f       	adc	r22, r22
    355e:	86 0f       	add	r24, r22
    3560:	8e 5f       	subi	r24, 0xFE	; 254
    3562:	73 70       	andi	r23, 0x03	; 3
    3564:	77 0f       	add	r23, r23
    3566:	87 0f       	add	r24, r23
    3568:	90 e0       	ldi	r25, 0x00	; 0
    356a:	09 97       	sbiw	r24, 0x09	; 9
    356c:	04 c0       	rjmp	.+8      	; 0x3576 <mmc_disk_ioctl+0x178>
    356e:	22 0f       	add	r18, r18
    3570:	33 1f       	adc	r19, r19
    3572:	44 1f       	adc	r20, r20
    3574:	55 1f       	adc	r21, r21
    3576:	8a 95       	dec	r24
    3578:	d2 f7       	brpl	.-12     	; 0x356e <mmc_disk_ioctl+0x170>
    357a:	f8 01       	movw	r30, r16
    357c:	20 83       	st	Z, r18
    357e:	31 83       	std	Z+1, r19	; 0x01
    3580:	42 83       	std	Z+2, r20	; 0x02
    3582:	53 83       	std	Z+3, r21	; 0x03
    3584:	20 e0       	ldi	r18, 0x00	; 0
    3586:	01 c0       	rjmp	.+2      	; 0x358a <mmc_disk_ioctl+0x18c>
    3588:	21 e0       	ldi	r18, 0x01	; 1
    358a:	c4 9a       	sbi	0x18, 4	; 24
    358c:	8f ef       	ldi	r24, 0xFF	; 255
    358e:	8f b9       	out	0x0f, r24	; 15
    3590:	77 9b       	sbis	0x0e, 7	; 14
    3592:	fe cf       	rjmp	.-4      	; 0x3590 <mmc_disk_ioctl+0x192>
    3594:	4a c2       	rjmp	.+1172   	; 0x3a2a <mmc_disk_ioctl+0x62c>
    3596:	80 91 5c 01 	lds	r24, 0x015C
    359a:	f8 2e       	mov	r15, r24
    359c:	83 ff       	sbrs	r24, 3
    359e:	2f c0       	rjmp	.+94     	; 0x35fe <mmc_disk_ioctl+0x200>
    35a0:	8d e8       	ldi	r24, 0x8D	; 141
    35a2:	40 e0       	ldi	r20, 0x00	; 0
    35a4:	50 e0       	ldi	r21, 0x00	; 0
    35a6:	60 e0       	ldi	r22, 0x00	; 0
    35a8:	70 e0       	ldi	r23, 0x00	; 0
    35aa:	0e 94 e8 17 	call	0x2fd0	; 0x2fd0 <send_cmd>
    35ae:	88 23       	and	r24, r24
    35b0:	09 f0       	breq	.+2      	; 0x35b4 <mmc_disk_ioctl+0x1b6>
    35b2:	81 c0       	rjmp	.+258    	; 0x36b6 <mmc_disk_ioctl+0x2b8>
    35b4:	8f ef       	ldi	r24, 0xFF	; 255
    35b6:	8f b9       	out	0x0f, r24	; 15
    35b8:	77 9b       	sbis	0x0e, 7	; 14
    35ba:	fe cf       	rjmp	.-4      	; 0x35b8 <mmc_disk_ioctl+0x1ba>
    35bc:	8f b1       	in	r24, 0x0f	; 15
    35be:	ce 01       	movw	r24, r28
    35c0:	01 96       	adiw	r24, 0x01	; 1
    35c2:	60 e1       	ldi	r22, 0x10	; 16
    35c4:	70 e0       	ldi	r23, 0x00	; 0
    35c6:	0e 94 77 17 	call	0x2eee	; 0x2eee <rcvr_datablock>
    35ca:	89 2b       	or	r24, r25
    35cc:	09 f4       	brne	.+2      	; 0x35d0 <mmc_disk_ioctl+0x1d2>
    35ce:	73 c0       	rjmp	.+230    	; 0x36b6 <mmc_disk_ioctl+0x2b8>
    35d0:	80 e3       	ldi	r24, 0x30	; 48
    35d2:	9f ef       	ldi	r25, 0xFF	; 255
    35d4:	9f b9       	out	0x0f, r25	; 15
    35d6:	77 9b       	sbis	0x0e, 7	; 14
    35d8:	fe cf       	rjmp	.-4      	; 0x35d6 <mmc_disk_ioctl+0x1d8>
    35da:	2f b1       	in	r18, 0x0f	; 15
    35dc:	81 50       	subi	r24, 0x01	; 1
    35de:	d1 f7       	brne	.-12     	; 0x35d4 <mmc_disk_ioctl+0x1d6>
    35e0:	2b 85       	ldd	r18, Y+11	; 0x0b
    35e2:	22 95       	swap	r18
    35e4:	2f 70       	andi	r18, 0x0F	; 15
    35e6:	80 e1       	ldi	r24, 0x10	; 16
    35e8:	90 e0       	ldi	r25, 0x00	; 0
    35ea:	a0 e0       	ldi	r26, 0x00	; 0
    35ec:	b0 e0       	ldi	r27, 0x00	; 0
    35ee:	04 c0       	rjmp	.+8      	; 0x35f8 <mmc_disk_ioctl+0x1fa>
    35f0:	88 0f       	add	r24, r24
    35f2:	99 1f       	adc	r25, r25
    35f4:	aa 1f       	adc	r26, r26
    35f6:	bb 1f       	adc	r27, r27
    35f8:	2a 95       	dec	r18
    35fa:	d2 f7       	brpl	.-12     	; 0x35f0 <mmc_disk_ioctl+0x1f2>
    35fc:	55 c0       	rjmp	.+170    	; 0x36a8 <mmc_disk_ioctl+0x2aa>
    35fe:	89 e0       	ldi	r24, 0x09	; 9
    3600:	40 e0       	ldi	r20, 0x00	; 0
    3602:	50 e0       	ldi	r21, 0x00	; 0
    3604:	60 e0       	ldi	r22, 0x00	; 0
    3606:	70 e0       	ldi	r23, 0x00	; 0
    3608:	0e 94 e8 17 	call	0x2fd0	; 0x2fd0 <send_cmd>
    360c:	88 23       	and	r24, r24
    360e:	09 f0       	breq	.+2      	; 0x3612 <mmc_disk_ioctl+0x214>
    3610:	52 c0       	rjmp	.+164    	; 0x36b6 <mmc_disk_ioctl+0x2b8>
    3612:	ce 01       	movw	r24, r28
    3614:	01 96       	adiw	r24, 0x01	; 1
    3616:	60 e1       	ldi	r22, 0x10	; 16
    3618:	70 e0       	ldi	r23, 0x00	; 0
    361a:	0e 94 77 17 	call	0x2eee	; 0x2eee <rcvr_datablock>
    361e:	89 2b       	or	r24, r25
    3620:	09 f4       	brne	.+2      	; 0x3624 <mmc_disk_ioctl+0x226>
    3622:	49 c0       	rjmp	.+146    	; 0x36b6 <mmc_disk_ioctl+0x2b8>
    3624:	4b 85       	ldd	r20, Y+11	; 0x0b
    3626:	8c 85       	ldd	r24, Y+12	; 0x0c
    3628:	f2 fe       	sbrs	r15, 2
    362a:	1b c0       	rjmp	.+54     	; 0x3662 <mmc_disk_ioctl+0x264>
    362c:	88 1f       	adc	r24, r24
    362e:	88 27       	eor	r24, r24
    3630:	88 1f       	adc	r24, r24
    3632:	90 e0       	ldi	r25, 0x00	; 0
    3634:	01 96       	adiw	r24, 0x01	; 1
    3636:	24 2f       	mov	r18, r20
    3638:	30 e0       	ldi	r19, 0x00	; 0
    363a:	2f 73       	andi	r18, 0x3F	; 63
    363c:	30 70       	andi	r19, 0x00	; 0
    363e:	22 0f       	add	r18, r18
    3640:	33 1f       	adc	r19, r19
    3642:	82 0f       	add	r24, r18
    3644:	93 1f       	adc	r25, r19
    3646:	2e 85       	ldd	r18, Y+14	; 0x0e
    3648:	22 95       	swap	r18
    364a:	26 95       	lsr	r18
    364c:	26 95       	lsr	r18
    364e:	23 70       	andi	r18, 0x03	; 3
    3650:	30 e0       	ldi	r19, 0x00	; 0
    3652:	21 50       	subi	r18, 0x01	; 1
    3654:	30 40       	sbci	r19, 0x00	; 0
    3656:	02 c0       	rjmp	.+4      	; 0x365c <mmc_disk_ioctl+0x25e>
    3658:	88 0f       	add	r24, r24
    365a:	99 1f       	adc	r25, r25
    365c:	2a 95       	dec	r18
    365e:	e2 f7       	brpl	.-8      	; 0x3658 <mmc_disk_ioctl+0x25a>
    3660:	21 c0       	rjmp	.+66     	; 0x36a4 <mmc_disk_ioctl+0x2a6>
    3662:	28 2f       	mov	r18, r24
    3664:	30 e0       	ldi	r19, 0x00	; 0
    3666:	23 70       	andi	r18, 0x03	; 3
    3668:	30 70       	andi	r19, 0x00	; 0
    366a:	53 e0       	ldi	r21, 0x03	; 3
    366c:	22 0f       	add	r18, r18
    366e:	33 1f       	adc	r19, r19
    3670:	5a 95       	dec	r21
    3672:	e1 f7       	brne	.-8      	; 0x366c <mmc_disk_ioctl+0x26e>
    3674:	82 95       	swap	r24
    3676:	86 95       	lsr	r24
    3678:	87 70       	andi	r24, 0x07	; 7
    367a:	28 0f       	add	r18, r24
    367c:	31 1d       	adc	r19, r1
    367e:	2f 5f       	subi	r18, 0xFF	; 255
    3680:	3f 4f       	sbci	r19, 0xFF	; 255
    3682:	84 2f       	mov	r24, r20
    3684:	90 e0       	ldi	r25, 0x00	; 0
    3686:	8c 77       	andi	r24, 0x7C	; 124
    3688:	90 70       	andi	r25, 0x00	; 0
    368a:	95 95       	asr	r25
    368c:	87 95       	ror	r24
    368e:	95 95       	asr	r25
    3690:	87 95       	ror	r24
    3692:	01 96       	adiw	r24, 0x01	; 1
    3694:	ac 01       	movw	r20, r24
    3696:	24 9f       	mul	r18, r20
    3698:	c0 01       	movw	r24, r0
    369a:	25 9f       	mul	r18, r21
    369c:	90 0d       	add	r25, r0
    369e:	34 9f       	mul	r19, r20
    36a0:	90 0d       	add	r25, r0
    36a2:	11 24       	eor	r1, r1
    36a4:	a0 e0       	ldi	r26, 0x00	; 0
    36a6:	b0 e0       	ldi	r27, 0x00	; 0
    36a8:	f8 01       	movw	r30, r16
    36aa:	80 83       	st	Z, r24
    36ac:	91 83       	std	Z+1, r25	; 0x01
    36ae:	a2 83       	std	Z+2, r26	; 0x02
    36b0:	b3 83       	std	Z+3, r27	; 0x03
    36b2:	20 e0       	ldi	r18, 0x00	; 0
    36b4:	01 c0       	rjmp	.+2      	; 0x36b8 <mmc_disk_ioctl+0x2ba>
    36b6:	21 e0       	ldi	r18, 0x01	; 1
    36b8:	c4 9a       	sbi	0x18, 4	; 24
    36ba:	8f ef       	ldi	r24, 0xFF	; 255
    36bc:	8f b9       	out	0x0f, r24	; 15
    36be:	77 9b       	sbis	0x0e, 7	; 14
    36c0:	fe cf       	rjmp	.-4      	; 0x36be <mmc_disk_ioctl+0x2c0>
    36c2:	b3 c1       	rjmp	.+870    	; 0x3a2a <mmc_disk_ioctl+0x62c>
    36c4:	80 91 5c 01 	lds	r24, 0x015C
    36c8:	db 01       	movw	r26, r22
    36ca:	8c 93       	st	X, r24
    36cc:	7d c0       	rjmp	.+250    	; 0x37c8 <mmc_disk_ioctl+0x3ca>
    36ce:	89 e0       	ldi	r24, 0x09	; 9
    36d0:	40 e0       	ldi	r20, 0x00	; 0
    36d2:	50 e0       	ldi	r21, 0x00	; 0
    36d4:	60 e0       	ldi	r22, 0x00	; 0
    36d6:	70 e0       	ldi	r23, 0x00	; 0
    36d8:	0e 94 e8 17 	call	0x2fd0	; 0x2fd0 <send_cmd>
    36dc:	88 23       	and	r24, r24
    36de:	41 f4       	brne	.+16     	; 0x36f0 <mmc_disk_ioctl+0x2f2>
    36e0:	c8 01       	movw	r24, r16
    36e2:	60 e1       	ldi	r22, 0x10	; 16
    36e4:	70 e0       	ldi	r23, 0x00	; 0
    36e6:	0e 94 77 17 	call	0x2eee	; 0x2eee <rcvr_datablock>
    36ea:	20 e0       	ldi	r18, 0x00	; 0
    36ec:	89 2b       	or	r24, r25
    36ee:	09 f4       	brne	.+2      	; 0x36f2 <mmc_disk_ioctl+0x2f4>
    36f0:	21 e0       	ldi	r18, 0x01	; 1
    36f2:	c4 9a       	sbi	0x18, 4	; 24
    36f4:	8f ef       	ldi	r24, 0xFF	; 255
    36f6:	8f b9       	out	0x0f, r24	; 15
    36f8:	77 9b       	sbis	0x0e, 7	; 14
    36fa:	fe cf       	rjmp	.-4      	; 0x36f8 <mmc_disk_ioctl+0x2fa>
    36fc:	96 c1       	rjmp	.+812    	; 0x3a2a <mmc_disk_ioctl+0x62c>
    36fe:	8a e0       	ldi	r24, 0x0A	; 10
    3700:	40 e0       	ldi	r20, 0x00	; 0
    3702:	50 e0       	ldi	r21, 0x00	; 0
    3704:	60 e0       	ldi	r22, 0x00	; 0
    3706:	70 e0       	ldi	r23, 0x00	; 0
    3708:	0e 94 e8 17 	call	0x2fd0	; 0x2fd0 <send_cmd>
    370c:	88 23       	and	r24, r24
    370e:	41 f4       	brne	.+16     	; 0x3720 <mmc_disk_ioctl+0x322>
    3710:	c8 01       	movw	r24, r16
    3712:	60 e1       	ldi	r22, 0x10	; 16
    3714:	70 e0       	ldi	r23, 0x00	; 0
    3716:	0e 94 77 17 	call	0x2eee	; 0x2eee <rcvr_datablock>
    371a:	20 e0       	ldi	r18, 0x00	; 0
    371c:	89 2b       	or	r24, r25
    371e:	09 f4       	brne	.+2      	; 0x3722 <mmc_disk_ioctl+0x324>
    3720:	21 e0       	ldi	r18, 0x01	; 1
    3722:	c4 9a       	sbi	0x18, 4	; 24
    3724:	8f ef       	ldi	r24, 0xFF	; 255
    3726:	8f b9       	out	0x0f, r24	; 15
    3728:	77 9b       	sbis	0x0e, 7	; 14
    372a:	fe cf       	rjmp	.-4      	; 0x3728 <mmc_disk_ioctl+0x32a>
    372c:	7e c1       	rjmp	.+764    	; 0x3a2a <mmc_disk_ioctl+0x62c>
    372e:	8a e3       	ldi	r24, 0x3A	; 58
    3730:	40 e0       	ldi	r20, 0x00	; 0
    3732:	50 e0       	ldi	r21, 0x00	; 0
    3734:	60 e0       	ldi	r22, 0x00	; 0
    3736:	70 e0       	ldi	r23, 0x00	; 0
    3738:	0e 94 e8 17 	call	0x2fd0	; 0x2fd0 <send_cmd>
    373c:	88 23       	and	r24, r24
    373e:	89 f4       	brne	.+34     	; 0x3762 <mmc_disk_ioctl+0x364>
    3740:	f8 01       	movw	r30, r16
    3742:	9f ef       	ldi	r25, 0xFF	; 255
    3744:	98 01       	movw	r18, r16
    3746:	2d 5f       	subi	r18, 0xFD	; 253
    3748:	3f 4f       	sbci	r19, 0xFF	; 255
    374a:	9f b9       	out	0x0f, r25	; 15
    374c:	77 9b       	sbis	0x0e, 7	; 14
    374e:	fe cf       	rjmp	.-4      	; 0x374c <mmc_disk_ioctl+0x34e>
    3750:	8f b1       	in	r24, 0x0f	; 15
    3752:	80 83       	st	Z, r24
    3754:	e2 17       	cp	r30, r18
    3756:	f3 07       	cpc	r31, r19
    3758:	11 f4       	brne	.+4      	; 0x375e <mmc_disk_ioctl+0x360>
    375a:	20 e0       	ldi	r18, 0x00	; 0
    375c:	03 c0       	rjmp	.+6      	; 0x3764 <mmc_disk_ioctl+0x366>
    375e:	31 96       	adiw	r30, 0x01	; 1
    3760:	f4 cf       	rjmp	.-24     	; 0x374a <mmc_disk_ioctl+0x34c>
    3762:	21 e0       	ldi	r18, 0x01	; 1
    3764:	c4 9a       	sbi	0x18, 4	; 24
    3766:	8f ef       	ldi	r24, 0xFF	; 255
    3768:	8f b9       	out	0x0f, r24	; 15
    376a:	77 9b       	sbis	0x0e, 7	; 14
    376c:	fe cf       	rjmp	.-4      	; 0x376a <mmc_disk_ioctl+0x36c>
    376e:	5d c1       	rjmp	.+698    	; 0x3a2a <mmc_disk_ioctl+0x62c>
    3770:	8d e8       	ldi	r24, 0x8D	; 141
    3772:	40 e0       	ldi	r20, 0x00	; 0
    3774:	50 e0       	ldi	r21, 0x00	; 0
    3776:	60 e0       	ldi	r22, 0x00	; 0
    3778:	70 e0       	ldi	r23, 0x00	; 0
    377a:	0e 94 e8 17 	call	0x2fd0	; 0x2fd0 <send_cmd>
    377e:	88 23       	and	r24, r24
    3780:	69 f4       	brne	.+26     	; 0x379c <mmc_disk_ioctl+0x39e>
    3782:	8f ef       	ldi	r24, 0xFF	; 255
    3784:	8f b9       	out	0x0f, r24	; 15
    3786:	77 9b       	sbis	0x0e, 7	; 14
    3788:	fe cf       	rjmp	.-4      	; 0x3786 <mmc_disk_ioctl+0x388>
    378a:	8f b1       	in	r24, 0x0f	; 15
    378c:	c8 01       	movw	r24, r16
    378e:	60 e4       	ldi	r22, 0x40	; 64
    3790:	70 e0       	ldi	r23, 0x00	; 0
    3792:	0e 94 77 17 	call	0x2eee	; 0x2eee <rcvr_datablock>
    3796:	20 e0       	ldi	r18, 0x00	; 0
    3798:	89 2b       	or	r24, r25
    379a:	09 f4       	brne	.+2      	; 0x379e <mmc_disk_ioctl+0x3a0>
    379c:	21 e0       	ldi	r18, 0x01	; 1
    379e:	c4 9a       	sbi	0x18, 4	; 24
    37a0:	8f ef       	ldi	r24, 0xFF	; 255
    37a2:	8f b9       	out	0x0f, r24	; 15
    37a4:	77 9b       	sbis	0x0e, 7	; 14
    37a6:	fe cf       	rjmp	.-4      	; 0x37a4 <mmc_disk_ioctl+0x3a6>
    37a8:	40 c1       	rjmp	.+640    	; 0x3a2a <mmc_disk_ioctl+0x62c>
    37aa:	1d b8       	out	0x0d, r1	; 13
    37ac:	87 b3       	in	r24, 0x17	; 23
    37ae:	8f 74       	andi	r24, 0x4F	; 79
    37b0:	87 bb       	out	0x17, r24	; 23
    37b2:	88 b3       	in	r24, 0x18	; 24
    37b4:	8f 74       	andi	r24, 0x4F	; 79
    37b6:	88 bb       	out	0x18, r24	; 24
    37b8:	88 b3       	in	r24, 0x18	; 24
    37ba:	8c 60       	ori	r24, 0x0C	; 12
    37bc:	88 bb       	out	0x18, r24	; 24
    37be:	80 91 d0 00 	lds	r24, 0x00D0
    37c2:	81 60       	ori	r24, 0x01	; 1
    37c4:	80 93 d0 00 	sts	0x00D0, r24
    37c8:	20 e0       	ldi	r18, 0x00	; 0
    37ca:	30 c1       	rjmp	.+608    	; 0x3a2c <mmc_disk_ioctl+0x62e>
    37cc:	fb 01       	movw	r30, r22
    37ce:	43 81       	ldd	r20, Z+3	; 0x03
    37d0:	54 81       	ldd	r21, Z+4	; 0x04
    37d2:	65 81       	ldd	r22, Z+5	; 0x05
    37d4:	76 81       	ldd	r23, Z+6	; 0x06
    37d6:	39 e0       	ldi	r19, 0x09	; 9
    37d8:	44 0f       	add	r20, r20
    37da:	55 1f       	adc	r21, r21
    37dc:	66 1f       	adc	r22, r22
    37de:	77 1f       	adc	r23, r23
    37e0:	3a 95       	dec	r19
    37e2:	d1 f7       	brne	.-12     	; 0x37d8 <mmc_disk_ioctl+0x3da>
    37e4:	70 68       	ori	r23, 0x80	; 128
    37e6:	80 81       	ld	r24, Z
    37e8:	90 e0       	ldi	r25, 0x00	; 0
    37ea:	a0 e0       	ldi	r26, 0x00	; 0
    37ec:	b0 e0       	ldi	r27, 0x00	; 0
    37ee:	2c e1       	ldi	r18, 0x1C	; 28
    37f0:	88 0f       	add	r24, r24
    37f2:	99 1f       	adc	r25, r25
    37f4:	aa 1f       	adc	r26, r26
    37f6:	bb 1f       	adc	r27, r27
    37f8:	2a 95       	dec	r18
    37fa:	d1 f7       	brne	.-12     	; 0x37f0 <mmc_disk_ioctl+0x3f2>
    37fc:	48 2b       	or	r20, r24
    37fe:	59 2b       	or	r21, r25
    3800:	6a 2b       	or	r22, r26
    3802:	7b 2b       	or	r23, r27
    3804:	81 81       	ldd	r24, Z+1	; 0x01
    3806:	92 81       	ldd	r25, Z+2	; 0x02
    3808:	01 97       	sbiw	r24, 0x01	; 1
    380a:	a0 e0       	ldi	r26, 0x00	; 0
    380c:	b0 e0       	ldi	r27, 0x00	; 0
    380e:	91 70       	andi	r25, 0x01	; 1
    3810:	a0 70       	andi	r26, 0x00	; 0
    3812:	b0 70       	andi	r27, 0x00	; 0
    3814:	48 2b       	or	r20, r24
    3816:	59 2b       	or	r21, r25
    3818:	6a 2b       	or	r22, r26
    381a:	7b 2b       	or	r23, r27
    381c:	80 e3       	ldi	r24, 0x30	; 48
    381e:	0e 94 e8 17 	call	0x2fd0	; 0x2fd0 <send_cmd>
    3822:	88 23       	and	r24, r24
    3824:	d1 f5       	brne	.+116    	; 0x389a <mmc_disk_ioctl+0x49c>
    3826:	84 e6       	ldi	r24, 0x64	; 100
    3828:	80 93 59 01 	sts	0x0159, r24
    382c:	9f ef       	ldi	r25, 0xFF	; 255
    382e:	9f b9       	out	0x0f, r25	; 15
    3830:	77 9b       	sbis	0x0e, 7	; 14
    3832:	fe cf       	rjmp	.-4      	; 0x3830 <mmc_disk_ioctl+0x432>
    3834:	8f b1       	in	r24, 0x0f	; 15
    3836:	8f 3f       	cpi	r24, 0xFF	; 255
    3838:	29 f4       	brne	.+10     	; 0x3844 <mmc_disk_ioctl+0x446>
    383a:	80 91 59 01 	lds	r24, 0x0159
    383e:	88 23       	and	r24, r24
    3840:	b1 f7       	brne	.-20     	; 0x382e <mmc_disk_ioctl+0x430>
    3842:	2b c0       	rjmp	.+86     	; 0x389a <mmc_disk_ioctl+0x49c>
    3844:	8e 3f       	cpi	r24, 0xFE	; 254
    3846:	49 f5       	brne	.+82     	; 0x389a <mmc_disk_ioctl+0x49c>
    3848:	d8 01       	movw	r26, r16
    384a:	17 96       	adiw	r26, 0x07	; 7
    384c:	ed 91       	ld	r30, X+
    384e:	fc 91       	ld	r31, X
    3850:	18 97       	sbiw	r26, 0x08	; 8
    3852:	11 96       	adiw	r26, 0x01	; 1
    3854:	2d 91       	ld	r18, X+
    3856:	3c 91       	ld	r19, X
    3858:	12 97       	sbiw	r26, 0x02	; 2
    385a:	9f ef       	ldi	r25, 0xFF	; 255
    385c:	07 c0       	rjmp	.+14     	; 0x386c <mmc_disk_ioctl+0x46e>
    385e:	9f b9       	out	0x0f, r25	; 15
    3860:	77 9b       	sbis	0x0e, 7	; 14
    3862:	fe cf       	rjmp	.-4      	; 0x3860 <mmc_disk_ioctl+0x462>
    3864:	8f b1       	in	r24, 0x0f	; 15
    3866:	81 93       	st	Z+, r24
    3868:	21 50       	subi	r18, 0x01	; 1
    386a:	30 40       	sbci	r19, 0x00	; 0
    386c:	21 15       	cp	r18, r1
    386e:	31 05       	cpc	r19, r1
    3870:	b1 f7       	brne	.-20     	; 0x385e <mmc_disk_ioctl+0x460>
    3872:	22 e0       	ldi	r18, 0x02	; 2
    3874:	32 e0       	ldi	r19, 0x02	; 2
    3876:	f8 01       	movw	r30, r16
    3878:	81 81       	ldd	r24, Z+1	; 0x01
    387a:	92 81       	ldd	r25, Z+2	; 0x02
    387c:	28 1b       	sub	r18, r24
    387e:	39 0b       	sbc	r19, r25
    3880:	8f ef       	ldi	r24, 0xFF	; 255
    3882:	06 c0       	rjmp	.+12     	; 0x3890 <mmc_disk_ioctl+0x492>
    3884:	8f b9       	out	0x0f, r24	; 15
    3886:	77 9b       	sbis	0x0e, 7	; 14
    3888:	fe cf       	rjmp	.-4      	; 0x3886 <mmc_disk_ioctl+0x488>
    388a:	9f b1       	in	r25, 0x0f	; 15
    388c:	21 50       	subi	r18, 0x01	; 1
    388e:	30 40       	sbci	r19, 0x00	; 0
    3890:	21 15       	cp	r18, r1
    3892:	31 05       	cpc	r19, r1
    3894:	b9 f7       	brne	.-18     	; 0x3884 <mmc_disk_ioctl+0x486>
    3896:	20 e0       	ldi	r18, 0x00	; 0
    3898:	01 c0       	rjmp	.+2      	; 0x389c <mmc_disk_ioctl+0x49e>
    389a:	21 e0       	ldi	r18, 0x01	; 1
    389c:	c4 9a       	sbi	0x18, 4	; 24
    389e:	8f ef       	ldi	r24, 0xFF	; 255
    38a0:	8f b9       	out	0x0f, r24	; 15
    38a2:	77 9b       	sbis	0x0e, 7	; 14
    38a4:	fe cf       	rjmp	.-4      	; 0x38a2 <mmc_disk_ioctl+0x4a4>
    38a6:	c1 c0       	rjmp	.+386    	; 0x3a2a <mmc_disk_ioctl+0x62c>
    38a8:	db 01       	movw	r26, r22
    38aa:	13 96       	adiw	r26, 0x03	; 3
    38ac:	4d 91       	ld	r20, X+
    38ae:	5d 91       	ld	r21, X+
    38b0:	6d 91       	ld	r22, X+
    38b2:	7c 91       	ld	r23, X
    38b4:	16 97       	sbiw	r26, 0x06	; 6
    38b6:	f9 e0       	ldi	r31, 0x09	; 9
    38b8:	44 0f       	add	r20, r20
    38ba:	55 1f       	adc	r21, r21
    38bc:	66 1f       	adc	r22, r22
    38be:	77 1f       	adc	r23, r23
    38c0:	fa 95       	dec	r31
    38c2:	d1 f7       	brne	.-12     	; 0x38b8 <mmc_disk_ioctl+0x4ba>
    38c4:	70 68       	ori	r23, 0x80	; 128
    38c6:	8c 91       	ld	r24, X
    38c8:	90 e0       	ldi	r25, 0x00	; 0
    38ca:	a0 e0       	ldi	r26, 0x00	; 0
    38cc:	b0 e0       	ldi	r27, 0x00	; 0
    38ce:	ec e1       	ldi	r30, 0x1C	; 28
    38d0:	88 0f       	add	r24, r24
    38d2:	99 1f       	adc	r25, r25
    38d4:	aa 1f       	adc	r26, r26
    38d6:	bb 1f       	adc	r27, r27
    38d8:	ea 95       	dec	r30
    38da:	d1 f7       	brne	.-12     	; 0x38d0 <mmc_disk_ioctl+0x4d2>
    38dc:	48 2b       	or	r20, r24
    38de:	59 2b       	or	r21, r25
    38e0:	6a 2b       	or	r22, r26
    38e2:	7b 2b       	or	r23, r27
    38e4:	f8 01       	movw	r30, r16
    38e6:	81 81       	ldd	r24, Z+1	; 0x01
    38e8:	92 81       	ldd	r25, Z+2	; 0x02
    38ea:	01 97       	sbiw	r24, 0x01	; 1
    38ec:	a0 e0       	ldi	r26, 0x00	; 0
    38ee:	b0 e0       	ldi	r27, 0x00	; 0
    38f0:	91 70       	andi	r25, 0x01	; 1
    38f2:	a0 70       	andi	r26, 0x00	; 0
    38f4:	b0 70       	andi	r27, 0x00	; 0
    38f6:	48 2b       	or	r20, r24
    38f8:	59 2b       	or	r21, r25
    38fa:	6a 2b       	or	r22, r26
    38fc:	7b 2b       	or	r23, r27
    38fe:	81 e3       	ldi	r24, 0x31	; 49
    3900:	0e 94 e8 17 	call	0x2fd0	; 0x2fd0 <send_cmd>
    3904:	88 23       	and	r24, r24
    3906:	c1 f5       	brne	.+112    	; 0x3978 <mmc_disk_ioctl+0x57a>
    3908:	8f ef       	ldi	r24, 0xFF	; 255
    390a:	8f b9       	out	0x0f, r24	; 15
    390c:	77 9b       	sbis	0x0e, 7	; 14
    390e:	fe cf       	rjmp	.-4      	; 0x390c <mmc_disk_ioctl+0x50e>
    3910:	8f b1       	in	r24, 0x0f	; 15
    3912:	8e ef       	ldi	r24, 0xFE	; 254
    3914:	8f b9       	out	0x0f, r24	; 15
    3916:	77 9b       	sbis	0x0e, 7	; 14
    3918:	fe cf       	rjmp	.-4      	; 0x3916 <mmc_disk_ioctl+0x518>
    391a:	8f b1       	in	r24, 0x0f	; 15
    391c:	d8 01       	movw	r26, r16
    391e:	17 96       	adiw	r26, 0x07	; 7
    3920:	ed 91       	ld	r30, X+
    3922:	fc 91       	ld	r31, X
    3924:	18 97       	sbiw	r26, 0x08	; 8
    3926:	11 96       	adiw	r26, 0x01	; 1
    3928:	6d 91       	ld	r22, X+
    392a:	7c 91       	ld	r23, X
    392c:	12 97       	sbiw	r26, 0x02	; 2
    392e:	9b 01       	movw	r18, r22
    3930:	08 c0       	rjmp	.+16     	; 0x3942 <mmc_disk_ioctl+0x544>
    3932:	80 81       	ld	r24, Z
    3934:	8f b9       	out	0x0f, r24	; 15
    3936:	77 9b       	sbis	0x0e, 7	; 14
    3938:	fe cf       	rjmp	.-4      	; 0x3936 <mmc_disk_ioctl+0x538>
    393a:	31 96       	adiw	r30, 0x01	; 1
    393c:	8f b1       	in	r24, 0x0f	; 15
    393e:	21 50       	subi	r18, 0x01	; 1
    3940:	30 40       	sbci	r19, 0x00	; 0
    3942:	21 15       	cp	r18, r1
    3944:	31 05       	cpc	r19, r1
    3946:	a9 f7       	brne	.-22     	; 0x3932 <mmc_disk_ioctl+0x534>
    3948:	22 e0       	ldi	r18, 0x02	; 2
    394a:	32 e0       	ldi	r19, 0x02	; 2
    394c:	26 1b       	sub	r18, r22
    394e:	37 0b       	sbc	r19, r23
    3950:	8f ef       	ldi	r24, 0xFF	; 255
    3952:	06 c0       	rjmp	.+12     	; 0x3960 <mmc_disk_ioctl+0x562>
    3954:	8f b9       	out	0x0f, r24	; 15
    3956:	77 9b       	sbis	0x0e, 7	; 14
    3958:	fe cf       	rjmp	.-4      	; 0x3956 <mmc_disk_ioctl+0x558>
    395a:	9f b1       	in	r25, 0x0f	; 15
    395c:	21 50       	subi	r18, 0x01	; 1
    395e:	30 40       	sbci	r19, 0x00	; 0
    3960:	21 15       	cp	r18, r1
    3962:	31 05       	cpc	r19, r1
    3964:	b9 f7       	brne	.-18     	; 0x3954 <mmc_disk_ioctl+0x556>
    3966:	8f ef       	ldi	r24, 0xFF	; 255
    3968:	8f b9       	out	0x0f, r24	; 15
    396a:	77 9b       	sbis	0x0e, 7	; 14
    396c:	fe cf       	rjmp	.-4      	; 0x396a <mmc_disk_ioctl+0x56c>
    396e:	8f b1       	in	r24, 0x0f	; 15
    3970:	20 e0       	ldi	r18, 0x00	; 0
    3972:	8f 71       	andi	r24, 0x1F	; 31
    3974:	85 30       	cpi	r24, 0x05	; 5
    3976:	09 f0       	breq	.+2      	; 0x397a <mmc_disk_ioctl+0x57c>
    3978:	21 e0       	ldi	r18, 0x01	; 1
    397a:	c4 9a       	sbi	0x18, 4	; 24
    397c:	8f ef       	ldi	r24, 0xFF	; 255
    397e:	8f b9       	out	0x0f, r24	; 15
    3980:	77 9b       	sbis	0x0e, 7	; 14
    3982:	fe cf       	rjmp	.-4      	; 0x3980 <mmc_disk_ioctl+0x582>
    3984:	52 c0       	rjmp	.+164    	; 0x3a2a <mmc_disk_ioctl+0x62c>
    3986:	fb 01       	movw	r30, r22
    3988:	43 81       	ldd	r20, Z+3	; 0x03
    398a:	54 81       	ldd	r21, Z+4	; 0x04
    398c:	65 81       	ldd	r22, Z+5	; 0x05
    398e:	76 81       	ldd	r23, Z+6	; 0x06
    3990:	39 e0       	ldi	r19, 0x09	; 9
    3992:	44 0f       	add	r20, r20
    3994:	55 1f       	adc	r21, r21
    3996:	66 1f       	adc	r22, r22
    3998:	77 1f       	adc	r23, r23
    399a:	3a 95       	dec	r19
    399c:	d1 f7       	brne	.-12     	; 0x3992 <mmc_disk_ioctl+0x594>
    399e:	74 68       	ori	r23, 0x84	; 132
    39a0:	80 81       	ld	r24, Z
    39a2:	90 e0       	ldi	r25, 0x00	; 0
    39a4:	a0 e0       	ldi	r26, 0x00	; 0
    39a6:	b0 e0       	ldi	r27, 0x00	; 0
    39a8:	2c e1       	ldi	r18, 0x1C	; 28
    39aa:	88 0f       	add	r24, r24
    39ac:	99 1f       	adc	r25, r25
    39ae:	aa 1f       	adc	r26, r26
    39b0:	bb 1f       	adc	r27, r27
    39b2:	2a 95       	dec	r18
    39b4:	d1 f7       	brne	.-12     	; 0x39aa <mmc_disk_ioctl+0x5ac>
    39b6:	48 2b       	or	r20, r24
    39b8:	59 2b       	or	r21, r25
    39ba:	6a 2b       	or	r22, r26
    39bc:	7b 2b       	or	r23, r27
    39be:	82 81       	ldd	r24, Z+2	; 0x02
    39c0:	90 e0       	ldi	r25, 0x00	; 0
    39c2:	a0 e0       	ldi	r26, 0x00	; 0
    39c4:	b0 e0       	ldi	r27, 0x00	; 0
    39c6:	48 2b       	or	r20, r24
    39c8:	59 2b       	or	r21, r25
    39ca:	6a 2b       	or	r22, r26
    39cc:	7b 2b       	or	r23, r27
    39ce:	81 e3       	ldi	r24, 0x31	; 49
    39d0:	0e 94 e8 17 	call	0x2fd0	; 0x2fd0 <send_cmd>
    39d4:	88 23       	and	r24, r24
    39d6:	19 f5       	brne	.+70     	; 0x3a1e <mmc_disk_ioctl+0x620>
    39d8:	8f ef       	ldi	r24, 0xFF	; 255
    39da:	8f b9       	out	0x0f, r24	; 15
    39dc:	77 9b       	sbis	0x0e, 7	; 14
    39de:	fe cf       	rjmp	.-4      	; 0x39dc <mmc_disk_ioctl+0x5de>
    39e0:	8f b1       	in	r24, 0x0f	; 15
    39e2:	8e ef       	ldi	r24, 0xFE	; 254
    39e4:	8f b9       	out	0x0f, r24	; 15
    39e6:	77 9b       	sbis	0x0e, 7	; 14
    39e8:	fe cf       	rjmp	.-4      	; 0x39e6 <mmc_disk_ioctl+0x5e8>
    39ea:	8f b1       	in	r24, 0x0f	; 15
    39ec:	d8 01       	movw	r26, r16
    39ee:	11 96       	adiw	r26, 0x01	; 1
    39f0:	8c 91       	ld	r24, X
    39f2:	8f b9       	out	0x0f, r24	; 15
    39f4:	77 9b       	sbis	0x0e, 7	; 14
    39f6:	fe cf       	rjmp	.-4      	; 0x39f4 <mmc_disk_ioctl+0x5f6>
    39f8:	8f b1       	in	r24, 0x0f	; 15
    39fa:	81 e0       	ldi	r24, 0x01	; 1
    39fc:	92 e0       	ldi	r25, 0x02	; 2
    39fe:	2f ef       	ldi	r18, 0xFF	; 255
    3a00:	2f b9       	out	0x0f, r18	; 15
    3a02:	77 9b       	sbis	0x0e, 7	; 14
    3a04:	fe cf       	rjmp	.-4      	; 0x3a02 <mmc_disk_ioctl+0x604>
    3a06:	3f b1       	in	r19, 0x0f	; 15
    3a08:	01 97       	sbiw	r24, 0x01	; 1
    3a0a:	d1 f7       	brne	.-12     	; 0x3a00 <mmc_disk_ioctl+0x602>
    3a0c:	8f ef       	ldi	r24, 0xFF	; 255
    3a0e:	8f b9       	out	0x0f, r24	; 15
    3a10:	77 9b       	sbis	0x0e, 7	; 14
    3a12:	fe cf       	rjmp	.-4      	; 0x3a10 <mmc_disk_ioctl+0x612>
    3a14:	8f b1       	in	r24, 0x0f	; 15
    3a16:	20 e0       	ldi	r18, 0x00	; 0
    3a18:	8f 71       	andi	r24, 0x1F	; 31
    3a1a:	85 30       	cpi	r24, 0x05	; 5
    3a1c:	09 f0       	breq	.+2      	; 0x3a20 <mmc_disk_ioctl+0x622>
    3a1e:	21 e0       	ldi	r18, 0x01	; 1
    3a20:	c4 9a       	sbi	0x18, 4	; 24
    3a22:	8f ef       	ldi	r24, 0xFF	; 255
    3a24:	8f b9       	out	0x0f, r24	; 15
    3a26:	77 9b       	sbis	0x0e, 7	; 14
    3a28:	fe cf       	rjmp	.-4      	; 0x3a26 <mmc_disk_ioctl+0x628>
    3a2a:	8f b1       	in	r24, 0x0f	; 15
    3a2c:	82 2f       	mov	r24, r18
    3a2e:	60 96       	adiw	r28, 0x10	; 16
    3a30:	0f b6       	in	r0, 0x3f	; 63
    3a32:	f8 94       	cli
    3a34:	de bf       	out	0x3e, r29	; 62
    3a36:	0f be       	out	0x3f, r0	; 63
    3a38:	cd bf       	out	0x3d, r28	; 61
    3a3a:	cf 91       	pop	r28
    3a3c:	df 91       	pop	r29
    3a3e:	1f 91       	pop	r17
    3a40:	0f 91       	pop	r16
    3a42:	ff 90       	pop	r15
    3a44:	08 95       	ret

00003a46 <mmc_disk_timerproc>:
    3a46:	80 91 59 01 	lds	r24, 0x0159
    3a4a:	88 23       	and	r24, r24
    3a4c:	19 f0       	breq	.+6      	; 0x3a54 <mmc_disk_timerproc+0xe>
    3a4e:	81 50       	subi	r24, 0x01	; 1
    3a50:	80 93 59 01 	sts	0x0159, r24
    3a54:	80 91 5a 01 	lds	r24, 0x015A
    3a58:	90 91 5b 01 	lds	r25, 0x015B
    3a5c:	00 97       	sbiw	r24, 0x00	; 0
    3a5e:	29 f0       	breq	.+10     	; 0x3a6a <mmc_disk_timerproc+0x24>
    3a60:	01 97       	sbiw	r24, 0x01	; 1
    3a62:	90 93 5b 01 	sts	0x015B, r25
    3a66:	80 93 5a 01 	sts	0x015A, r24
    3a6a:	80 91 d0 00 	lds	r24, 0x00D0
    3a6e:	89 7f       	andi	r24, 0xF9	; 249
    3a70:	80 93 d0 00 	sts	0x00D0, r24
    3a74:	08 95       	ret

00003a76 <__mulsi3>:
    3a76:	62 9f       	mul	r22, r18
    3a78:	d0 01       	movw	r26, r0
    3a7a:	73 9f       	mul	r23, r19
    3a7c:	f0 01       	movw	r30, r0
    3a7e:	82 9f       	mul	r24, r18
    3a80:	e0 0d       	add	r30, r0
    3a82:	f1 1d       	adc	r31, r1
    3a84:	64 9f       	mul	r22, r20
    3a86:	e0 0d       	add	r30, r0
    3a88:	f1 1d       	adc	r31, r1
    3a8a:	92 9f       	mul	r25, r18
    3a8c:	f0 0d       	add	r31, r0
    3a8e:	83 9f       	mul	r24, r19
    3a90:	f0 0d       	add	r31, r0
    3a92:	74 9f       	mul	r23, r20
    3a94:	f0 0d       	add	r31, r0
    3a96:	65 9f       	mul	r22, r21
    3a98:	f0 0d       	add	r31, r0
    3a9a:	99 27       	eor	r25, r25
    3a9c:	72 9f       	mul	r23, r18
    3a9e:	b0 0d       	add	r27, r0
    3aa0:	e1 1d       	adc	r30, r1
    3aa2:	f9 1f       	adc	r31, r25
    3aa4:	63 9f       	mul	r22, r19
    3aa6:	b0 0d       	add	r27, r0
    3aa8:	e1 1d       	adc	r30, r1
    3aaa:	f9 1f       	adc	r31, r25
    3aac:	bd 01       	movw	r22, r26
    3aae:	cf 01       	movw	r24, r30
    3ab0:	11 24       	eor	r1, r1
    3ab2:	08 95       	ret

00003ab4 <__udivmodhi4>:
    3ab4:	aa 1b       	sub	r26, r26
    3ab6:	bb 1b       	sub	r27, r27
    3ab8:	51 e1       	ldi	r21, 0x11	; 17
    3aba:	07 c0       	rjmp	.+14     	; 0x3aca <__udivmodhi4_ep>

00003abc <__udivmodhi4_loop>:
    3abc:	aa 1f       	adc	r26, r26
    3abe:	bb 1f       	adc	r27, r27
    3ac0:	a6 17       	cp	r26, r22
    3ac2:	b7 07       	cpc	r27, r23
    3ac4:	10 f0       	brcs	.+4      	; 0x3aca <__udivmodhi4_ep>
    3ac6:	a6 1b       	sub	r26, r22
    3ac8:	b7 0b       	sbc	r27, r23

00003aca <__udivmodhi4_ep>:
    3aca:	88 1f       	adc	r24, r24
    3acc:	99 1f       	adc	r25, r25
    3ace:	5a 95       	dec	r21
    3ad0:	a9 f7       	brne	.-22     	; 0x3abc <__udivmodhi4_loop>
    3ad2:	80 95       	com	r24
    3ad4:	90 95       	com	r25
    3ad6:	bc 01       	movw	r22, r24
    3ad8:	cd 01       	movw	r24, r26
    3ada:	08 95       	ret

00003adc <__udivmodsi4>:
    3adc:	a1 e2       	ldi	r26, 0x21	; 33
    3ade:	1a 2e       	mov	r1, r26
    3ae0:	aa 1b       	sub	r26, r26
    3ae2:	bb 1b       	sub	r27, r27
    3ae4:	fd 01       	movw	r30, r26
    3ae6:	0d c0       	rjmp	.+26     	; 0x3b02 <__udivmodsi4_ep>

00003ae8 <__udivmodsi4_loop>:
    3ae8:	aa 1f       	adc	r26, r26
    3aea:	bb 1f       	adc	r27, r27
    3aec:	ee 1f       	adc	r30, r30
    3aee:	ff 1f       	adc	r31, r31
    3af0:	a2 17       	cp	r26, r18
    3af2:	b3 07       	cpc	r27, r19
    3af4:	e4 07       	cpc	r30, r20
    3af6:	f5 07       	cpc	r31, r21
    3af8:	20 f0       	brcs	.+8      	; 0x3b02 <__udivmodsi4_ep>
    3afa:	a2 1b       	sub	r26, r18
    3afc:	b3 0b       	sbc	r27, r19
    3afe:	e4 0b       	sbc	r30, r20
    3b00:	f5 0b       	sbc	r31, r21

00003b02 <__udivmodsi4_ep>:
    3b02:	66 1f       	adc	r22, r22
    3b04:	77 1f       	adc	r23, r23
    3b06:	88 1f       	adc	r24, r24
    3b08:	99 1f       	adc	r25, r25
    3b0a:	1a 94       	dec	r1
    3b0c:	69 f7       	brne	.-38     	; 0x3ae8 <__udivmodsi4_loop>
    3b0e:	60 95       	com	r22
    3b10:	70 95       	com	r23
    3b12:	80 95       	com	r24
    3b14:	90 95       	com	r25
    3b16:	9b 01       	movw	r18, r22
    3b18:	ac 01       	movw	r20, r24
    3b1a:	bd 01       	movw	r22, r26
    3b1c:	cf 01       	movw	r24, r30
    3b1e:	08 95       	ret

00003b20 <memcmp>:
    3b20:	fb 01       	movw	r30, r22
    3b22:	dc 01       	movw	r26, r24
    3b24:	04 c0       	rjmp	.+8      	; 0x3b2e <memcmp+0xe>
    3b26:	8d 91       	ld	r24, X+
    3b28:	01 90       	ld	r0, Z+
    3b2a:	80 19       	sub	r24, r0
    3b2c:	21 f4       	brne	.+8      	; 0x3b36 <memcmp+0x16>
    3b2e:	41 50       	subi	r20, 0x01	; 1
    3b30:	50 40       	sbci	r21, 0x00	; 0
    3b32:	c8 f7       	brcc	.-14     	; 0x3b26 <memcmp+0x6>
    3b34:	88 1b       	sub	r24, r24
    3b36:	99 0b       	sbc	r25, r25
    3b38:	08 95       	ret

00003b3a <memcpy>:
    3b3a:	fb 01       	movw	r30, r22
    3b3c:	dc 01       	movw	r26, r24
    3b3e:	02 c0       	rjmp	.+4      	; 0x3b44 <memcpy+0xa>
    3b40:	01 90       	ld	r0, Z+
    3b42:	0d 92       	st	X+, r0
    3b44:	41 50       	subi	r20, 0x01	; 1
    3b46:	50 40       	sbci	r21, 0x00	; 0
    3b48:	d8 f7       	brcc	.-10     	; 0x3b40 <memcpy+0x6>
    3b4a:	08 95       	ret

00003b4c <memset>:
    3b4c:	dc 01       	movw	r26, r24
    3b4e:	01 c0       	rjmp	.+2      	; 0x3b52 <memset+0x6>
    3b50:	6d 93       	st	X+, r22
    3b52:	41 50       	subi	r20, 0x01	; 1
    3b54:	50 40       	sbci	r21, 0x00	; 0
    3b56:	e0 f7       	brcc	.-8      	; 0x3b50 <memset+0x4>
    3b58:	08 95       	ret

00003b5a <strchr>:
    3b5a:	fc 01       	movw	r30, r24
    3b5c:	81 91       	ld	r24, Z+
    3b5e:	86 17       	cp	r24, r22
    3b60:	21 f0       	breq	.+8      	; 0x3b6a <strchr+0x10>
    3b62:	88 23       	and	r24, r24
    3b64:	d9 f7       	brne	.-10     	; 0x3b5c <strchr+0x2>
    3b66:	99 27       	eor	r25, r25
    3b68:	08 95       	ret
    3b6a:	31 97       	sbiw	r30, 0x01	; 1
    3b6c:	cf 01       	movw	r24, r30
    3b6e:	08 95       	ret

00003b70 <strcpy>:
    3b70:	fb 01       	movw	r30, r22
    3b72:	dc 01       	movw	r26, r24
    3b74:	01 90       	ld	r0, Z+
    3b76:	0d 92       	st	X+, r0
    3b78:	00 20       	and	r0, r0
    3b7a:	e1 f7       	brne	.-8      	; 0x3b74 <strcpy+0x4>
    3b7c:	08 95       	ret

00003b7e <sprintf>:
    3b7e:	ae e0       	ldi	r26, 0x0E	; 14
    3b80:	b0 e0       	ldi	r27, 0x00	; 0
    3b82:	e5 ec       	ldi	r30, 0xC5	; 197
    3b84:	fd e1       	ldi	r31, 0x1D	; 29
    3b86:	0c 94 6e 20 	jmp	0x40dc	; 0x40dc <__prologue_saves__+0x1c>
    3b8a:	0d 89       	ldd	r16, Y+21	; 0x15
    3b8c:	1e 89       	ldd	r17, Y+22	; 0x16
    3b8e:	86 e0       	ldi	r24, 0x06	; 6
    3b90:	8c 83       	std	Y+4, r24	; 0x04
    3b92:	1a 83       	std	Y+2, r17	; 0x02
    3b94:	09 83       	std	Y+1, r16	; 0x01
    3b96:	8f ef       	ldi	r24, 0xFF	; 255
    3b98:	9f e7       	ldi	r25, 0x7F	; 127
    3b9a:	9e 83       	std	Y+6, r25	; 0x06
    3b9c:	8d 83       	std	Y+5, r24	; 0x05
    3b9e:	9e 01       	movw	r18, r28
    3ba0:	27 5e       	subi	r18, 0xE7	; 231
    3ba2:	3f 4f       	sbci	r19, 0xFF	; 255
    3ba4:	ce 01       	movw	r24, r28
    3ba6:	01 96       	adiw	r24, 0x01	; 1
    3ba8:	6f 89       	ldd	r22, Y+23	; 0x17
    3baa:	78 8d       	ldd	r23, Y+24	; 0x18
    3bac:	a9 01       	movw	r20, r18
    3bae:	0e 94 e3 1d 	call	0x3bc6	; 0x3bc6 <vfprintf>
    3bb2:	2f 81       	ldd	r18, Y+7	; 0x07
    3bb4:	38 85       	ldd	r19, Y+8	; 0x08
    3bb6:	02 0f       	add	r16, r18
    3bb8:	13 1f       	adc	r17, r19
    3bba:	f8 01       	movw	r30, r16
    3bbc:	10 82       	st	Z, r1
    3bbe:	2e 96       	adiw	r28, 0x0e	; 14
    3bc0:	e4 e0       	ldi	r30, 0x04	; 4
    3bc2:	0c 94 8a 20 	jmp	0x4114	; 0x4114 <__epilogue_restores__+0x1c>

00003bc6 <vfprintf>:
    3bc6:	ab e0       	ldi	r26, 0x0B	; 11
    3bc8:	b0 e0       	ldi	r27, 0x00	; 0
    3bca:	e9 ee       	ldi	r30, 0xE9	; 233
    3bcc:	fd e1       	ldi	r31, 0x1D	; 29
    3bce:	0c 94 60 20 	jmp	0x40c0	; 0x40c0 <__prologue_saves__>
    3bd2:	3c 01       	movw	r6, r24
    3bd4:	2b 01       	movw	r4, r22
    3bd6:	5a 01       	movw	r10, r20
    3bd8:	fc 01       	movw	r30, r24
    3bda:	17 82       	std	Z+7, r1	; 0x07
    3bdc:	16 82       	std	Z+6, r1	; 0x06
    3bde:	83 81       	ldd	r24, Z+3	; 0x03
    3be0:	81 fd       	sbrc	r24, 1
    3be2:	03 c0       	rjmp	.+6      	; 0x3bea <vfprintf+0x24>
    3be4:	6f ef       	ldi	r22, 0xFF	; 255
    3be6:	7f ef       	ldi	r23, 0xFF	; 255
    3be8:	c6 c1       	rjmp	.+908    	; 0x3f76 <vfprintf+0x3b0>
    3bea:	9a e0       	ldi	r25, 0x0A	; 10
    3bec:	89 2e       	mov	r8, r25
    3bee:	1e 01       	movw	r2, r28
    3bf0:	08 94       	sec
    3bf2:	21 1c       	adc	r2, r1
    3bf4:	31 1c       	adc	r3, r1
    3bf6:	f3 01       	movw	r30, r6
    3bf8:	23 81       	ldd	r18, Z+3	; 0x03
    3bfa:	f2 01       	movw	r30, r4
    3bfc:	23 fd       	sbrc	r18, 3
    3bfe:	85 91       	lpm	r24, Z+
    3c00:	23 ff       	sbrs	r18, 3
    3c02:	81 91       	ld	r24, Z+
    3c04:	2f 01       	movw	r4, r30
    3c06:	88 23       	and	r24, r24
    3c08:	09 f4       	brne	.+2      	; 0x3c0c <vfprintf+0x46>
    3c0a:	b2 c1       	rjmp	.+868    	; 0x3f70 <vfprintf+0x3aa>
    3c0c:	85 32       	cpi	r24, 0x25	; 37
    3c0e:	39 f4       	brne	.+14     	; 0x3c1e <vfprintf+0x58>
    3c10:	23 fd       	sbrc	r18, 3
    3c12:	85 91       	lpm	r24, Z+
    3c14:	23 ff       	sbrs	r18, 3
    3c16:	81 91       	ld	r24, Z+
    3c18:	2f 01       	movw	r4, r30
    3c1a:	85 32       	cpi	r24, 0x25	; 37
    3c1c:	29 f4       	brne	.+10     	; 0x3c28 <vfprintf+0x62>
    3c1e:	90 e0       	ldi	r25, 0x00	; 0
    3c20:	b3 01       	movw	r22, r6
    3c22:	0e 94 d6 1f 	call	0x3fac	; 0x3fac <fputc>
    3c26:	e7 cf       	rjmp	.-50     	; 0x3bf6 <vfprintf+0x30>
    3c28:	98 2f       	mov	r25, r24
    3c2a:	ff 24       	eor	r15, r15
    3c2c:	ee 24       	eor	r14, r14
    3c2e:	99 24       	eor	r9, r9
    3c30:	ff e1       	ldi	r31, 0x1F	; 31
    3c32:	ff 15       	cp	r31, r15
    3c34:	d0 f0       	brcs	.+52     	; 0x3c6a <vfprintf+0xa4>
    3c36:	9b 32       	cpi	r25, 0x2B	; 43
    3c38:	69 f0       	breq	.+26     	; 0x3c54 <vfprintf+0x8e>
    3c3a:	9c 32       	cpi	r25, 0x2C	; 44
    3c3c:	28 f4       	brcc	.+10     	; 0x3c48 <vfprintf+0x82>
    3c3e:	90 32       	cpi	r25, 0x20	; 32
    3c40:	59 f0       	breq	.+22     	; 0x3c58 <vfprintf+0x92>
    3c42:	93 32       	cpi	r25, 0x23	; 35
    3c44:	91 f4       	brne	.+36     	; 0x3c6a <vfprintf+0xa4>
    3c46:	0e c0       	rjmp	.+28     	; 0x3c64 <vfprintf+0x9e>
    3c48:	9d 32       	cpi	r25, 0x2D	; 45
    3c4a:	49 f0       	breq	.+18     	; 0x3c5e <vfprintf+0x98>
    3c4c:	90 33       	cpi	r25, 0x30	; 48
    3c4e:	69 f4       	brne	.+26     	; 0x3c6a <vfprintf+0xa4>
    3c50:	41 e0       	ldi	r20, 0x01	; 1
    3c52:	24 c0       	rjmp	.+72     	; 0x3c9c <vfprintf+0xd6>
    3c54:	52 e0       	ldi	r21, 0x02	; 2
    3c56:	f5 2a       	or	r15, r21
    3c58:	84 e0       	ldi	r24, 0x04	; 4
    3c5a:	f8 2a       	or	r15, r24
    3c5c:	28 c0       	rjmp	.+80     	; 0x3cae <vfprintf+0xe8>
    3c5e:	98 e0       	ldi	r25, 0x08	; 8
    3c60:	f9 2a       	or	r15, r25
    3c62:	25 c0       	rjmp	.+74     	; 0x3cae <vfprintf+0xe8>
    3c64:	e0 e1       	ldi	r30, 0x10	; 16
    3c66:	fe 2a       	or	r15, r30
    3c68:	22 c0       	rjmp	.+68     	; 0x3cae <vfprintf+0xe8>
    3c6a:	f7 fc       	sbrc	r15, 7
    3c6c:	29 c0       	rjmp	.+82     	; 0x3cc0 <vfprintf+0xfa>
    3c6e:	89 2f       	mov	r24, r25
    3c70:	80 53       	subi	r24, 0x30	; 48
    3c72:	8a 30       	cpi	r24, 0x0A	; 10
    3c74:	70 f4       	brcc	.+28     	; 0x3c92 <vfprintf+0xcc>
    3c76:	f6 fe       	sbrs	r15, 6
    3c78:	05 c0       	rjmp	.+10     	; 0x3c84 <vfprintf+0xbe>
    3c7a:	98 9c       	mul	r9, r8
    3c7c:	90 2c       	mov	r9, r0
    3c7e:	11 24       	eor	r1, r1
    3c80:	98 0e       	add	r9, r24
    3c82:	15 c0       	rjmp	.+42     	; 0x3cae <vfprintf+0xe8>
    3c84:	e8 9c       	mul	r14, r8
    3c86:	e0 2c       	mov	r14, r0
    3c88:	11 24       	eor	r1, r1
    3c8a:	e8 0e       	add	r14, r24
    3c8c:	f0 e2       	ldi	r31, 0x20	; 32
    3c8e:	ff 2a       	or	r15, r31
    3c90:	0e c0       	rjmp	.+28     	; 0x3cae <vfprintf+0xe8>
    3c92:	9e 32       	cpi	r25, 0x2E	; 46
    3c94:	29 f4       	brne	.+10     	; 0x3ca0 <vfprintf+0xda>
    3c96:	f6 fc       	sbrc	r15, 6
    3c98:	6b c1       	rjmp	.+726    	; 0x3f70 <vfprintf+0x3aa>
    3c9a:	40 e4       	ldi	r20, 0x40	; 64
    3c9c:	f4 2a       	or	r15, r20
    3c9e:	07 c0       	rjmp	.+14     	; 0x3cae <vfprintf+0xe8>
    3ca0:	9c 36       	cpi	r25, 0x6C	; 108
    3ca2:	19 f4       	brne	.+6      	; 0x3caa <vfprintf+0xe4>
    3ca4:	50 e8       	ldi	r21, 0x80	; 128
    3ca6:	f5 2a       	or	r15, r21
    3ca8:	02 c0       	rjmp	.+4      	; 0x3cae <vfprintf+0xe8>
    3caa:	98 36       	cpi	r25, 0x68	; 104
    3cac:	49 f4       	brne	.+18     	; 0x3cc0 <vfprintf+0xfa>
    3cae:	f2 01       	movw	r30, r4
    3cb0:	23 fd       	sbrc	r18, 3
    3cb2:	95 91       	lpm	r25, Z+
    3cb4:	23 ff       	sbrs	r18, 3
    3cb6:	91 91       	ld	r25, Z+
    3cb8:	2f 01       	movw	r4, r30
    3cba:	99 23       	and	r25, r25
    3cbc:	09 f0       	breq	.+2      	; 0x3cc0 <vfprintf+0xfa>
    3cbe:	b8 cf       	rjmp	.-144    	; 0x3c30 <vfprintf+0x6a>
    3cc0:	89 2f       	mov	r24, r25
    3cc2:	85 54       	subi	r24, 0x45	; 69
    3cc4:	83 30       	cpi	r24, 0x03	; 3
    3cc6:	18 f0       	brcs	.+6      	; 0x3cce <vfprintf+0x108>
    3cc8:	80 52       	subi	r24, 0x20	; 32
    3cca:	83 30       	cpi	r24, 0x03	; 3
    3ccc:	38 f4       	brcc	.+14     	; 0x3cdc <vfprintf+0x116>
    3cce:	44 e0       	ldi	r20, 0x04	; 4
    3cd0:	50 e0       	ldi	r21, 0x00	; 0
    3cd2:	a4 0e       	add	r10, r20
    3cd4:	b5 1e       	adc	r11, r21
    3cd6:	5f e3       	ldi	r21, 0x3F	; 63
    3cd8:	59 83       	std	Y+1, r21	; 0x01
    3cda:	0f c0       	rjmp	.+30     	; 0x3cfa <vfprintf+0x134>
    3cdc:	93 36       	cpi	r25, 0x63	; 99
    3cde:	31 f0       	breq	.+12     	; 0x3cec <vfprintf+0x126>
    3ce0:	93 37       	cpi	r25, 0x73	; 115
    3ce2:	79 f0       	breq	.+30     	; 0x3d02 <vfprintf+0x13c>
    3ce4:	93 35       	cpi	r25, 0x53	; 83
    3ce6:	09 f0       	breq	.+2      	; 0x3cea <vfprintf+0x124>
    3ce8:	56 c0       	rjmp	.+172    	; 0x3d96 <vfprintf+0x1d0>
    3cea:	20 c0       	rjmp	.+64     	; 0x3d2c <vfprintf+0x166>
    3cec:	f5 01       	movw	r30, r10
    3cee:	80 81       	ld	r24, Z
    3cf0:	89 83       	std	Y+1, r24	; 0x01
    3cf2:	42 e0       	ldi	r20, 0x02	; 2
    3cf4:	50 e0       	ldi	r21, 0x00	; 0
    3cf6:	a4 0e       	add	r10, r20
    3cf8:	b5 1e       	adc	r11, r21
    3cfa:	61 01       	movw	r12, r2
    3cfc:	01 e0       	ldi	r16, 0x01	; 1
    3cfe:	10 e0       	ldi	r17, 0x00	; 0
    3d00:	12 c0       	rjmp	.+36     	; 0x3d26 <vfprintf+0x160>
    3d02:	f5 01       	movw	r30, r10
    3d04:	c0 80       	ld	r12, Z
    3d06:	d1 80       	ldd	r13, Z+1	; 0x01
    3d08:	f6 fc       	sbrc	r15, 6
    3d0a:	03 c0       	rjmp	.+6      	; 0x3d12 <vfprintf+0x14c>
    3d0c:	6f ef       	ldi	r22, 0xFF	; 255
    3d0e:	7f ef       	ldi	r23, 0xFF	; 255
    3d10:	02 c0       	rjmp	.+4      	; 0x3d16 <vfprintf+0x150>
    3d12:	69 2d       	mov	r22, r9
    3d14:	70 e0       	ldi	r23, 0x00	; 0
    3d16:	42 e0       	ldi	r20, 0x02	; 2
    3d18:	50 e0       	ldi	r21, 0x00	; 0
    3d1a:	a4 0e       	add	r10, r20
    3d1c:	b5 1e       	adc	r11, r21
    3d1e:	c6 01       	movw	r24, r12
    3d20:	0e 94 cb 1f 	call	0x3f96	; 0x3f96 <strnlen>
    3d24:	8c 01       	movw	r16, r24
    3d26:	5f e7       	ldi	r21, 0x7F	; 127
    3d28:	f5 22       	and	r15, r21
    3d2a:	14 c0       	rjmp	.+40     	; 0x3d54 <vfprintf+0x18e>
    3d2c:	f5 01       	movw	r30, r10
    3d2e:	c0 80       	ld	r12, Z
    3d30:	d1 80       	ldd	r13, Z+1	; 0x01
    3d32:	f6 fc       	sbrc	r15, 6
    3d34:	03 c0       	rjmp	.+6      	; 0x3d3c <vfprintf+0x176>
    3d36:	6f ef       	ldi	r22, 0xFF	; 255
    3d38:	7f ef       	ldi	r23, 0xFF	; 255
    3d3a:	02 c0       	rjmp	.+4      	; 0x3d40 <vfprintf+0x17a>
    3d3c:	69 2d       	mov	r22, r9
    3d3e:	70 e0       	ldi	r23, 0x00	; 0
    3d40:	42 e0       	ldi	r20, 0x02	; 2
    3d42:	50 e0       	ldi	r21, 0x00	; 0
    3d44:	a4 0e       	add	r10, r20
    3d46:	b5 1e       	adc	r11, r21
    3d48:	c6 01       	movw	r24, r12
    3d4a:	0e 94 c0 1f 	call	0x3f80	; 0x3f80 <strnlen_P>
    3d4e:	8c 01       	movw	r16, r24
    3d50:	50 e8       	ldi	r21, 0x80	; 128
    3d52:	f5 2a       	or	r15, r21
    3d54:	f3 fe       	sbrs	r15, 3
    3d56:	07 c0       	rjmp	.+14     	; 0x3d66 <vfprintf+0x1a0>
    3d58:	1a c0       	rjmp	.+52     	; 0x3d8e <vfprintf+0x1c8>
    3d5a:	80 e2       	ldi	r24, 0x20	; 32
    3d5c:	90 e0       	ldi	r25, 0x00	; 0
    3d5e:	b3 01       	movw	r22, r6
    3d60:	0e 94 d6 1f 	call	0x3fac	; 0x3fac <fputc>
    3d64:	ea 94       	dec	r14
    3d66:	8e 2d       	mov	r24, r14
    3d68:	90 e0       	ldi	r25, 0x00	; 0
    3d6a:	08 17       	cp	r16, r24
    3d6c:	19 07       	cpc	r17, r25
    3d6e:	a8 f3       	brcs	.-22     	; 0x3d5a <vfprintf+0x194>
    3d70:	0e c0       	rjmp	.+28     	; 0x3d8e <vfprintf+0x1c8>
    3d72:	f6 01       	movw	r30, r12
    3d74:	f7 fc       	sbrc	r15, 7
    3d76:	85 91       	lpm	r24, Z+
    3d78:	f7 fe       	sbrs	r15, 7
    3d7a:	81 91       	ld	r24, Z+
    3d7c:	6f 01       	movw	r12, r30
    3d7e:	90 e0       	ldi	r25, 0x00	; 0
    3d80:	b3 01       	movw	r22, r6
    3d82:	0e 94 d6 1f 	call	0x3fac	; 0x3fac <fputc>
    3d86:	e1 10       	cpse	r14, r1
    3d88:	ea 94       	dec	r14
    3d8a:	01 50       	subi	r16, 0x01	; 1
    3d8c:	10 40       	sbci	r17, 0x00	; 0
    3d8e:	01 15       	cp	r16, r1
    3d90:	11 05       	cpc	r17, r1
    3d92:	79 f7       	brne	.-34     	; 0x3d72 <vfprintf+0x1ac>
    3d94:	ea c0       	rjmp	.+468    	; 0x3f6a <vfprintf+0x3a4>
    3d96:	94 36       	cpi	r25, 0x64	; 100
    3d98:	11 f0       	breq	.+4      	; 0x3d9e <vfprintf+0x1d8>
    3d9a:	99 36       	cpi	r25, 0x69	; 105
    3d9c:	69 f5       	brne	.+90     	; 0x3df8 <vfprintf+0x232>
    3d9e:	f7 fe       	sbrs	r15, 7
    3da0:	08 c0       	rjmp	.+16     	; 0x3db2 <vfprintf+0x1ec>
    3da2:	f5 01       	movw	r30, r10
    3da4:	20 81       	ld	r18, Z
    3da6:	31 81       	ldd	r19, Z+1	; 0x01
    3da8:	42 81       	ldd	r20, Z+2	; 0x02
    3daa:	53 81       	ldd	r21, Z+3	; 0x03
    3dac:	84 e0       	ldi	r24, 0x04	; 4
    3dae:	90 e0       	ldi	r25, 0x00	; 0
    3db0:	0a c0       	rjmp	.+20     	; 0x3dc6 <vfprintf+0x200>
    3db2:	f5 01       	movw	r30, r10
    3db4:	80 81       	ld	r24, Z
    3db6:	91 81       	ldd	r25, Z+1	; 0x01
    3db8:	9c 01       	movw	r18, r24
    3dba:	44 27       	eor	r20, r20
    3dbc:	37 fd       	sbrc	r19, 7
    3dbe:	40 95       	com	r20
    3dc0:	54 2f       	mov	r21, r20
    3dc2:	82 e0       	ldi	r24, 0x02	; 2
    3dc4:	90 e0       	ldi	r25, 0x00	; 0
    3dc6:	a8 0e       	add	r10, r24
    3dc8:	b9 1e       	adc	r11, r25
    3dca:	9f e6       	ldi	r25, 0x6F	; 111
    3dcc:	f9 22       	and	r15, r25
    3dce:	57 ff       	sbrs	r21, 7
    3dd0:	09 c0       	rjmp	.+18     	; 0x3de4 <vfprintf+0x21e>
    3dd2:	50 95       	com	r21
    3dd4:	40 95       	com	r20
    3dd6:	30 95       	com	r19
    3dd8:	21 95       	neg	r18
    3dda:	3f 4f       	sbci	r19, 0xFF	; 255
    3ddc:	4f 4f       	sbci	r20, 0xFF	; 255
    3dde:	5f 4f       	sbci	r21, 0xFF	; 255
    3de0:	e0 e8       	ldi	r30, 0x80	; 128
    3de2:	fe 2a       	or	r15, r30
    3de4:	ca 01       	movw	r24, r20
    3de6:	b9 01       	movw	r22, r18
    3de8:	a1 01       	movw	r20, r2
    3dea:	2a e0       	ldi	r18, 0x0A	; 10
    3dec:	30 e0       	ldi	r19, 0x00	; 0
    3dee:	0e 94 02 20 	call	0x4004	; 0x4004 <__ultoa_invert>
    3df2:	d8 2e       	mov	r13, r24
    3df4:	d2 18       	sub	r13, r2
    3df6:	40 c0       	rjmp	.+128    	; 0x3e78 <vfprintf+0x2b2>
    3df8:	95 37       	cpi	r25, 0x75	; 117
    3dfa:	29 f4       	brne	.+10     	; 0x3e06 <vfprintf+0x240>
    3dfc:	1f 2d       	mov	r17, r15
    3dfe:	1f 7e       	andi	r17, 0xEF	; 239
    3e00:	2a e0       	ldi	r18, 0x0A	; 10
    3e02:	30 e0       	ldi	r19, 0x00	; 0
    3e04:	1d c0       	rjmp	.+58     	; 0x3e40 <vfprintf+0x27a>
    3e06:	1f 2d       	mov	r17, r15
    3e08:	19 7f       	andi	r17, 0xF9	; 249
    3e0a:	9f 36       	cpi	r25, 0x6F	; 111
    3e0c:	61 f0       	breq	.+24     	; 0x3e26 <vfprintf+0x260>
    3e0e:	90 37       	cpi	r25, 0x70	; 112
    3e10:	20 f4       	brcc	.+8      	; 0x3e1a <vfprintf+0x254>
    3e12:	98 35       	cpi	r25, 0x58	; 88
    3e14:	09 f0       	breq	.+2      	; 0x3e18 <vfprintf+0x252>
    3e16:	ac c0       	rjmp	.+344    	; 0x3f70 <vfprintf+0x3aa>
    3e18:	0f c0       	rjmp	.+30     	; 0x3e38 <vfprintf+0x272>
    3e1a:	90 37       	cpi	r25, 0x70	; 112
    3e1c:	39 f0       	breq	.+14     	; 0x3e2c <vfprintf+0x266>
    3e1e:	98 37       	cpi	r25, 0x78	; 120
    3e20:	09 f0       	breq	.+2      	; 0x3e24 <vfprintf+0x25e>
    3e22:	a6 c0       	rjmp	.+332    	; 0x3f70 <vfprintf+0x3aa>
    3e24:	04 c0       	rjmp	.+8      	; 0x3e2e <vfprintf+0x268>
    3e26:	28 e0       	ldi	r18, 0x08	; 8
    3e28:	30 e0       	ldi	r19, 0x00	; 0
    3e2a:	0a c0       	rjmp	.+20     	; 0x3e40 <vfprintf+0x27a>
    3e2c:	10 61       	ori	r17, 0x10	; 16
    3e2e:	14 fd       	sbrc	r17, 4
    3e30:	14 60       	ori	r17, 0x04	; 4
    3e32:	20 e1       	ldi	r18, 0x10	; 16
    3e34:	30 e0       	ldi	r19, 0x00	; 0
    3e36:	04 c0       	rjmp	.+8      	; 0x3e40 <vfprintf+0x27a>
    3e38:	14 fd       	sbrc	r17, 4
    3e3a:	16 60       	ori	r17, 0x06	; 6
    3e3c:	20 e1       	ldi	r18, 0x10	; 16
    3e3e:	32 e0       	ldi	r19, 0x02	; 2
    3e40:	17 ff       	sbrs	r17, 7
    3e42:	08 c0       	rjmp	.+16     	; 0x3e54 <vfprintf+0x28e>
    3e44:	f5 01       	movw	r30, r10
    3e46:	60 81       	ld	r22, Z
    3e48:	71 81       	ldd	r23, Z+1	; 0x01
    3e4a:	82 81       	ldd	r24, Z+2	; 0x02
    3e4c:	93 81       	ldd	r25, Z+3	; 0x03
    3e4e:	44 e0       	ldi	r20, 0x04	; 4
    3e50:	50 e0       	ldi	r21, 0x00	; 0
    3e52:	08 c0       	rjmp	.+16     	; 0x3e64 <vfprintf+0x29e>
    3e54:	f5 01       	movw	r30, r10
    3e56:	80 81       	ld	r24, Z
    3e58:	91 81       	ldd	r25, Z+1	; 0x01
    3e5a:	bc 01       	movw	r22, r24
    3e5c:	80 e0       	ldi	r24, 0x00	; 0
    3e5e:	90 e0       	ldi	r25, 0x00	; 0
    3e60:	42 e0       	ldi	r20, 0x02	; 2
    3e62:	50 e0       	ldi	r21, 0x00	; 0
    3e64:	a4 0e       	add	r10, r20
    3e66:	b5 1e       	adc	r11, r21
    3e68:	a1 01       	movw	r20, r2
    3e6a:	0e 94 02 20 	call	0x4004	; 0x4004 <__ultoa_invert>
    3e6e:	d8 2e       	mov	r13, r24
    3e70:	d2 18       	sub	r13, r2
    3e72:	8f e7       	ldi	r24, 0x7F	; 127
    3e74:	f8 2e       	mov	r15, r24
    3e76:	f1 22       	and	r15, r17
    3e78:	f6 fe       	sbrs	r15, 6
    3e7a:	0b c0       	rjmp	.+22     	; 0x3e92 <vfprintf+0x2cc>
    3e7c:	5e ef       	ldi	r21, 0xFE	; 254
    3e7e:	f5 22       	and	r15, r21
    3e80:	d9 14       	cp	r13, r9
    3e82:	38 f4       	brcc	.+14     	; 0x3e92 <vfprintf+0x2cc>
    3e84:	f4 fe       	sbrs	r15, 4
    3e86:	07 c0       	rjmp	.+14     	; 0x3e96 <vfprintf+0x2d0>
    3e88:	f2 fc       	sbrc	r15, 2
    3e8a:	05 c0       	rjmp	.+10     	; 0x3e96 <vfprintf+0x2d0>
    3e8c:	8f ee       	ldi	r24, 0xEF	; 239
    3e8e:	f8 22       	and	r15, r24
    3e90:	02 c0       	rjmp	.+4      	; 0x3e96 <vfprintf+0x2d0>
    3e92:	1d 2d       	mov	r17, r13
    3e94:	01 c0       	rjmp	.+2      	; 0x3e98 <vfprintf+0x2d2>
    3e96:	19 2d       	mov	r17, r9
    3e98:	f4 fe       	sbrs	r15, 4
    3e9a:	0d c0       	rjmp	.+26     	; 0x3eb6 <vfprintf+0x2f0>
    3e9c:	fe 01       	movw	r30, r28
    3e9e:	ed 0d       	add	r30, r13
    3ea0:	f1 1d       	adc	r31, r1
    3ea2:	80 81       	ld	r24, Z
    3ea4:	80 33       	cpi	r24, 0x30	; 48
    3ea6:	19 f4       	brne	.+6      	; 0x3eae <vfprintf+0x2e8>
    3ea8:	99 ee       	ldi	r25, 0xE9	; 233
    3eaa:	f9 22       	and	r15, r25
    3eac:	08 c0       	rjmp	.+16     	; 0x3ebe <vfprintf+0x2f8>
    3eae:	1f 5f       	subi	r17, 0xFF	; 255
    3eb0:	f2 fe       	sbrs	r15, 2
    3eb2:	05 c0       	rjmp	.+10     	; 0x3ebe <vfprintf+0x2f8>
    3eb4:	03 c0       	rjmp	.+6      	; 0x3ebc <vfprintf+0x2f6>
    3eb6:	8f 2d       	mov	r24, r15
    3eb8:	86 78       	andi	r24, 0x86	; 134
    3eba:	09 f0       	breq	.+2      	; 0x3ebe <vfprintf+0x2f8>
    3ebc:	1f 5f       	subi	r17, 0xFF	; 255
    3ebe:	0f 2d       	mov	r16, r15
    3ec0:	f3 fc       	sbrc	r15, 3
    3ec2:	14 c0       	rjmp	.+40     	; 0x3eec <vfprintf+0x326>
    3ec4:	f0 fe       	sbrs	r15, 0
    3ec6:	0f c0       	rjmp	.+30     	; 0x3ee6 <vfprintf+0x320>
    3ec8:	1e 15       	cp	r17, r14
    3eca:	10 f0       	brcs	.+4      	; 0x3ed0 <vfprintf+0x30a>
    3ecc:	9d 2c       	mov	r9, r13
    3ece:	0b c0       	rjmp	.+22     	; 0x3ee6 <vfprintf+0x320>
    3ed0:	9d 2c       	mov	r9, r13
    3ed2:	9e 0c       	add	r9, r14
    3ed4:	91 1a       	sub	r9, r17
    3ed6:	1e 2d       	mov	r17, r14
    3ed8:	06 c0       	rjmp	.+12     	; 0x3ee6 <vfprintf+0x320>
    3eda:	80 e2       	ldi	r24, 0x20	; 32
    3edc:	90 e0       	ldi	r25, 0x00	; 0
    3ede:	b3 01       	movw	r22, r6
    3ee0:	0e 94 d6 1f 	call	0x3fac	; 0x3fac <fputc>
    3ee4:	1f 5f       	subi	r17, 0xFF	; 255
    3ee6:	1e 15       	cp	r17, r14
    3ee8:	c0 f3       	brcs	.-16     	; 0x3eda <vfprintf+0x314>
    3eea:	04 c0       	rjmp	.+8      	; 0x3ef4 <vfprintf+0x32e>
    3eec:	1e 15       	cp	r17, r14
    3eee:	10 f4       	brcc	.+4      	; 0x3ef4 <vfprintf+0x32e>
    3ef0:	e1 1a       	sub	r14, r17
    3ef2:	01 c0       	rjmp	.+2      	; 0x3ef6 <vfprintf+0x330>
    3ef4:	ee 24       	eor	r14, r14
    3ef6:	04 ff       	sbrs	r16, 4
    3ef8:	0f c0       	rjmp	.+30     	; 0x3f18 <vfprintf+0x352>
    3efa:	80 e3       	ldi	r24, 0x30	; 48
    3efc:	90 e0       	ldi	r25, 0x00	; 0
    3efe:	b3 01       	movw	r22, r6
    3f00:	0e 94 d6 1f 	call	0x3fac	; 0x3fac <fputc>
    3f04:	02 ff       	sbrs	r16, 2
    3f06:	1d c0       	rjmp	.+58     	; 0x3f42 <vfprintf+0x37c>
    3f08:	01 fd       	sbrc	r16, 1
    3f0a:	03 c0       	rjmp	.+6      	; 0x3f12 <vfprintf+0x34c>
    3f0c:	88 e7       	ldi	r24, 0x78	; 120
    3f0e:	90 e0       	ldi	r25, 0x00	; 0
    3f10:	0e c0       	rjmp	.+28     	; 0x3f2e <vfprintf+0x368>
    3f12:	88 e5       	ldi	r24, 0x58	; 88
    3f14:	90 e0       	ldi	r25, 0x00	; 0
    3f16:	0b c0       	rjmp	.+22     	; 0x3f2e <vfprintf+0x368>
    3f18:	80 2f       	mov	r24, r16
    3f1a:	86 78       	andi	r24, 0x86	; 134
    3f1c:	91 f0       	breq	.+36     	; 0x3f42 <vfprintf+0x37c>
    3f1e:	01 ff       	sbrs	r16, 1
    3f20:	02 c0       	rjmp	.+4      	; 0x3f26 <vfprintf+0x360>
    3f22:	8b e2       	ldi	r24, 0x2B	; 43
    3f24:	01 c0       	rjmp	.+2      	; 0x3f28 <vfprintf+0x362>
    3f26:	80 e2       	ldi	r24, 0x20	; 32
    3f28:	f7 fc       	sbrc	r15, 7
    3f2a:	8d e2       	ldi	r24, 0x2D	; 45
    3f2c:	90 e0       	ldi	r25, 0x00	; 0
    3f2e:	b3 01       	movw	r22, r6
    3f30:	0e 94 d6 1f 	call	0x3fac	; 0x3fac <fputc>
    3f34:	06 c0       	rjmp	.+12     	; 0x3f42 <vfprintf+0x37c>
    3f36:	80 e3       	ldi	r24, 0x30	; 48
    3f38:	90 e0       	ldi	r25, 0x00	; 0
    3f3a:	b3 01       	movw	r22, r6
    3f3c:	0e 94 d6 1f 	call	0x3fac	; 0x3fac <fputc>
    3f40:	9a 94       	dec	r9
    3f42:	d9 14       	cp	r13, r9
    3f44:	c0 f3       	brcs	.-16     	; 0x3f36 <vfprintf+0x370>
    3f46:	da 94       	dec	r13
    3f48:	f1 01       	movw	r30, r2
    3f4a:	ed 0d       	add	r30, r13
    3f4c:	f1 1d       	adc	r31, r1
    3f4e:	80 81       	ld	r24, Z
    3f50:	90 e0       	ldi	r25, 0x00	; 0
    3f52:	b3 01       	movw	r22, r6
    3f54:	0e 94 d6 1f 	call	0x3fac	; 0x3fac <fputc>
    3f58:	dd 20       	and	r13, r13
    3f5a:	a9 f7       	brne	.-22     	; 0x3f46 <vfprintf+0x380>
    3f5c:	06 c0       	rjmp	.+12     	; 0x3f6a <vfprintf+0x3a4>
    3f5e:	80 e2       	ldi	r24, 0x20	; 32
    3f60:	90 e0       	ldi	r25, 0x00	; 0
    3f62:	b3 01       	movw	r22, r6
    3f64:	0e 94 d6 1f 	call	0x3fac	; 0x3fac <fputc>
    3f68:	ea 94       	dec	r14
    3f6a:	ee 20       	and	r14, r14
    3f6c:	c1 f7       	brne	.-16     	; 0x3f5e <vfprintf+0x398>
    3f6e:	43 ce       	rjmp	.-890    	; 0x3bf6 <vfprintf+0x30>
    3f70:	f3 01       	movw	r30, r6
    3f72:	66 81       	ldd	r22, Z+6	; 0x06
    3f74:	77 81       	ldd	r23, Z+7	; 0x07
    3f76:	cb 01       	movw	r24, r22
    3f78:	2b 96       	adiw	r28, 0x0b	; 11
    3f7a:	e2 e1       	ldi	r30, 0x12	; 18
    3f7c:	0c 94 7c 20 	jmp	0x40f8	; 0x40f8 <__epilogue_restores__>

00003f80 <strnlen_P>:
    3f80:	fc 01       	movw	r30, r24
    3f82:	05 90       	lpm	r0, Z+
    3f84:	61 50       	subi	r22, 0x01	; 1
    3f86:	70 40       	sbci	r23, 0x00	; 0
    3f88:	01 10       	cpse	r0, r1
    3f8a:	d8 f7       	brcc	.-10     	; 0x3f82 <strnlen_P+0x2>
    3f8c:	80 95       	com	r24
    3f8e:	90 95       	com	r25
    3f90:	8e 0f       	add	r24, r30
    3f92:	9f 1f       	adc	r25, r31
    3f94:	08 95       	ret

00003f96 <strnlen>:
    3f96:	fc 01       	movw	r30, r24
    3f98:	61 50       	subi	r22, 0x01	; 1
    3f9a:	70 40       	sbci	r23, 0x00	; 0
    3f9c:	01 90       	ld	r0, Z+
    3f9e:	01 10       	cpse	r0, r1
    3fa0:	d8 f7       	brcc	.-10     	; 0x3f98 <strnlen+0x2>
    3fa2:	80 95       	com	r24
    3fa4:	90 95       	com	r25
    3fa6:	8e 0f       	add	r24, r30
    3fa8:	9f 1f       	adc	r25, r31
    3faa:	08 95       	ret

00003fac <fputc>:
    3fac:	0f 93       	push	r16
    3fae:	1f 93       	push	r17
    3fb0:	cf 93       	push	r28
    3fb2:	df 93       	push	r29
    3fb4:	8c 01       	movw	r16, r24
    3fb6:	eb 01       	movw	r28, r22
    3fb8:	8b 81       	ldd	r24, Y+3	; 0x03
    3fba:	81 ff       	sbrs	r24, 1
    3fbc:	1b c0       	rjmp	.+54     	; 0x3ff4 <fputc+0x48>
    3fbe:	82 ff       	sbrs	r24, 2
    3fc0:	0d c0       	rjmp	.+26     	; 0x3fdc <fputc+0x30>
    3fc2:	2e 81       	ldd	r18, Y+6	; 0x06
    3fc4:	3f 81       	ldd	r19, Y+7	; 0x07
    3fc6:	8c 81       	ldd	r24, Y+4	; 0x04
    3fc8:	9d 81       	ldd	r25, Y+5	; 0x05
    3fca:	28 17       	cp	r18, r24
    3fcc:	39 07       	cpc	r19, r25
    3fce:	64 f4       	brge	.+24     	; 0x3fe8 <fputc+0x3c>
    3fd0:	e8 81       	ld	r30, Y
    3fd2:	f9 81       	ldd	r31, Y+1	; 0x01
    3fd4:	01 93       	st	Z+, r16
    3fd6:	f9 83       	std	Y+1, r31	; 0x01
    3fd8:	e8 83       	st	Y, r30
    3fda:	06 c0       	rjmp	.+12     	; 0x3fe8 <fputc+0x3c>
    3fdc:	e8 85       	ldd	r30, Y+8	; 0x08
    3fde:	f9 85       	ldd	r31, Y+9	; 0x09
    3fe0:	80 2f       	mov	r24, r16
    3fe2:	09 95       	icall
    3fe4:	89 2b       	or	r24, r25
    3fe6:	31 f4       	brne	.+12     	; 0x3ff4 <fputc+0x48>
    3fe8:	8e 81       	ldd	r24, Y+6	; 0x06
    3fea:	9f 81       	ldd	r25, Y+7	; 0x07
    3fec:	01 96       	adiw	r24, 0x01	; 1
    3fee:	9f 83       	std	Y+7, r25	; 0x07
    3ff0:	8e 83       	std	Y+6, r24	; 0x06
    3ff2:	02 c0       	rjmp	.+4      	; 0x3ff8 <fputc+0x4c>
    3ff4:	0f ef       	ldi	r16, 0xFF	; 255
    3ff6:	1f ef       	ldi	r17, 0xFF	; 255
    3ff8:	c8 01       	movw	r24, r16
    3ffa:	df 91       	pop	r29
    3ffc:	cf 91       	pop	r28
    3ffe:	1f 91       	pop	r17
    4000:	0f 91       	pop	r16
    4002:	08 95       	ret

00004004 <__ultoa_invert>:
    4004:	fa 01       	movw	r30, r20
    4006:	aa 27       	eor	r26, r26
    4008:	28 30       	cpi	r18, 0x08	; 8
    400a:	51 f1       	breq	.+84     	; 0x4060 <__ultoa_invert+0x5c>
    400c:	20 31       	cpi	r18, 0x10	; 16
    400e:	81 f1       	breq	.+96     	; 0x4070 <__ultoa_invert+0x6c>
    4010:	e8 94       	clt
    4012:	6f 93       	push	r22
    4014:	6e 7f       	andi	r22, 0xFE	; 254
    4016:	6e 5f       	subi	r22, 0xFE	; 254
    4018:	7f 4f       	sbci	r23, 0xFF	; 255
    401a:	8f 4f       	sbci	r24, 0xFF	; 255
    401c:	9f 4f       	sbci	r25, 0xFF	; 255
    401e:	af 4f       	sbci	r26, 0xFF	; 255
    4020:	b1 e0       	ldi	r27, 0x01	; 1
    4022:	3e d0       	rcall	.+124    	; 0x40a0 <__ultoa_invert+0x9c>
    4024:	b4 e0       	ldi	r27, 0x04	; 4
    4026:	3c d0       	rcall	.+120    	; 0x40a0 <__ultoa_invert+0x9c>
    4028:	67 0f       	add	r22, r23
    402a:	78 1f       	adc	r23, r24
    402c:	89 1f       	adc	r24, r25
    402e:	9a 1f       	adc	r25, r26
    4030:	a1 1d       	adc	r26, r1
    4032:	68 0f       	add	r22, r24
    4034:	79 1f       	adc	r23, r25
    4036:	8a 1f       	adc	r24, r26
    4038:	91 1d       	adc	r25, r1
    403a:	a1 1d       	adc	r26, r1
    403c:	6a 0f       	add	r22, r26
    403e:	71 1d       	adc	r23, r1
    4040:	81 1d       	adc	r24, r1
    4042:	91 1d       	adc	r25, r1
    4044:	a1 1d       	adc	r26, r1
    4046:	20 d0       	rcall	.+64     	; 0x4088 <__ultoa_invert+0x84>
    4048:	09 f4       	brne	.+2      	; 0x404c <__ultoa_invert+0x48>
    404a:	68 94       	set
    404c:	3f 91       	pop	r19
    404e:	2a e0       	ldi	r18, 0x0A	; 10
    4050:	26 9f       	mul	r18, r22
    4052:	11 24       	eor	r1, r1
    4054:	30 19       	sub	r19, r0
    4056:	30 5d       	subi	r19, 0xD0	; 208
    4058:	31 93       	st	Z+, r19
    405a:	de f6       	brtc	.-74     	; 0x4012 <__ultoa_invert+0xe>
    405c:	cf 01       	movw	r24, r30
    405e:	08 95       	ret
    4060:	46 2f       	mov	r20, r22
    4062:	47 70       	andi	r20, 0x07	; 7
    4064:	40 5d       	subi	r20, 0xD0	; 208
    4066:	41 93       	st	Z+, r20
    4068:	b3 e0       	ldi	r27, 0x03	; 3
    406a:	0f d0       	rcall	.+30     	; 0x408a <__ultoa_invert+0x86>
    406c:	c9 f7       	brne	.-14     	; 0x4060 <__ultoa_invert+0x5c>
    406e:	f6 cf       	rjmp	.-20     	; 0x405c <__ultoa_invert+0x58>
    4070:	46 2f       	mov	r20, r22
    4072:	4f 70       	andi	r20, 0x0F	; 15
    4074:	40 5d       	subi	r20, 0xD0	; 208
    4076:	4a 33       	cpi	r20, 0x3A	; 58
    4078:	18 f0       	brcs	.+6      	; 0x4080 <__ultoa_invert+0x7c>
    407a:	49 5d       	subi	r20, 0xD9	; 217
    407c:	31 fd       	sbrc	r19, 1
    407e:	40 52       	subi	r20, 0x20	; 32
    4080:	41 93       	st	Z+, r20
    4082:	02 d0       	rcall	.+4      	; 0x4088 <__ultoa_invert+0x84>
    4084:	a9 f7       	brne	.-22     	; 0x4070 <__ultoa_invert+0x6c>
    4086:	ea cf       	rjmp	.-44     	; 0x405c <__ultoa_invert+0x58>
    4088:	b4 e0       	ldi	r27, 0x04	; 4
    408a:	a6 95       	lsr	r26
    408c:	97 95       	ror	r25
    408e:	87 95       	ror	r24
    4090:	77 95       	ror	r23
    4092:	67 95       	ror	r22
    4094:	ba 95       	dec	r27
    4096:	c9 f7       	brne	.-14     	; 0x408a <__ultoa_invert+0x86>
    4098:	00 97       	sbiw	r24, 0x00	; 0
    409a:	61 05       	cpc	r22, r1
    409c:	71 05       	cpc	r23, r1
    409e:	08 95       	ret
    40a0:	9b 01       	movw	r18, r22
    40a2:	ac 01       	movw	r20, r24
    40a4:	0a 2e       	mov	r0, r26
    40a6:	06 94       	lsr	r0
    40a8:	57 95       	ror	r21
    40aa:	47 95       	ror	r20
    40ac:	37 95       	ror	r19
    40ae:	27 95       	ror	r18
    40b0:	ba 95       	dec	r27
    40b2:	c9 f7       	brne	.-14     	; 0x40a6 <__ultoa_invert+0xa2>
    40b4:	62 0f       	add	r22, r18
    40b6:	73 1f       	adc	r23, r19
    40b8:	84 1f       	adc	r24, r20
    40ba:	95 1f       	adc	r25, r21
    40bc:	a0 1d       	adc	r26, r0
    40be:	08 95       	ret

000040c0 <__prologue_saves__>:
    40c0:	2f 92       	push	r2
    40c2:	3f 92       	push	r3
    40c4:	4f 92       	push	r4
    40c6:	5f 92       	push	r5
    40c8:	6f 92       	push	r6
    40ca:	7f 92       	push	r7
    40cc:	8f 92       	push	r8
    40ce:	9f 92       	push	r9
    40d0:	af 92       	push	r10
    40d2:	bf 92       	push	r11
    40d4:	cf 92       	push	r12
    40d6:	df 92       	push	r13
    40d8:	ef 92       	push	r14
    40da:	ff 92       	push	r15
    40dc:	0f 93       	push	r16
    40de:	1f 93       	push	r17
    40e0:	cf 93       	push	r28
    40e2:	df 93       	push	r29
    40e4:	cd b7       	in	r28, 0x3d	; 61
    40e6:	de b7       	in	r29, 0x3e	; 62
    40e8:	ca 1b       	sub	r28, r26
    40ea:	db 0b       	sbc	r29, r27
    40ec:	0f b6       	in	r0, 0x3f	; 63
    40ee:	f8 94       	cli
    40f0:	de bf       	out	0x3e, r29	; 62
    40f2:	0f be       	out	0x3f, r0	; 63
    40f4:	cd bf       	out	0x3d, r28	; 61
    40f6:	09 94       	ijmp

000040f8 <__epilogue_restores__>:
    40f8:	2a 88       	ldd	r2, Y+18	; 0x12
    40fa:	39 88       	ldd	r3, Y+17	; 0x11
    40fc:	48 88       	ldd	r4, Y+16	; 0x10
    40fe:	5f 84       	ldd	r5, Y+15	; 0x0f
    4100:	6e 84       	ldd	r6, Y+14	; 0x0e
    4102:	7d 84       	ldd	r7, Y+13	; 0x0d
    4104:	8c 84       	ldd	r8, Y+12	; 0x0c
    4106:	9b 84       	ldd	r9, Y+11	; 0x0b
    4108:	aa 84       	ldd	r10, Y+10	; 0x0a
    410a:	b9 84       	ldd	r11, Y+9	; 0x09
    410c:	c8 84       	ldd	r12, Y+8	; 0x08
    410e:	df 80       	ldd	r13, Y+7	; 0x07
    4110:	ee 80       	ldd	r14, Y+6	; 0x06
    4112:	fd 80       	ldd	r15, Y+5	; 0x05
    4114:	0c 81       	ldd	r16, Y+4	; 0x04
    4116:	1b 81       	ldd	r17, Y+3	; 0x03
    4118:	aa 81       	ldd	r26, Y+2	; 0x02
    411a:	b9 81       	ldd	r27, Y+1	; 0x01
    411c:	ce 0f       	add	r28, r30
    411e:	d1 1d       	adc	r29, r1
    4120:	0f b6       	in	r0, 0x3f	; 63
    4122:	f8 94       	cli
    4124:	de bf       	out	0x3e, r29	; 62
    4126:	0f be       	out	0x3f, r0	; 63
    4128:	cd bf       	out	0x3d, r28	; 61
    412a:	ed 01       	movw	r28, r26
    412c:	08 95       	ret

0000412e <_exit>:
    412e:	f8 94       	cli

00004130 <__stop_program>:
    4130:	ff cf       	rjmp	.-2      	; 0x4130 <__stop_program>
